
ftl_ariane.elf:     file format elf64-littleriscv


Disassembly of section .text:

0000000000200000 <start>:
  200000:	0000d297          	auipc	t0,0xd
  200004:	a1428293          	addi	t0,t0,-1516 # 20ca14 <dev_irq_handler>
  200008:	30529073          	csrw	mtvec,t0
  20000c:	00000297          	auipc	t0,0x0
  200010:	00c28293          	addi	t0,t0,12 # 200018 <_main>
  200014:	34129073          	csrw	mepc,t0

0000000000200018 <_main>:
  200018:	304022f3          	csrr	t0,mie
  20001c:	00001137          	lui	sp,0x1
  200020:	8001011b          	addiw	sp,sp,-2048
  200024:	0022e2b3          	or	t0,t0,sp
  200028:	30429073          	csrw	mie,t0
  20002c:	300462f3          	csrrsi	t0,mstatus,8
  200030:	00300137          	lui	sp,0x300
  200034:	00c00093          	li	ra,12
  200038:	00a0006f          	j	200042 <main>
  20003c:	0040006f          	j	200040 <end>

0000000000200040 <end>:
  200040:	0001                	nop

0000000000200042 <main>:
  200042:	00210537          	lui	a0,0x210
  200046:	1141                	addi	sp,sp,-16
  200048:	97050513          	addi	a0,a0,-1680 # 20f970 <nvme_main+0xeba>
  20004c:	e406                	sd	ra,8(sp)
  20004e:	56a040ef          	jal	ra,2045b8 <cpl_print>
  200052:	00210537          	lui	a0,0x210
  200056:	98850513          	addi	a0,a0,-1656 # 20f988 <nvme_main+0xed2>
  20005a:	55e040ef          	jal	ra,2045b8 <cpl_print>
  20005e:	00210537          	lui	a0,0x210
  200062:	63000613          	li	a2,1584
  200066:	4581                	li	a1,0
  200068:	f2850513          	addi	a0,a0,-216 # 20ff28 <__bss_start>
  20006c:	6b60e0ef          	jal	ra,20e722 <cpl_memset>
  200070:	00210537          	lui	a0,0x210
  200074:	99050513          	addi	a0,a0,-1648 # 20f990 <nvme_main+0xeda>
  200078:	540040ef          	jal	ra,2045b8 <cpl_print>
  20007c:	0f10c0ef          	jal	ra,20c96c <dev_irq_init>
  200080:	2370e0ef          	jal	ra,20eab6 <nvme_main>
  200084:	00210537          	lui	a0,0x210
  200088:	9b050513          	addi	a0,a0,-1616 # 20f9b0 <nvme_main+0xefa>
  20008c:	52c040ef          	jal	ra,2045b8 <cpl_print>
  200090:	60a2                	ld	ra,8(sp)
  200092:	4501                	li	a0,0
  200094:	0141                	addi	sp,sp,16
  200096:	8082                	ret

0000000000200098 <InitAddressMap>:
  200098:	1101                	addi	sp,sp,-32
  20009a:	ec06                	sd	ra,24(sp)
  20009c:	e822                	sd	s0,16(sp)
  20009e:	1000                	addi	s0,sp,32
  2000a0:	002107b7          	lui	a5,0x210
  2000a4:	18005737          	lui	a4,0x18005
  2000a8:	10070713          	addi	a4,a4,256 # 18005100 <g_nvmeTask+0x17df4c98>
  2000ac:	f2e7bc23          	sd	a4,-200(a5) # 20ff38 <logicalSliceMapPtr>
  2000b0:	002107b7          	lui	a5,0x210
  2000b4:	28005737          	lui	a4,0x28005
  2000b8:	10070713          	addi	a4,a4,256 # 28005100 <g_nvmeTask+0x27df4c98>
  2000bc:	f4e7b823          	sd	a4,-176(a5) # 20ff50 <virtualSliceMapPtr>
  2000c0:	002107b7          	lui	a5,0x210
  2000c4:	38005737          	lui	a4,0x38005
  2000c8:	10070713          	addi	a4,a4,256 # 38005100 <g_nvmeTask+0x37df4c98>
  2000cc:	f4e7b423          	sd	a4,-184(a5) # 20ff48 <virtualBlockMapPtr>
  2000d0:	002107b7          	lui	a5,0x210
  2000d4:	38810737          	lui	a4,0x38810
  2000d8:	20070713          	addi	a4,a4,512 # 38810200 <g_nvmeTask+0x385ffd98>
  2000dc:	f4e7b023          	sd	a4,-192(a5) # 20ff40 <virtualDieMapPtr>
  2000e0:	002107b7          	lui	a5,0x210
  2000e4:	38605737          	lui	a4,0x38605
  2000e8:	10070713          	addi	a4,a4,256 # 38605100 <g_nvmeTask+0x383f4c98>
  2000ec:	f6e7b023          	sd	a4,-160(a5) # 20ff60 <phyBlockMapPtr>
  2000f0:	002107b7          	lui	a5,0x210
  2000f4:	38810737          	lui	a4,0x38810
  2000f8:	10070713          	addi	a4,a4,256 # 38810100 <g_nvmeTask+0x385ffc98>
  2000fc:	f4e7bc23          	sd	a4,-168(a5) # 20ff58 <bbtInfoMapPtr>
  200100:	fe042423          	sw	zero,-24(s0)
  200104:	a069                	j	20018e <InitAddressMap+0xf6>
  200106:	fe042623          	sw	zero,-20(s0)
  20010a:	a82d                	j	200144 <InitAddressMap+0xac>
  20010c:	002107b7          	lui	a5,0x210
  200110:	f607b683          	ld	a3,-160(a5) # 20ff60 <phyBlockMapPtr>
  200114:	fec42783          	lw	a5,-20(s0)
  200118:	03079713          	slli	a4,a5,0x30
  20011c:	9341                	srli	a4,a4,0x30
  20011e:	fec46783          	lwu	a5,-20(s0)
  200122:	fe846583          	lwu	a1,-24(s0)
  200126:	6609                	lui	a2,0x2
  200128:	0b060613          	addi	a2,a2,176 # 20b0 <start-0x1fdf50>
  20012c:	02c58633          	mul	a2,a1,a2
  200130:	97b2                	add	a5,a5,a2
  200132:	078a                	slli	a5,a5,0x2
  200134:	97b6                	add	a5,a5,a3
  200136:	00e79023          	sh	a4,0(a5)
  20013a:	fec42783          	lw	a5,-20(s0)
  20013e:	2785                	addiw	a5,a5,1
  200140:	fef42623          	sw	a5,-20(s0)
  200144:	fec42783          	lw	a5,-20(s0)
  200148:	0007871b          	sext.w	a4,a5
  20014c:	6789                	lui	a5,0x2
  20014e:	0af78793          	addi	a5,a5,175 # 20af <start-0x1fdf51>
  200152:	fae7fde3          	bgeu	a5,a4,20010c <InitAddressMap+0x74>
  200156:	002107b7          	lui	a5,0x210
  20015a:	f587b703          	ld	a4,-168(a5) # 20ff58 <bbtInfoMapPtr>
  20015e:	fe846783          	lwu	a5,-24(s0)
  200162:	078a                	slli	a5,a5,0x2
  200164:	97ba                	add	a5,a5,a4
  200166:	00079023          	sh	zero,0(a5)
  20016a:	002107b7          	lui	a5,0x210
  20016e:	f587b703          	ld	a4,-168(a5) # 20ff58 <bbtInfoMapPtr>
  200172:	fe846783          	lwu	a5,-24(s0)
  200176:	078a                	slli	a5,a5,0x2
  200178:	97ba                	add	a5,a5,a4
  20017a:	4394                	lw	a3,0(a5)
  20017c:	7741                	lui	a4,0xffff0
  20017e:	177d                	addi	a4,a4,-1
  200180:	8f75                	and	a4,a4,a3
  200182:	c398                	sw	a4,0(a5)
  200184:	fe842783          	lw	a5,-24(s0)
  200188:	2785                	addiw	a5,a5,1
  20018a:	fef42423          	sw	a5,-24(s0)
  20018e:	fe842783          	lw	a5,-24(s0)
  200192:	0007871b          	sext.w	a4,a5
  200196:	03f00793          	li	a5,63
  20019a:	f6e7f6e3          	bgeu	a5,a4,200106 <InitAddressMap+0x6e>
  20019e:	2e2020ef          	jal	ra,202480 <FindDieForFreeSliceAllocation>
  2001a2:	87aa                	mv	a5,a0
  2001a4:	2781                	sext.w	a5,a5
  2001a6:	0ff7f713          	andi	a4,a5,255
  2001aa:	002107b7          	lui	a5,0x210
  2001ae:	f2e78823          	sb	a4,-208(a5) # 20ff30 <sliceAllocationTargetDie>
  2001b2:	012000ef          	jal	ra,2001c4 <InitSliceMap>
  2001b6:	435010ef          	jal	ra,201dea <InitBlockDieMap>
  2001ba:	0001                	nop
  2001bc:	60e2                	ld	ra,24(sp)
  2001be:	6442                	ld	s0,16(sp)
  2001c0:	6105                	addi	sp,sp,32
  2001c2:	8082                	ret

00000000002001c4 <InitSliceMap>:
  2001c4:	1101                	addi	sp,sp,-32
  2001c6:	ec22                	sd	s0,24(sp)
  2001c8:	1000                	addi	s0,sp,32
  2001ca:	fe042623          	sw	zero,-20(s0)
  2001ce:	a815                	j	200202 <InitSliceMap+0x3e>
  2001d0:	002107b7          	lui	a5,0x210
  2001d4:	f387b703          	ld	a4,-200(a5) # 20ff38 <logicalSliceMapPtr>
  2001d8:	fec42783          	lw	a5,-20(s0)
  2001dc:	078a                	slli	a5,a5,0x2
  2001de:	97ba                	add	a5,a5,a4
  2001e0:	577d                	li	a4,-1
  2001e2:	c398                	sw	a4,0(a5)
  2001e4:	002107b7          	lui	a5,0x210
  2001e8:	f507b703          	ld	a4,-176(a5) # 20ff50 <virtualSliceMapPtr>
  2001ec:	fec42783          	lw	a5,-20(s0)
  2001f0:	078a                	slli	a5,a5,0x2
  2001f2:	97ba                	add	a5,a5,a4
  2001f4:	577d                	li	a4,-1
  2001f6:	c398                	sw	a4,0(a5)
  2001f8:	fec42783          	lw	a5,-20(s0)
  2001fc:	2785                	addiw	a5,a5,1
  2001fe:	fef42623          	sw	a5,-20(s0)
  200202:	fec42783          	lw	a5,-20(s0)
  200206:	0007871b          	sext.w	a4,a5
  20020a:	040007b7          	lui	a5,0x4000
  20020e:	fcf741e3          	blt	a4,a5,2001d0 <InitSliceMap+0xc>
  200212:	0001                	nop
  200214:	0001                	nop
  200216:	6462                	ld	s0,24(sp)
  200218:	6105                	addi	sp,sp,32
  20021a:	8082                	ret

000000000020021c <RemapBadBlock>:
  20021c:	ce010113          	addi	sp,sp,-800 # 2ffce0 <g_nvmeTask+0xef878>
  200220:	30113c23          	sd	ra,792(sp)
  200224:	30813823          	sd	s0,784(sp)
  200228:	1600                	addi	s0,sp,800
  20022a:	0020f7b7          	lui	a5,0x20f
  20022e:	d3078513          	addi	a0,a5,-720 # 20ed30 <nvme_main+0x27a>
  200232:	386040ef          	jal	ra,2045b8 <cpl_print>
  200236:	fe042423          	sw	zero,-24(s0)
  20023a:	a091                	j	20027e <RemapBadBlock+0x62>
  20023c:	fe846783          	lwu	a5,-24(s0)
  200240:	078a                	slli	a5,a5,0x2
  200242:	ff040713          	addi	a4,s0,-16
  200246:	97ba                	add	a5,a5,a4
  200248:	6705                	lui	a4,0x1
  20024a:	eee7a823          	sw	a4,-272(a5)
  20024e:	fe846783          	lwu	a5,-24(s0)
  200252:	078a                	slli	a5,a5,0x2
  200254:	ff040713          	addi	a4,s0,-16
  200258:	97ba                	add	a5,a5,a4
  20025a:	6709                	lui	a4,0x2
  20025c:	05870713          	addi	a4,a4,88 # 2058 <start-0x1fdfa8>
  200260:	dee7a823          	sw	a4,-528(a5)
  200264:	fe846783          	lwu	a5,-24(s0)
  200268:	078a                	slli	a5,a5,0x2
  20026a:	ff040713          	addi	a4,s0,-16
  20026e:	97ba                	add	a5,a5,a4
  200270:	ce07a823          	sw	zero,-784(a5)
  200274:	fe842783          	lw	a5,-24(s0)
  200278:	2785                	addiw	a5,a5,1
  20027a:	fef42423          	sw	a5,-24(s0)
  20027e:	fe842783          	lw	a5,-24(s0)
  200282:	0007871b          	sext.w	a4,a5
  200286:	03f00793          	li	a5,63
  20028a:	fae7f9e3          	bgeu	a5,a4,20023c <RemapBadBlock+0x20>
  20028e:	fe042623          	sw	zero,-20(s0)
  200292:	a6bd                	j	200600 <RemapBadBlock+0x3e4>
  200294:	fe042423          	sw	zero,-24(s0)
  200298:	a6b9                	j	2005e6 <RemapBadBlock+0x3ca>
  20029a:	002107b7          	lui	a5,0x210
  20029e:	f607b703          	ld	a4,-160(a5) # 20ff60 <phyBlockMapPtr>
  2002a2:	fec46783          	lwu	a5,-20(s0)
  2002a6:	fe846603          	lwu	a2,-24(s0)
  2002aa:	6689                	lui	a3,0x2
  2002ac:	0b068693          	addi	a3,a3,176 # 20b0 <start-0x1fdf50>
  2002b0:	02d606b3          	mul	a3,a2,a3
  2002b4:	97b6                	add	a5,a5,a3
  2002b6:	078a                	slli	a5,a5,0x2
  2002b8:	97ba                	add	a5,a5,a4
  2002ba:	439c                	lw	a5,0(a5)
  2002bc:	0107d79b          	srliw	a5,a5,0x10
  2002c0:	8b85                	andi	a5,a5,1
  2002c2:	0ff7f793          	andi	a5,a5,255
  2002c6:	16078463          	beqz	a5,20042e <RemapBadBlock+0x212>
  2002ca:	fe846783          	lwu	a5,-24(s0)
  2002ce:	078a                	slli	a5,a5,0x2
  2002d0:	ff040713          	addi	a4,s0,-16
  2002d4:	97ba                	add	a5,a5,a4
  2002d6:	ef07a783          	lw	a5,-272(a5)
  2002da:	873e                	mv	a4,a5
  2002dc:	6785                	lui	a5,0x1
  2002de:	05778793          	addi	a5,a5,87 # 1057 <start-0x1fefa9>
  2002e2:	12e7e363          	bltu	a5,a4,200408 <RemapBadBlock+0x1ec>
  2002e6:	4785                	li	a5,1
  2002e8:	fef42223          	sw	a5,-28(s0)
  2002ec:	a0a9                	j	200336 <RemapBadBlock+0x11a>
  2002ee:	fe846783          	lwu	a5,-24(s0)
  2002f2:	078a                	slli	a5,a5,0x2
  2002f4:	ff040713          	addi	a4,s0,-16
  2002f8:	97ba                	add	a5,a5,a4
  2002fa:	ef07a783          	lw	a5,-272(a5)
  2002fe:	2785                	addiw	a5,a5,1
  200300:	0007871b          	sext.w	a4,a5
  200304:	fe846783          	lwu	a5,-24(s0)
  200308:	078a                	slli	a5,a5,0x2
  20030a:	ff040693          	addi	a3,s0,-16
  20030e:	97b6                	add	a5,a5,a3
  200310:	eee7a823          	sw	a4,-272(a5)
  200314:	fe846783          	lwu	a5,-24(s0)
  200318:	078a                	slli	a5,a5,0x2
  20031a:	ff040713          	addi	a4,s0,-16
  20031e:	97ba                	add	a5,a5,a4
  200320:	ef07a783          	lw	a5,-272(a5)
  200324:	873e                	mv	a4,a5
  200326:	6785                	lui	a5,0x1
  200328:	05778793          	addi	a5,a5,87 # 1057 <start-0x1fefa9>
  20032c:	00e7f563          	bgeu	a5,a4,200336 <RemapBadBlock+0x11a>
  200330:	fe042223          	sw	zero,-28(s0)
  200334:	a081                	j	200374 <RemapBadBlock+0x158>
  200336:	002107b7          	lui	a5,0x210
  20033a:	f607b703          	ld	a4,-160(a5) # 20ff60 <phyBlockMapPtr>
  20033e:	fe846783          	lwu	a5,-24(s0)
  200342:	078a                	slli	a5,a5,0x2
  200344:	ff040693          	addi	a3,s0,-16
  200348:	97b6                	add	a5,a5,a3
  20034a:	ef07a783          	lw	a5,-272(a5)
  20034e:	1782                	slli	a5,a5,0x20
  200350:	9381                	srli	a5,a5,0x20
  200352:	fe846603          	lwu	a2,-24(s0)
  200356:	6689                	lui	a3,0x2
  200358:	0b068693          	addi	a3,a3,176 # 20b0 <start-0x1fdf50>
  20035c:	02d606b3          	mul	a3,a2,a3
  200360:	97b6                	add	a5,a5,a3
  200362:	078a                	slli	a5,a5,0x2
  200364:	97ba                	add	a5,a5,a4
  200366:	439c                	lw	a5,0(a5)
  200368:	0107d79b          	srliw	a5,a5,0x10
  20036c:	8b85                	andi	a5,a5,1
  20036e:	0ff7f793          	andi	a5,a5,255
  200372:	ffb5                	bnez	a5,2002ee <RemapBadBlock+0xd2>
  200374:	fe442783          	lw	a5,-28(s0)
  200378:	2781                	sext.w	a5,a5
  20037a:	c3bd                	beqz	a5,2003e0 <RemapBadBlock+0x1c4>
  20037c:	fe846783          	lwu	a5,-24(s0)
  200380:	078a                	slli	a5,a5,0x2
  200382:	ff040713          	addi	a4,s0,-16
  200386:	97ba                	add	a5,a5,a4
  200388:	ef07a703          	lw	a4,-272(a5)
  20038c:	002107b7          	lui	a5,0x210
  200390:	f607b683          	ld	a3,-160(a5) # 20ff60 <phyBlockMapPtr>
  200394:	87ba                	mv	a5,a4
  200396:	03079713          	slli	a4,a5,0x30
  20039a:	9341                	srli	a4,a4,0x30
  20039c:	fec46783          	lwu	a5,-20(s0)
  2003a0:	fe846583          	lwu	a1,-24(s0)
  2003a4:	6609                	lui	a2,0x2
  2003a6:	0b060613          	addi	a2,a2,176 # 20b0 <start-0x1fdf50>
  2003aa:	02c58633          	mul	a2,a1,a2
  2003ae:	97b2                	add	a5,a5,a2
  2003b0:	078a                	slli	a5,a5,0x2
  2003b2:	97b6                	add	a5,a5,a3
  2003b4:	00e79023          	sh	a4,0(a5)
  2003b8:	fe846783          	lwu	a5,-24(s0)
  2003bc:	078a                	slli	a5,a5,0x2
  2003be:	ff040713          	addi	a4,s0,-16
  2003c2:	97ba                	add	a5,a5,a4
  2003c4:	ef07a783          	lw	a5,-272(a5)
  2003c8:	2785                	addiw	a5,a5,1
  2003ca:	0007871b          	sext.w	a4,a5
  2003ce:	fe846783          	lwu	a5,-24(s0)
  2003d2:	078a                	slli	a5,a5,0x2
  2003d4:	ff040693          	addi	a3,s0,-16
  2003d8:	97b6                	add	a5,a5,a3
  2003da:	eee7a823          	sw	a4,-272(a5)
  2003de:	a881                	j	20042e <RemapBadBlock+0x212>
  2003e0:	fe846783          	lwu	a5,-24(s0)
  2003e4:	078a                	slli	a5,a5,0x2
  2003e6:	ff040713          	addi	a4,s0,-16
  2003ea:	97ba                	add	a5,a5,a4
  2003ec:	cf07a783          	lw	a5,-784(a5)
  2003f0:	2785                	addiw	a5,a5,1
  2003f2:	0007871b          	sext.w	a4,a5
  2003f6:	fe846783          	lwu	a5,-24(s0)
  2003fa:	078a                	slli	a5,a5,0x2
  2003fc:	ff040693          	addi	a3,s0,-16
  200400:	97b6                	add	a5,a5,a3
  200402:	cee7a823          	sw	a4,-784(a5)
  200406:	a025                	j	20042e <RemapBadBlock+0x212>
  200408:	fe846783          	lwu	a5,-24(s0)
  20040c:	078a                	slli	a5,a5,0x2
  20040e:	ff040713          	addi	a4,s0,-16
  200412:	97ba                	add	a5,a5,a4
  200414:	cf07a783          	lw	a5,-784(a5)
  200418:	2785                	addiw	a5,a5,1
  20041a:	0007871b          	sext.w	a4,a5
  20041e:	fe846783          	lwu	a5,-24(s0)
  200422:	078a                	slli	a5,a5,0x2
  200424:	ff040693          	addi	a3,s0,-16
  200428:	97b6                	add	a5,a5,a3
  20042a:	cee7a823          	sw	a4,-784(a5)
  20042e:	002107b7          	lui	a5,0x210
  200432:	f607b703          	ld	a4,-160(a5) # 20ff60 <phyBlockMapPtr>
  200436:	fec42683          	lw	a3,-20(s0)
  20043a:	6785                	lui	a5,0x1
  20043c:	0587879b          	addiw	a5,a5,88
  200440:	9fb5                	addw	a5,a5,a3
  200442:	2781                	sext.w	a5,a5
  200444:	1782                	slli	a5,a5,0x20
  200446:	9381                	srli	a5,a5,0x20
  200448:	fe846603          	lwu	a2,-24(s0)
  20044c:	6689                	lui	a3,0x2
  20044e:	0b068693          	addi	a3,a3,176 # 20b0 <start-0x1fdf50>
  200452:	02d606b3          	mul	a3,a2,a3
  200456:	97b6                	add	a5,a5,a3
  200458:	078a                	slli	a5,a5,0x2
  20045a:	97ba                	add	a5,a5,a4
  20045c:	439c                	lw	a5,0(a5)
  20045e:	0107d79b          	srliw	a5,a5,0x10
  200462:	8b85                	andi	a5,a5,1
  200464:	0ff7f793          	andi	a5,a5,255
  200468:	16078a63          	beqz	a5,2005dc <RemapBadBlock+0x3c0>
  20046c:	fe846783          	lwu	a5,-24(s0)
  200470:	078a                	slli	a5,a5,0x2
  200472:	ff040713          	addi	a4,s0,-16
  200476:	97ba                	add	a5,a5,a4
  200478:	df07a783          	lw	a5,-528(a5) # df0 <start-0x1ff210>
  20047c:	873e                	mv	a4,a5
  20047e:	6789                	lui	a5,0x2
  200480:	0af78793          	addi	a5,a5,175 # 20af <start-0x1fdf51>
  200484:	12e7e963          	bltu	a5,a4,2005b6 <RemapBadBlock+0x39a>
  200488:	4785                	li	a5,1
  20048a:	fef42223          	sw	a5,-28(s0)
  20048e:	a0a9                	j	2004d8 <RemapBadBlock+0x2bc>
  200490:	fe846783          	lwu	a5,-24(s0)
  200494:	078a                	slli	a5,a5,0x2
  200496:	ff040713          	addi	a4,s0,-16
  20049a:	97ba                	add	a5,a5,a4
  20049c:	df07a783          	lw	a5,-528(a5)
  2004a0:	2785                	addiw	a5,a5,1
  2004a2:	0007871b          	sext.w	a4,a5
  2004a6:	fe846783          	lwu	a5,-24(s0)
  2004aa:	078a                	slli	a5,a5,0x2
  2004ac:	ff040693          	addi	a3,s0,-16
  2004b0:	97b6                	add	a5,a5,a3
  2004b2:	dee7a823          	sw	a4,-528(a5)
  2004b6:	fe846783          	lwu	a5,-24(s0)
  2004ba:	078a                	slli	a5,a5,0x2
  2004bc:	ff040713          	addi	a4,s0,-16
  2004c0:	97ba                	add	a5,a5,a4
  2004c2:	df07a783          	lw	a5,-528(a5)
  2004c6:	873e                	mv	a4,a5
  2004c8:	6789                	lui	a5,0x2
  2004ca:	0af78793          	addi	a5,a5,175 # 20af <start-0x1fdf51>
  2004ce:	00e7f563          	bgeu	a5,a4,2004d8 <RemapBadBlock+0x2bc>
  2004d2:	fe042223          	sw	zero,-28(s0)
  2004d6:	a081                	j	200516 <RemapBadBlock+0x2fa>
  2004d8:	002107b7          	lui	a5,0x210
  2004dc:	f607b703          	ld	a4,-160(a5) # 20ff60 <phyBlockMapPtr>
  2004e0:	fe846783          	lwu	a5,-24(s0)
  2004e4:	078a                	slli	a5,a5,0x2
  2004e6:	ff040693          	addi	a3,s0,-16
  2004ea:	97b6                	add	a5,a5,a3
  2004ec:	df07a783          	lw	a5,-528(a5)
  2004f0:	1782                	slli	a5,a5,0x20
  2004f2:	9381                	srli	a5,a5,0x20
  2004f4:	fe846603          	lwu	a2,-24(s0)
  2004f8:	6689                	lui	a3,0x2
  2004fa:	0b068693          	addi	a3,a3,176 # 20b0 <start-0x1fdf50>
  2004fe:	02d606b3          	mul	a3,a2,a3
  200502:	97b6                	add	a5,a5,a3
  200504:	078a                	slli	a5,a5,0x2
  200506:	97ba                	add	a5,a5,a4
  200508:	439c                	lw	a5,0(a5)
  20050a:	0107d79b          	srliw	a5,a5,0x10
  20050e:	8b85                	andi	a5,a5,1
  200510:	0ff7f793          	andi	a5,a5,255
  200514:	ffb5                	bnez	a5,200490 <RemapBadBlock+0x274>
  200516:	fe442783          	lw	a5,-28(s0)
  20051a:	2781                	sext.w	a5,a5
  20051c:	cbad                	beqz	a5,20058e <RemapBadBlock+0x372>
  20051e:	fe846783          	lwu	a5,-24(s0)
  200522:	078a                	slli	a5,a5,0x2
  200524:	ff040713          	addi	a4,s0,-16
  200528:	97ba                	add	a5,a5,a4
  20052a:	df07a603          	lw	a2,-528(a5)
  20052e:	002107b7          	lui	a5,0x210
  200532:	f607b683          	ld	a3,-160(a5) # 20ff60 <phyBlockMapPtr>
  200536:	fec42703          	lw	a4,-20(s0)
  20053a:	6785                	lui	a5,0x1
  20053c:	0587879b          	addiw	a5,a5,88
  200540:	9fb9                	addw	a5,a5,a4
  200542:	2781                	sext.w	a5,a5
  200544:	8732                	mv	a4,a2
  200546:	1742                	slli	a4,a4,0x30
  200548:	9341                	srli	a4,a4,0x30
  20054a:	1782                	slli	a5,a5,0x20
  20054c:	9381                	srli	a5,a5,0x20
  20054e:	fe846583          	lwu	a1,-24(s0)
  200552:	6609                	lui	a2,0x2
  200554:	0b060613          	addi	a2,a2,176 # 20b0 <start-0x1fdf50>
  200558:	02c58633          	mul	a2,a1,a2
  20055c:	97b2                	add	a5,a5,a2
  20055e:	078a                	slli	a5,a5,0x2
  200560:	97b6                	add	a5,a5,a3
  200562:	00e79023          	sh	a4,0(a5) # 1000 <start-0x1ff000>
  200566:	fe846783          	lwu	a5,-24(s0)
  20056a:	078a                	slli	a5,a5,0x2
  20056c:	ff040713          	addi	a4,s0,-16
  200570:	97ba                	add	a5,a5,a4
  200572:	df07a783          	lw	a5,-528(a5)
  200576:	2785                	addiw	a5,a5,1
  200578:	0007871b          	sext.w	a4,a5
  20057c:	fe846783          	lwu	a5,-24(s0)
  200580:	078a                	slli	a5,a5,0x2
  200582:	ff040693          	addi	a3,s0,-16
  200586:	97b6                	add	a5,a5,a3
  200588:	dee7a823          	sw	a4,-528(a5)
  20058c:	a881                	j	2005dc <RemapBadBlock+0x3c0>
  20058e:	fe846783          	lwu	a5,-24(s0)
  200592:	078a                	slli	a5,a5,0x2
  200594:	ff040713          	addi	a4,s0,-16
  200598:	97ba                	add	a5,a5,a4
  20059a:	cf07a783          	lw	a5,-784(a5)
  20059e:	2785                	addiw	a5,a5,1
  2005a0:	0007871b          	sext.w	a4,a5
  2005a4:	fe846783          	lwu	a5,-24(s0)
  2005a8:	078a                	slli	a5,a5,0x2
  2005aa:	ff040693          	addi	a3,s0,-16
  2005ae:	97b6                	add	a5,a5,a3
  2005b0:	cee7a823          	sw	a4,-784(a5)
  2005b4:	a025                	j	2005dc <RemapBadBlock+0x3c0>
  2005b6:	fe846783          	lwu	a5,-24(s0)
  2005ba:	078a                	slli	a5,a5,0x2
  2005bc:	ff040713          	addi	a4,s0,-16
  2005c0:	97ba                	add	a5,a5,a4
  2005c2:	cf07a783          	lw	a5,-784(a5)
  2005c6:	2785                	addiw	a5,a5,1
  2005c8:	0007871b          	sext.w	a4,a5
  2005cc:	fe846783          	lwu	a5,-24(s0)
  2005d0:	078a                	slli	a5,a5,0x2
  2005d2:	ff040693          	addi	a3,s0,-16
  2005d6:	97b6                	add	a5,a5,a3
  2005d8:	cee7a823          	sw	a4,-784(a5)
  2005dc:	fe842783          	lw	a5,-24(s0)
  2005e0:	2785                	addiw	a5,a5,1
  2005e2:	fef42423          	sw	a5,-24(s0)
  2005e6:	fe842783          	lw	a5,-24(s0)
  2005ea:	0007871b          	sext.w	a4,a5
  2005ee:	03f00793          	li	a5,63
  2005f2:	cae7f4e3          	bgeu	a5,a4,20029a <RemapBadBlock+0x7e>
  2005f6:	fec42783          	lw	a5,-20(s0)
  2005fa:	2785                	addiw	a5,a5,1
  2005fc:	fef42623          	sw	a5,-20(s0)
  200600:	fec42783          	lw	a5,-20(s0)
  200604:	0007871b          	sext.w	a4,a5
  200608:	6785                	lui	a5,0x1
  20060a:	c8f765e3          	bltu	a4,a5,200294 <RemapBadBlock+0x78>
  20060e:	0020f7b7          	lui	a5,0x20f
  200612:	d5078513          	addi	a0,a5,-688 # 20ed50 <nvme_main+0x29a>
  200616:	7a3030ef          	jal	ra,2045b8 <cpl_print>
  20061a:	fe042023          	sw	zero,-32(s0)
  20061e:	fe042423          	sw	zero,-24(s0)
  200622:	a82d                	j	20065c <RemapBadBlock+0x440>
  200624:	fe846783          	lwu	a5,-24(s0)
  200628:	078a                	slli	a5,a5,0x2
  20062a:	ff040713          	addi	a4,s0,-16
  20062e:	97ba                	add	a5,a5,a4
  200630:	cf07a703          	lw	a4,-784(a5)
  200634:	fe042783          	lw	a5,-32(s0)
  200638:	2781                	sext.w	a5,a5
  20063a:	00e7fc63          	bgeu	a5,a4,200652 <RemapBadBlock+0x436>
  20063e:	fe846783          	lwu	a5,-24(s0)
  200642:	078a                	slli	a5,a5,0x2
  200644:	ff040713          	addi	a4,s0,-16
  200648:	97ba                	add	a5,a5,a4
  20064a:	cf07a783          	lw	a5,-784(a5)
  20064e:	fef42023          	sw	a5,-32(s0)
  200652:	fe842783          	lw	a5,-24(s0)
  200656:	2785                	addiw	a5,a5,1
  200658:	fef42423          	sw	a5,-24(s0)
  20065c:	fe842783          	lw	a5,-24(s0)
  200660:	0007871b          	sext.w	a4,a5
  200664:	03f00793          	li	a5,63
  200668:	fae7fee3          	bgeu	a5,a4,200624 <RemapBadBlock+0x408>
  20066c:	fe042783          	lw	a5,-32(s0)
  200670:	0077979b          	slliw	a5,a5,0x7
  200674:	0007871b          	sext.w	a4,a5
  200678:	002107b7          	lui	a5,0x210
  20067c:	f2e7aa23          	sw	a4,-204(a5) # 20ff34 <mbPerbadBlockSpace>
  200680:	0001                	nop
  200682:	31813083          	ld	ra,792(sp)
  200686:	31013403          	ld	s0,784(sp)
  20068a:	32010113          	addi	sp,sp,800
  20068e:	8082                	ret

0000000000200690 <InitDieMap>:
  200690:	1101                	addi	sp,sp,-32
  200692:	ec22                	sd	s0,24(sp)
  200694:	1000                	addi	s0,sp,32
  200696:	fe042623          	sw	zero,-20(s0)
  20069a:	a8b9                	j	2006f8 <InitDieMap+0x68>
  20069c:	002107b7          	lui	a5,0x210
  2006a0:	f407b683          	ld	a3,-192(a5) # 20ff40 <virtualDieMapPtr>
  2006a4:	fec46703          	lwu	a4,-20(s0)
  2006a8:	87ba                	mv	a5,a4
  2006aa:	0786                	slli	a5,a5,0x1
  2006ac:	97ba                	add	a5,a5,a4
  2006ae:	078a                	slli	a5,a5,0x2
  2006b0:	97b6                	add	a5,a5,a3
  2006b2:	577d                	li	a4,-1
  2006b4:	00e79123          	sh	a4,2(a5)
  2006b8:	002107b7          	lui	a5,0x210
  2006bc:	f407b683          	ld	a3,-192(a5) # 20ff40 <virtualDieMapPtr>
  2006c0:	fec46703          	lwu	a4,-20(s0)
  2006c4:	87ba                	mv	a5,a4
  2006c6:	0786                	slli	a5,a5,0x1
  2006c8:	97ba                	add	a5,a5,a4
  2006ca:	078a                	slli	a5,a5,0x2
  2006cc:	97b6                	add	a5,a5,a3
  2006ce:	577d                	li	a4,-1
  2006d0:	00e79223          	sh	a4,4(a5)
  2006d4:	002107b7          	lui	a5,0x210
  2006d8:	f407b683          	ld	a3,-192(a5) # 20ff40 <virtualDieMapPtr>
  2006dc:	fec46703          	lwu	a4,-20(s0)
  2006e0:	87ba                	mv	a5,a4
  2006e2:	0786                	slli	a5,a5,0x1
  2006e4:	97ba                	add	a5,a5,a4
  2006e6:	078a                	slli	a5,a5,0x2
  2006e8:	97b6                	add	a5,a5,a3
  2006ea:	00079323          	sh	zero,6(a5)
  2006ee:	fec42783          	lw	a5,-20(s0)
  2006f2:	2785                	addiw	a5,a5,1
  2006f4:	fef42623          	sw	a5,-20(s0)
  2006f8:	fec42783          	lw	a5,-20(s0)
  2006fc:	0007871b          	sext.w	a4,a5
  200700:	03f00793          	li	a5,63
  200704:	f8e7fce3          	bgeu	a5,a4,20069c <InitDieMap+0xc>
  200708:	0001                	nop
  20070a:	0001                	nop
  20070c:	6462                	ld	s0,24(sp)
  20070e:	6105                	addi	sp,sp,32
  200710:	8082                	ret

0000000000200712 <InitBlockMap>:
  200712:	1101                	addi	sp,sp,-32
  200714:	ec06                	sd	ra,24(sp)
  200716:	e822                	sd	s0,16(sp)
  200718:	1000                	addi	s0,sp,32
  20071a:	fe042623          	sw	zero,-20(s0)
  20071e:	a481                	j	20095e <InitBlockMap+0x24c>
  200720:	fe042423          	sw	zero,-24(s0)
  200724:	a40d                	j	200946 <InitBlockMap+0x234>
  200726:	fe842783          	lw	a5,-24(s0)
  20072a:	00c7d79b          	srliw	a5,a5,0xc
  20072e:	0007871b          	sext.w	a4,a5
  200732:	6785                	lui	a5,0x1
  200734:	0587879b          	addiw	a5,a5,88
  200738:	02f707bb          	mulw	a5,a4,a5
  20073c:	0007871b          	sext.w	a4,a5
  200740:	fe842683          	lw	a3,-24(s0)
  200744:	6785                	lui	a5,0x1
  200746:	17fd                	addi	a5,a5,-1
  200748:	8ff5                	and	a5,a5,a3
  20074a:	2781                	sext.w	a5,a5
  20074c:	9fb9                	addw	a5,a5,a4
  20074e:	fef42223          	sw	a5,-28(s0)
  200752:	002107b7          	lui	a5,0x210
  200756:	f607b703          	ld	a4,-160(a5) # 20ff60 <phyBlockMapPtr>
  20075a:	fe446783          	lwu	a5,-28(s0)
  20075e:	fec46603          	lwu	a2,-20(s0)
  200762:	6689                	lui	a3,0x2
  200764:	0b068693          	addi	a3,a3,176 # 20b0 <start-0x1fdf50>
  200768:	02d606b3          	mul	a3,a2,a3
  20076c:	97b6                	add	a5,a5,a3
  20076e:	078a                	slli	a5,a5,0x2
  200770:	97ba                	add	a5,a5,a4
  200772:	0007d783          	lhu	a5,0(a5)
  200776:	fef42023          	sw	a5,-32(s0)
  20077a:	002107b7          	lui	a5,0x210
  20077e:	f607b703          	ld	a4,-160(a5) # 20ff60 <phyBlockMapPtr>
  200782:	002107b7          	lui	a5,0x210
  200786:	f487b603          	ld	a2,-184(a5) # 20ff48 <virtualBlockMapPtr>
  20078a:	fe046783          	lwu	a5,-32(s0)
  20078e:	fec46583          	lwu	a1,-20(s0)
  200792:	6689                	lui	a3,0x2
  200794:	0b068693          	addi	a3,a3,176 # 20b0 <start-0x1fdf50>
  200798:	02d586b3          	mul	a3,a1,a3
  20079c:	97b6                	add	a5,a5,a3
  20079e:	078a                	slli	a5,a5,0x2
  2007a0:	97ba                	add	a5,a5,a4
  2007a2:	439c                	lw	a5,0(a5)
  2007a4:	0107d79b          	srliw	a5,a5,0x10
  2007a8:	8b85                	andi	a5,a5,1
  2007aa:	0ff7f593          	andi	a1,a5,255
  2007ae:	fe846783          	lwu	a5,-24(s0)
  2007b2:	fec46683          	lwu	a3,-20(s0)
  2007b6:	873e                	mv	a4,a5
  2007b8:	0706                	slli	a4,a4,0x1
  2007ba:	973e                	add	a4,a4,a5
  2007bc:	00271793          	slli	a5,a4,0x2
  2007c0:	873e                	mv	a4,a5
  2007c2:	87b6                	mv	a5,a3
  2007c4:	0786                	slli	a5,a5,0x1
  2007c6:	97b6                	add	a5,a5,a3
  2007c8:	07be                	slli	a5,a5,0xf
  2007ca:	97ba                	add	a5,a5,a4
  2007cc:	97b2                	add	a5,a5,a2
  2007ce:	872e                	mv	a4,a1
  2007d0:	00177613          	andi	a2,a4,1
  2007d4:	4398                	lw	a4,0(a5)
  2007d6:	9b79                	andi	a4,a4,-2
  2007d8:	86ba                	mv	a3,a4
  2007da:	8732                	mv	a4,a2
  2007dc:	8f55                	or	a4,a4,a3
  2007de:	c398                	sw	a4,0(a5)
  2007e0:	002107b7          	lui	a5,0x210
  2007e4:	f487b603          	ld	a2,-184(a5) # 20ff48 <virtualBlockMapPtr>
  2007e8:	fe846783          	lwu	a5,-24(s0)
  2007ec:	fec46683          	lwu	a3,-20(s0)
  2007f0:	873e                	mv	a4,a5
  2007f2:	0706                	slli	a4,a4,0x1
  2007f4:	973e                	add	a4,a4,a5
  2007f6:	00271793          	slli	a5,a4,0x2
  2007fa:	873e                	mv	a4,a5
  2007fc:	87b6                	mv	a5,a3
  2007fe:	0786                	slli	a5,a5,0x1
  200800:	97b6                	add	a5,a5,a3
  200802:	07be                	slli	a5,a5,0xf
  200804:	97ba                	add	a5,a5,a4
  200806:	97b2                	add	a5,a5,a2
  200808:	4398                	lw	a4,0(a5)
  20080a:	00276713          	ori	a4,a4,2
  20080e:	c398                	sw	a4,0(a5)
  200810:	002107b7          	lui	a5,0x210
  200814:	f487b603          	ld	a2,-184(a5) # 20ff48 <virtualBlockMapPtr>
  200818:	fe846783          	lwu	a5,-24(s0)
  20081c:	fec46683          	lwu	a3,-20(s0)
  200820:	873e                	mv	a4,a5
  200822:	0706                	slli	a4,a4,0x1
  200824:	973e                	add	a4,a4,a5
  200826:	00271793          	slli	a5,a4,0x2
  20082a:	873e                	mv	a4,a5
  20082c:	87b6                	mv	a5,a3
  20082e:	0786                	slli	a5,a5,0x1
  200830:	97b6                	add	a5,a5,a3
  200832:	07be                	slli	a5,a5,0xf
  200834:	97ba                	add	a5,a5,a4
  200836:	97b2                	add	a5,a5,a2
  200838:	4394                	lw	a3,0(a5)
  20083a:	fffc0737          	lui	a4,0xfffc0
  20083e:	070d                	addi	a4,a4,3
  200840:	8f75                	and	a4,a4,a3
  200842:	c398                	sw	a4,0(a5)
  200844:	002107b7          	lui	a5,0x210
  200848:	f487b603          	ld	a2,-184(a5) # 20ff48 <virtualBlockMapPtr>
  20084c:	fe846783          	lwu	a5,-24(s0)
  200850:	fec46683          	lwu	a3,-20(s0)
  200854:	873e                	mv	a4,a5
  200856:	0706                	slli	a4,a4,0x1
  200858:	973e                	add	a4,a4,a5
  20085a:	00271793          	slli	a5,a4,0x2
  20085e:	873e                	mv	a4,a5
  200860:	87b6                	mv	a5,a3
  200862:	0786                	slli	a5,a5,0x1
  200864:	97b6                	add	a5,a5,a3
  200866:	07be                	slli	a5,a5,0xf
  200868:	97ba                	add	a5,a5,a4
  20086a:	97b2                	add	a5,a5,a2
  20086c:	00079223          	sh	zero,4(a5)
  200870:	002107b7          	lui	a5,0x210
  200874:	f487b603          	ld	a2,-184(a5) # 20ff48 <virtualBlockMapPtr>
  200878:	fe846783          	lwu	a5,-24(s0)
  20087c:	fec46683          	lwu	a3,-20(s0)
  200880:	873e                	mv	a4,a5
  200882:	0706                	slli	a4,a4,0x1
  200884:	973e                	add	a4,a4,a5
  200886:	00271793          	slli	a5,a4,0x2
  20088a:	873e                	mv	a4,a5
  20088c:	87b6                	mv	a5,a3
  20088e:	0786                	slli	a5,a5,0x1
  200890:	97b6                	add	a5,a5,a3
  200892:	07be                	slli	a5,a5,0xf
  200894:	97ba                	add	a5,a5,a4
  200896:	97b2                	add	a5,a5,a2
  200898:	00079323          	sh	zero,6(a5)
  20089c:	002107b7          	lui	a5,0x210
  2008a0:	f487b603          	ld	a2,-184(a5) # 20ff48 <virtualBlockMapPtr>
  2008a4:	fe846783          	lwu	a5,-24(s0)
  2008a8:	fec46683          	lwu	a3,-20(s0)
  2008ac:	873e                	mv	a4,a5
  2008ae:	0706                	slli	a4,a4,0x1
  2008b0:	973e                	add	a4,a4,a5
  2008b2:	00271793          	slli	a5,a4,0x2
  2008b6:	873e                	mv	a4,a5
  2008b8:	87b6                	mv	a5,a3
  2008ba:	0786                	slli	a5,a5,0x1
  2008bc:	97b6                	add	a5,a5,a3
  2008be:	07be                	slli	a5,a5,0xf
  2008c0:	97ba                	add	a5,a5,a4
  2008c2:	97b2                	add	a5,a5,a2
  2008c4:	439c                	lw	a5,0(a5)
  2008c6:	8b85                	andi	a5,a5,1
  2008c8:	0ff7f793          	andi	a5,a5,255
  2008cc:	c3a5                	beqz	a5,20092c <InitBlockMap+0x21a>
  2008ce:	002107b7          	lui	a5,0x210
  2008d2:	f487b603          	ld	a2,-184(a5) # 20ff48 <virtualBlockMapPtr>
  2008d6:	fe846783          	lwu	a5,-24(s0)
  2008da:	fec46683          	lwu	a3,-20(s0)
  2008de:	873e                	mv	a4,a5
  2008e0:	0706                	slli	a4,a4,0x1
  2008e2:	973e                	add	a4,a4,a5
  2008e4:	00271793          	slli	a5,a4,0x2
  2008e8:	873e                	mv	a4,a5
  2008ea:	87b6                	mv	a5,a3
  2008ec:	0786                	slli	a5,a5,0x1
  2008ee:	97b6                	add	a5,a5,a3
  2008f0:	07be                	slli	a5,a5,0xf
  2008f2:	97ba                	add	a5,a5,a4
  2008f4:	97b2                	add	a5,a5,a2
  2008f6:	577d                	li	a4,-1
  2008f8:	00e79423          	sh	a4,8(a5)
  2008fc:	002107b7          	lui	a5,0x210
  200900:	f487b603          	ld	a2,-184(a5) # 20ff48 <virtualBlockMapPtr>
  200904:	fe846783          	lwu	a5,-24(s0)
  200908:	fec46683          	lwu	a3,-20(s0)
  20090c:	873e                	mv	a4,a5
  20090e:	0706                	slli	a4,a4,0x1
  200910:	973e                	add	a4,a4,a5
  200912:	00271793          	slli	a5,a4,0x2
  200916:	873e                	mv	a4,a5
  200918:	87b6                	mv	a5,a3
  20091a:	0786                	slli	a5,a5,0x1
  20091c:	97b6                	add	a5,a5,a3
  20091e:	07be                	slli	a5,a5,0xf
  200920:	97ba                	add	a5,a5,a4
  200922:	97b2                	add	a5,a5,a2
  200924:	577d                	li	a4,-1
  200926:	00e79523          	sh	a4,10(a5)
  20092a:	a809                	j	20093c <InitBlockMap+0x22a>
  20092c:	fe842703          	lw	a4,-24(s0)
  200930:	fec42783          	lw	a5,-20(s0)
  200934:	85ba                	mv	a1,a4
  200936:	853e                	mv	a0,a5
  200938:	7d5010ef          	jal	ra,20290c <PutToFbList>
  20093c:	fe842783          	lw	a5,-24(s0)
  200940:	2785                	addiw	a5,a5,1
  200942:	fef42423          	sw	a5,-24(s0)
  200946:	fe842783          	lw	a5,-24(s0)
  20094a:	0007871b          	sext.w	a4,a5
  20094e:	6789                	lui	a5,0x2
  200950:	dcf76be3          	bltu	a4,a5,200726 <InitBlockMap+0x14>
  200954:	fec42783          	lw	a5,-20(s0)
  200958:	2785                	addiw	a5,a5,1
  20095a:	fef42623          	sw	a5,-20(s0)
  20095e:	fec42783          	lw	a5,-20(s0)
  200962:	0007871b          	sext.w	a4,a5
  200966:	03f00793          	li	a5,63
  20096a:	dae7fbe3          	bgeu	a5,a4,200720 <InitBlockMap+0xe>
  20096e:	0001                	nop
  200970:	0001                	nop
  200972:	60e2                	ld	ra,24(sp)
  200974:	6442                	ld	s0,16(sp)
  200976:	6105                	addi	sp,sp,32
  200978:	8082                	ret

000000000020097a <InitCurrentBlockOfDieMap>:
  20097a:	1101                	addi	sp,sp,-32
  20097c:	ec06                	sd	ra,24(sp)
  20097e:	e822                	sd	s0,16(sp)
  200980:	1000                	addi	s0,sp,32
  200982:	fe042623          	sw	zero,-20(s0)
  200986:	a88d                	j	2009f8 <InitCurrentBlockOfDieMap+0x7e>
  200988:	fec42783          	lw	a5,-20(s0)
  20098c:	4581                	li	a1,0
  20098e:	853e                	mv	a0,a5
  200990:	17e020ef          	jal	ra,202b0e <GetFromFbList>
  200994:	87aa                	mv	a5,a0
  200996:	0007871b          	sext.w	a4,a5
  20099a:	002107b7          	lui	a5,0x210
  20099e:	f407b603          	ld	a2,-192(a5) # 20ff40 <virtualDieMapPtr>
  2009a2:	87ba                	mv	a5,a4
  2009a4:	03079693          	slli	a3,a5,0x30
  2009a8:	92c1                	srli	a3,a3,0x30
  2009aa:	fec46703          	lwu	a4,-20(s0)
  2009ae:	87ba                	mv	a5,a4
  2009b0:	0786                	slli	a5,a5,0x1
  2009b2:	97ba                	add	a5,a5,a4
  2009b4:	078a                	slli	a5,a5,0x2
  2009b6:	97b2                	add	a5,a5,a2
  2009b8:	00d79023          	sh	a3,0(a5)
  2009bc:	002107b7          	lui	a5,0x210
  2009c0:	f407b683          	ld	a3,-192(a5) # 20ff40 <virtualDieMapPtr>
  2009c4:	fec46703          	lwu	a4,-20(s0)
  2009c8:	87ba                	mv	a5,a4
  2009ca:	0786                	slli	a5,a5,0x1
  2009cc:	97ba                	add	a5,a5,a4
  2009ce:	078a                	slli	a5,a5,0x2
  2009d0:	97b6                	add	a5,a5,a3
  2009d2:	0007d783          	lhu	a5,0(a5)
  2009d6:	0007871b          	sext.w	a4,a5
  2009da:	67c1                	lui	a5,0x10
  2009dc:	17fd                	addi	a5,a5,-1
  2009de:	00f71863          	bne	a4,a5,2009ee <InitCurrentBlockOfDieMap+0x74>
  2009e2:	0020f7b7          	lui	a5,0x20f
  2009e6:	d7078513          	addi	a0,a5,-656 # 20ed70 <nvme_main+0x2ba>
  2009ea:	3cf030ef          	jal	ra,2045b8 <cpl_print>
  2009ee:	fec42783          	lw	a5,-20(s0)
  2009f2:	2785                	addiw	a5,a5,1
  2009f4:	fef42623          	sw	a5,-20(s0)
  2009f8:	fec42783          	lw	a5,-20(s0)
  2009fc:	0007871b          	sext.w	a4,a5
  200a00:	03f00793          	li	a5,63
  200a04:	f8e7f2e3          	bgeu	a5,a4,200988 <InitCurrentBlockOfDieMap+0xe>
  200a08:	0001                	nop
  200a0a:	0001                	nop
  200a0c:	60e2                	ld	ra,24(sp)
  200a0e:	6442                	ld	s0,16(sp)
  200a10:	6105                	addi	sp,sp,32
  200a12:	8082                	ret

0000000000200a14 <ReadBadBlockTable>:
  200a14:	7139                	addi	sp,sp,-64
  200a16:	fc06                	sd	ra,56(sp)
  200a18:	f822                	sd	s0,48(sp)
  200a1a:	0080                	addi	s0,sp,64
  200a1c:	fca43423          	sd	a0,-56(s0)
  200a20:	87ae                	mv	a5,a1
  200a22:	fcf42223          	sw	a5,-60(s0)
  200a26:	fe042223          	sw	zero,-28(s0)
  200a2a:	6789                	lui	a5,0x2
  200a2c:	0b078793          	addi	a5,a5,176 # 20b0 <start-0x1fdf50>
  200a30:	fef42023          	sw	a5,-32(s0)
  200a34:	4785                	li	a5,1
  200a36:	fef42623          	sw	a5,-20(s0)
  200a3a:	ac9d                	j	200cb0 <ReadBadBlockTable+0x29c>
  200a3c:	fe042423          	sw	zero,-24(s0)
  200a40:	a481                	j	200c80 <ReadBadBlockTable+0x26c>
  200a42:	11f020ef          	jal	ra,203360 <GetFromFreeReqQ>
  200a46:	87aa                	mv	a5,a0
  200a48:	fcf42e23          	sw	a5,-36(s0)
  200a4c:	002107b7          	lui	a5,0x210
  200a50:	1807b703          	ld	a4,384(a5) # 210180 <reqPoolPtr>
  200a54:	fdc46683          	lwu	a3,-36(s0)
  200a58:	03400793          	li	a5,52
  200a5c:	02f687b3          	mul	a5,a3,a5
  200a60:	97ba                	add	a5,a5,a4
  200a62:	4398                	lw	a4,0(a5)
  200a64:	9b41                	andi	a4,a4,-16
  200a66:	00176713          	ori	a4,a4,1
  200a6a:	c398                	sw	a4,0(a5)
  200a6c:	002107b7          	lui	a5,0x210
  200a70:	1807b703          	ld	a4,384(a5) # 210180 <reqPoolPtr>
  200a74:	fdc46683          	lwu	a3,-36(s0)
  200a78:	03400793          	li	a5,52
  200a7c:	02f687b3          	mul	a5,a3,a5
  200a80:	97ba                	add	a5,a5,a4
  200a82:	4721                	li	a4,8
  200a84:	00e780a3          	sb	a4,1(a5)
  200a88:	002107b7          	lui	a5,0x210
  200a8c:	1807b703          	ld	a4,384(a5) # 210180 <reqPoolPtr>
  200a90:	fdc46683          	lwu	a3,-36(s0)
  200a94:	03400793          	li	a5,52
  200a98:	02f687b3          	mul	a5,a3,a5
  200a9c:	97ba                	add	a5,a5,a4
  200a9e:	4b98                	lw	a4,16(a5)
  200aa0:	9b71                	andi	a4,a4,-4
  200aa2:	00276713          	ori	a4,a4,2
  200aa6:	cb98                	sw	a4,16(a5)
  200aa8:	002107b7          	lui	a5,0x210
  200aac:	1807b703          	ld	a4,384(a5) # 210180 <reqPoolPtr>
  200ab0:	fdc46683          	lwu	a3,-36(s0)
  200ab4:	03400793          	li	a5,52
  200ab8:	02f687b3          	mul	a5,a3,a5
  200abc:	97ba                	add	a5,a5,a4
  200abe:	4b98                	lw	a4,16(a5)
  200ac0:	9b4d                	andi	a4,a4,-13
  200ac2:	00476713          	ori	a4,a4,4
  200ac6:	cb98                	sw	a4,16(a5)
  200ac8:	002107b7          	lui	a5,0x210
  200acc:	1807b703          	ld	a4,384(a5) # 210180 <reqPoolPtr>
  200ad0:	fdc46683          	lwu	a3,-36(s0)
  200ad4:	03400793          	li	a5,52
  200ad8:	02f687b3          	mul	a5,a3,a5
  200adc:	97ba                	add	a5,a5,a4
  200ade:	4b98                	lw	a4,16(a5)
  200ae0:	01076713          	ori	a4,a4,16
  200ae4:	cb98                	sw	a4,16(a5)
  200ae6:	002107b7          	lui	a5,0x210
  200aea:	1807b703          	ld	a4,384(a5) # 210180 <reqPoolPtr>
  200aee:	fdc46683          	lwu	a3,-36(s0)
  200af2:	03400793          	li	a5,52
  200af6:	02f687b3          	mul	a5,a3,a5
  200afa:	97ba                	add	a5,a5,a4
  200afc:	4b98                	lw	a4,16(a5)
  200afe:	fdf77713          	andi	a4,a4,-33
  200b02:	cb98                	sw	a4,16(a5)
  200b04:	002107b7          	lui	a5,0x210
  200b08:	1807b703          	ld	a4,384(a5) # 210180 <reqPoolPtr>
  200b0c:	fdc46683          	lwu	a3,-36(s0)
  200b10:	03400793          	li	a5,52
  200b14:	02f687b3          	mul	a5,a3,a5
  200b18:	97ba                	add	a5,a5,a4
  200b1a:	4b98                	lw	a4,16(a5)
  200b1c:	fbf77713          	andi	a4,a4,-65
  200b20:	cb98                	sw	a4,16(a5)
  200b22:	002107b7          	lui	a5,0x210
  200b26:	1807b703          	ld	a4,384(a5) # 210180 <reqPoolPtr>
  200b2a:	fdc46683          	lwu	a3,-36(s0)
  200b2e:	03400793          	li	a5,52
  200b32:	02f687b3          	mul	a5,a3,a5
  200b36:	97ba                	add	a5,a5,a4
  200b38:	4b98                	lw	a4,16(a5)
  200b3a:	08076713          	ori	a4,a4,128
  200b3e:	cb98                	sw	a4,16(a5)
  200b40:	fe846783          	lwu	a5,-24(s0)
  200b44:	078a                	slli	a5,a5,0x2
  200b46:	fc843703          	ld	a4,-56(s0)
  200b4a:	97ba                	add	a5,a5,a4
  200b4c:	4398                	lw	a4,0(a5)
  200b4e:	fe442783          	lw	a5,-28(s0)
  200b52:	fc442683          	lw	a3,-60(s0)
  200b56:	02f687bb          	mulw	a5,a3,a5
  200b5a:	2781                	sext.w	a5,a5
  200b5c:	002106b7          	lui	a3,0x210
  200b60:	1806b683          	ld	a3,384(a3) # 210180 <reqPoolPtr>
  200b64:	9fb9                	addw	a5,a5,a4
  200b66:	0007871b          	sext.w	a4,a5
  200b6a:	fdc46603          	lwu	a2,-36(s0)
  200b6e:	03400793          	li	a5,52
  200b72:	02f607b3          	mul	a5,a2,a5
  200b76:	97b6                	add	a5,a5,a3
  200b78:	cbd8                	sw	a4,20(a5)
  200b7a:	fe842783          	lw	a5,-24(s0)
  200b7e:	8bbd                	andi	a5,a5,15
  200b80:	0ff7f793          	andi	a5,a5,255
  200b84:	00210737          	lui	a4,0x210
  200b88:	18073703          	ld	a4,384(a4) # 210180 <reqPoolPtr>
  200b8c:	8b9d                	andi	a5,a5,7
  200b8e:	0ff7f613          	andi	a2,a5,255
  200b92:	fdc46683          	lwu	a3,-36(s0)
  200b96:	03400793          	li	a5,52
  200b9a:	02f687b3          	mul	a5,a3,a5
  200b9e:	97ba                	add	a5,a5,a4
  200ba0:	8732                	mv	a4,a2
  200ba2:	00f77613          	andi	a2,a4,15
  200ba6:	53d8                	lw	a4,36(a5)
  200ba8:	9b41                	andi	a4,a4,-16
  200baa:	86ba                	mv	a3,a4
  200bac:	8732                	mv	a4,a2
  200bae:	8f55                	or	a4,a4,a3
  200bb0:	d3d8                	sw	a4,36(a5)
  200bb2:	fe842783          	lw	a5,-24(s0)
  200bb6:	0037d79b          	srliw	a5,a5,0x3
  200bba:	0007869b          	sext.w	a3,a5
  200bbe:	002107b7          	lui	a5,0x210
  200bc2:	1807b703          	ld	a4,384(a5) # 210180 <reqPoolPtr>
  200bc6:	87b6                	mv	a5,a3
  200bc8:	8bbd                	andi	a5,a5,15
  200bca:	0ff7f613          	andi	a2,a5,255
  200bce:	fdc46683          	lwu	a3,-36(s0)
  200bd2:	03400793          	li	a5,52
  200bd6:	02f687b3          	mul	a5,a3,a5
  200bda:	97ba                	add	a5,a5,a4
  200bdc:	8732                	mv	a4,a2
  200bde:	8b3d                	andi	a4,a4,15
  200be0:	0047171b          	slliw	a4,a4,0x4
  200be4:	53d4                	lw	a3,36(a5)
  200be6:	f0f6f693          	andi	a3,a3,-241
  200bea:	8f55                	or	a4,a4,a3
  200bec:	d3d8                	sw	a4,36(a5)
  200bee:	002107b7          	lui	a5,0x210
  200bf2:	f587b703          	ld	a4,-168(a5) # 20ff58 <bbtInfoMapPtr>
  200bf6:	002107b7          	lui	a5,0x210
  200bfa:	1807b683          	ld	a3,384(a5) # 210180 <reqPoolPtr>
  200bfe:	fe846783          	lwu	a5,-24(s0)
  200c02:	078a                	slli	a5,a5,0x2
  200c04:	97ba                	add	a5,a5,a4
  200c06:	0007d703          	lhu	a4,0(a5)
  200c0a:	fdc46603          	lwu	a2,-36(s0)
  200c0e:	03400793          	li	a5,52
  200c12:	02f607b3          	mul	a5,a2,a5
  200c16:	97b6                	add	a5,a5,a3
  200c18:	0087171b          	slliw	a4,a4,0x8
  200c1c:	53d0                	lw	a2,36(a5)
  200c1e:	ff0006b7          	lui	a3,0xff000
  200c22:	0ff68693          	addi	a3,a3,255 # ffffffffff0000ff <g_nvmeTask+0xfffffffffedefc97>
  200c26:	8ef1                	and	a3,a3,a2
  200c28:	8f55                	or	a4,a4,a3
  200c2a:	d3d8                	sw	a4,36(a5)
  200c2c:	fec42783          	lw	a5,-20(s0)
  200c30:	2781                	sext.w	a5,a5
  200c32:	cf91                	beqz	a5,200c4e <ReadBadBlockTable+0x23a>
  200c34:	fec42783          	lw	a5,-20(s0)
  200c38:	17c2                	slli	a5,a5,0x30
  200c3a:	93c1                	srli	a5,a5,0x30
  200c3c:	0017979b          	slliw	a5,a5,0x1
  200c40:	17c2                	slli	a5,a5,0x30
  200c42:	93c1                	srli	a5,a5,0x30
  200c44:	37fd                	addiw	a5,a5,-1
  200c46:	03079713          	slli	a4,a5,0x30
  200c4a:	9341                	srli	a4,a4,0x30
  200c4c:	a011                	j	200c50 <ReadBadBlockTable+0x23c>
  200c4e:	4701                	li	a4,0
  200c50:	002107b7          	lui	a5,0x210
  200c54:	1807b683          	ld	a3,384(a5) # 210180 <reqPoolPtr>
  200c58:	fdc46603          	lwu	a2,-36(s0)
  200c5c:	03400793          	li	a5,52
  200c60:	02f607b3          	mul	a5,a2,a5
  200c64:	97b6                	add	a5,a5,a3
  200c66:	02e79423          	sh	a4,40(a5)
  200c6a:	fdc42783          	lw	a5,-36(s0)
  200c6e:	4581                	li	a1,0
  200c70:	853e                	mv	a0,a5
  200c72:	7d40a0ef          	jal	ra,20b446 <SelectLowLevelReqQ>
  200c76:	fe842783          	lw	a5,-24(s0)
  200c7a:	2785                	addiw	a5,a5,1
  200c7c:	fef42423          	sw	a5,-24(s0)
  200c80:	fe842783          	lw	a5,-24(s0)
  200c84:	0007871b          	sext.w	a4,a5
  200c88:	03f00793          	li	a5,63
  200c8c:	dae7fbe3          	bgeu	a5,a4,200a42 <ReadBadBlockTable+0x2e>
  200c90:	fec42783          	lw	a5,-20(s0)
  200c94:	2785                	addiw	a5,a5,1
  200c96:	fef42623          	sw	a5,-20(s0)
  200c9a:	fe442783          	lw	a5,-28(s0)
  200c9e:	2785                	addiw	a5,a5,1
  200ca0:	fef42223          	sw	a5,-28(s0)
  200ca4:	fe042703          	lw	a4,-32(s0)
  200ca8:	77f1                	lui	a5,0xffffc
  200caa:	9fb9                	addw	a5,a5,a4
  200cac:	fef42023          	sw	a5,-32(s0)
  200cb0:	fe042783          	lw	a5,-32(s0)
  200cb4:	2781                	sext.w	a5,a5
  200cb6:	d8f043e3          	bgtz	a5,200a3c <ReadBadBlockTable+0x28>
  200cba:	04d040ef          	jal	ra,205506 <SyncAllLowLevelReqDone>
  200cbe:	0001                	nop
  200cc0:	70e2                	ld	ra,56(sp)
  200cc2:	7442                	ld	s0,48(sp)
  200cc4:	6121                	addi	sp,sp,64
  200cc6:	8082                	ret

0000000000200cc8 <FindBadBlock>:
  200cc8:	7135                	addi	sp,sp,-160
  200cca:	ed06                	sd	ra,152(sp)
  200ccc:	e922                	sd	s0,144(sp)
  200cce:	1100                	addi	s0,sp,160
  200cd0:	f6a43c23          	sd	a0,-136(s0)
  200cd4:	f6b43823          	sd	a1,-144(s0)
  200cd8:	87b2                	mv	a5,a2
  200cda:	f6d43023          	sd	a3,-160(s0)
  200cde:	f6f42623          	sw	a5,-148(s0)
  200ce2:	87ba                	mv	a5,a4
  200ce4:	f6f42423          	sw	a5,-152(s0)
  200ce8:	0020f7b7          	lui	a5,0x20f
  200cec:	da078513          	addi	a0,a5,-608 # 20eda0 <nvme_main+0x2ea>
  200cf0:	0c9030ef          	jal	ra,2045b8 <cpl_print>
  200cf4:	fe042623          	sw	zero,-20(s0)
  200cf8:	ad01                	j	201308 <FindBadBlock+0x640>
  200cfa:	fe042423          	sw	zero,-24(s0)
  200cfe:	ac31                	j	200f1a <FindBadBlock+0x252>
  200d00:	fe846783          	lwu	a5,-24(s0)
  200d04:	f7843703          	ld	a4,-136(s0)
  200d08:	97ba                	add	a5,a5,a4
  200d0a:	0007c783          	lbu	a5,0(a5)
  200d0e:	20079163          	bnez	a5,200f10 <FindBadBlock+0x248>
  200d12:	fe846783          	lwu	a5,-24(s0)
  200d16:	ff040713          	addi	a4,s0,-16
  200d1a:	97ba                	add	a5,a5,a4
  200d1c:	f8078c23          	sb	zero,-104(a5)
  200d20:	640020ef          	jal	ra,203360 <GetFromFreeReqQ>
  200d24:	87aa                	mv	a5,a0
  200d26:	fcf42623          	sw	a5,-52(s0)
  200d2a:	002107b7          	lui	a5,0x210
  200d2e:	1807b703          	ld	a4,384(a5) # 210180 <reqPoolPtr>
  200d32:	fcc46683          	lwu	a3,-52(s0)
  200d36:	03400793          	li	a5,52
  200d3a:	02f687b3          	mul	a5,a3,a5
  200d3e:	97ba                	add	a5,a5,a4
  200d40:	4398                	lw	a4,0(a5)
  200d42:	9b41                	andi	a4,a4,-16
  200d44:	00176713          	ori	a4,a4,1
  200d48:	c398                	sw	a4,0(a5)
  200d4a:	002107b7          	lui	a5,0x210
  200d4e:	1807b703          	ld	a4,384(a5) # 210180 <reqPoolPtr>
  200d52:	fcc46683          	lwu	a3,-52(s0)
  200d56:	03400793          	li	a5,52
  200d5a:	02f687b3          	mul	a5,a3,a5
  200d5e:	97ba                	add	a5,a5,a4
  200d60:	4721                	li	a4,8
  200d62:	00e780a3          	sb	a4,1(a5)
  200d66:	002107b7          	lui	a5,0x210
  200d6a:	1807b703          	ld	a4,384(a5) # 210180 <reqPoolPtr>
  200d6e:	fcc46683          	lwu	a3,-52(s0)
  200d72:	03400793          	li	a5,52
  200d76:	02f687b3          	mul	a5,a3,a5
  200d7a:	97ba                	add	a5,a5,a4
  200d7c:	4b98                	lw	a4,16(a5)
  200d7e:	9b71                	andi	a4,a4,-4
  200d80:	00276713          	ori	a4,a4,2
  200d84:	cb98                	sw	a4,16(a5)
  200d86:	002107b7          	lui	a5,0x210
  200d8a:	1807b703          	ld	a4,384(a5) # 210180 <reqPoolPtr>
  200d8e:	fcc46683          	lwu	a3,-52(s0)
  200d92:	03400793          	li	a5,52
  200d96:	02f687b3          	mul	a5,a3,a5
  200d9a:	97ba                	add	a5,a5,a4
  200d9c:	4b98                	lw	a4,16(a5)
  200d9e:	9b4d                	andi	a4,a4,-13
  200da0:	00476713          	ori	a4,a4,4
  200da4:	cb98                	sw	a4,16(a5)
  200da6:	002107b7          	lui	a5,0x210
  200daa:	1807b703          	ld	a4,384(a5) # 210180 <reqPoolPtr>
  200dae:	fcc46683          	lwu	a3,-52(s0)
  200db2:	03400793          	li	a5,52
  200db6:	02f687b3          	mul	a5,a3,a5
  200dba:	97ba                	add	a5,a5,a4
  200dbc:	4b98                	lw	a4,16(a5)
  200dbe:	9b3d                	andi	a4,a4,-17
  200dc0:	cb98                	sw	a4,16(a5)
  200dc2:	002107b7          	lui	a5,0x210
  200dc6:	1807b703          	ld	a4,384(a5) # 210180 <reqPoolPtr>
  200dca:	fcc46683          	lwu	a3,-52(s0)
  200dce:	03400793          	li	a5,52
  200dd2:	02f687b3          	mul	a5,a3,a5
  200dd6:	97ba                	add	a5,a5,a4
  200dd8:	4b98                	lw	a4,16(a5)
  200dda:	fdf77713          	andi	a4,a4,-33
  200dde:	cb98                	sw	a4,16(a5)
  200de0:	002107b7          	lui	a5,0x210
  200de4:	1807b703          	ld	a4,384(a5) # 210180 <reqPoolPtr>
  200de8:	fcc46683          	lwu	a3,-52(s0)
  200dec:	03400793          	li	a5,52
  200df0:	02f687b3          	mul	a5,a3,a5
  200df4:	97ba                	add	a5,a5,a4
  200df6:	4b98                	lw	a4,16(a5)
  200df8:	fbf77713          	andi	a4,a4,-65
  200dfc:	cb98                	sw	a4,16(a5)
  200dfe:	002107b7          	lui	a5,0x210
  200e02:	1807b703          	ld	a4,384(a5) # 210180 <reqPoolPtr>
  200e06:	fcc46683          	lwu	a3,-52(s0)
  200e0a:	03400793          	li	a5,52
  200e0e:	02f687b3          	mul	a5,a3,a5
  200e12:	97ba                	add	a5,a5,a4
  200e14:	4b98                	lw	a4,16(a5)
  200e16:	08076713          	ori	a4,a4,128
  200e1a:	cb98                	sw	a4,16(a5)
  200e1c:	fe846783          	lwu	a5,-24(s0)
  200e20:	078a                	slli	a5,a5,0x2
  200e22:	f6043703          	ld	a4,-160(s0)
  200e26:	97ba                	add	a5,a5,a4
  200e28:	00210737          	lui	a4,0x210
  200e2c:	18073683          	ld	a3,384(a4) # 210180 <reqPoolPtr>
  200e30:	4398                	lw	a4,0(a5)
  200e32:	fcc46603          	lwu	a2,-52(s0)
  200e36:	03400793          	li	a5,52
  200e3a:	02f607b3          	mul	a5,a2,a5
  200e3e:	97b6                	add	a5,a5,a3
  200e40:	cbd8                	sw	a4,20(a5)
  200e42:	fe842783          	lw	a5,-24(s0)
  200e46:	8bbd                	andi	a5,a5,15
  200e48:	0ff7f793          	andi	a5,a5,255
  200e4c:	00210737          	lui	a4,0x210
  200e50:	18073703          	ld	a4,384(a4) # 210180 <reqPoolPtr>
  200e54:	8b9d                	andi	a5,a5,7
  200e56:	0ff7f613          	andi	a2,a5,255
  200e5a:	fcc46683          	lwu	a3,-52(s0)
  200e5e:	03400793          	li	a5,52
  200e62:	02f687b3          	mul	a5,a3,a5
  200e66:	97ba                	add	a5,a5,a4
  200e68:	8732                	mv	a4,a2
  200e6a:	00f77613          	andi	a2,a4,15
  200e6e:	53d8                	lw	a4,36(a5)
  200e70:	9b41                	andi	a4,a4,-16
  200e72:	86ba                	mv	a3,a4
  200e74:	8732                	mv	a4,a2
  200e76:	8f55                	or	a4,a4,a3
  200e78:	d3d8                	sw	a4,36(a5)
  200e7a:	fe842783          	lw	a5,-24(s0)
  200e7e:	0037d79b          	srliw	a5,a5,0x3
  200e82:	0007869b          	sext.w	a3,a5
  200e86:	002107b7          	lui	a5,0x210
  200e8a:	1807b703          	ld	a4,384(a5) # 210180 <reqPoolPtr>
  200e8e:	87b6                	mv	a5,a3
  200e90:	8bbd                	andi	a5,a5,15
  200e92:	0ff7f613          	andi	a2,a5,255
  200e96:	fcc46683          	lwu	a3,-52(s0)
  200e9a:	03400793          	li	a5,52
  200e9e:	02f687b3          	mul	a5,a3,a5
  200ea2:	97ba                	add	a5,a5,a4
  200ea4:	8732                	mv	a4,a2
  200ea6:	8b3d                	andi	a4,a4,15
  200ea8:	0047171b          	slliw	a4,a4,0x4
  200eac:	53d4                	lw	a3,36(a5)
  200eae:	f0f6f693          	andi	a3,a3,-241
  200eb2:	8f55                	or	a4,a4,a3
  200eb4:	d3d8                	sw	a4,36(a5)
  200eb6:	002107b7          	lui	a5,0x210
  200eba:	1807b683          	ld	a3,384(a5) # 210180 <reqPoolPtr>
  200ebe:	fec42783          	lw	a5,-20(s0)
  200ec2:	03079713          	slli	a4,a5,0x30
  200ec6:	9341                	srli	a4,a4,0x30
  200ec8:	fcc46603          	lwu	a2,-52(s0)
  200ecc:	03400793          	li	a5,52
  200ed0:	02f607b3          	mul	a5,a2,a5
  200ed4:	97b6                	add	a5,a5,a3
  200ed6:	0087171b          	slliw	a4,a4,0x8
  200eda:	53d0                	lw	a2,36(a5)
  200edc:	ff0006b7          	lui	a3,0xff000
  200ee0:	0ff68693          	addi	a3,a3,255 # ffffffffff0000ff <g_nvmeTask+0xfffffffffedefc97>
  200ee4:	8ef1                	and	a3,a3,a2
  200ee6:	8f55                	or	a4,a4,a3
  200ee8:	d3d8                	sw	a4,36(a5)
  200eea:	002107b7          	lui	a5,0x210
  200eee:	1807b703          	ld	a4,384(a5) # 210180 <reqPoolPtr>
  200ef2:	fcc46683          	lwu	a3,-52(s0)
  200ef6:	03400793          	li	a5,52
  200efa:	02f687b3          	mul	a5,a3,a5
  200efe:	97ba                	add	a5,a5,a4
  200f00:	02079423          	sh	zero,40(a5)
  200f04:	fcc42783          	lw	a5,-52(s0)
  200f08:	4581                	li	a1,0
  200f0a:	853e                	mv	a0,a5
  200f0c:	53a0a0ef          	jal	ra,20b446 <SelectLowLevelReqQ>
  200f10:	fe842783          	lw	a5,-24(s0)
  200f14:	2785                	addiw	a5,a5,1
  200f16:	fef42423          	sw	a5,-24(s0)
  200f1a:	fe842783          	lw	a5,-24(s0)
  200f1e:	0007871b          	sext.w	a4,a5
  200f22:	03f00793          	li	a5,63
  200f26:	dce7fde3          	bgeu	a5,a4,200d00 <FindBadBlock+0x38>
  200f2a:	5dc040ef          	jal	ra,205506 <SyncAllLowLevelReqDone>
  200f2e:	fe042423          	sw	zero,-24(s0)
  200f32:	a459                	j	2011b8 <FindBadBlock+0x4f0>
  200f34:	fe846783          	lwu	a5,-24(s0)
  200f38:	f7843703          	ld	a4,-136(s0)
  200f3c:	97ba                	add	a5,a5,a4
  200f3e:	0007c783          	lbu	a5,0(a5)
  200f42:	26079663          	bnez	a5,2011ae <FindBadBlock+0x4e6>
  200f46:	fe846783          	lwu	a5,-24(s0)
  200f4a:	078a                	slli	a5,a5,0x2
  200f4c:	f6043703          	ld	a4,-160(s0)
  200f50:	97ba                	add	a5,a5,a4
  200f52:	439c                	lw	a5,0(a5)
  200f54:	1782                	slli	a5,a5,0x20
  200f56:	9381                	srli	a5,a5,0x20
  200f58:	fef43023          	sd	a5,-32(s0)
  200f5c:	fe846783          	lwu	a5,-24(s0)
  200f60:	078a                	slli	a5,a5,0x2
  200f62:	f6043703          	ld	a4,-160(s0)
  200f66:	97ba                	add	a5,a5,a4
  200f68:	4398                	lw	a4,0(a5)
  200f6a:	6791                	lui	a5,0x4
  200f6c:	9fb9                	addw	a5,a5,a4
  200f6e:	2781                	sext.w	a5,a5
  200f70:	1782                	slli	a5,a5,0x20
  200f72:	9381                	srli	a5,a5,0x20
  200f74:	fcf43c23          	sd	a5,-40(s0)
  200f78:	fe043783          	ld	a5,-32(s0)
  200f7c:	0007c783          	lbu	a5,0(a5) # 4000 <start-0x1fc000>
  200f80:	873e                	mv	a4,a5
  200f82:	0ff00793          	li	a5,255
  200f86:	20f71663          	bne	a4,a5,201192 <FindBadBlock+0x4ca>
  200f8a:	fd843783          	ld	a5,-40(s0)
  200f8e:	0007c783          	lbu	a5,0(a5)
  200f92:	873e                	mv	a4,a5
  200f94:	0ff00793          	li	a5,255
  200f98:	1ef71d63          	bne	a4,a5,201192 <FindBadBlock+0x4ca>
  200f9c:	3c4020ef          	jal	ra,203360 <GetFromFreeReqQ>
  200fa0:	87aa                	mv	a5,a0
  200fa2:	fcf42623          	sw	a5,-52(s0)
  200fa6:	002107b7          	lui	a5,0x210
  200faa:	1807b703          	ld	a4,384(a5) # 210180 <reqPoolPtr>
  200fae:	fcc46683          	lwu	a3,-52(s0)
  200fb2:	03400793          	li	a5,52
  200fb6:	02f687b3          	mul	a5,a3,a5
  200fba:	97ba                	add	a5,a5,a4
  200fbc:	4398                	lw	a4,0(a5)
  200fbe:	9b41                	andi	a4,a4,-16
  200fc0:	00176713          	ori	a4,a4,1
  200fc4:	c398                	sw	a4,0(a5)
  200fc6:	002107b7          	lui	a5,0x210
  200fca:	1807b703          	ld	a4,384(a5) # 210180 <reqPoolPtr>
  200fce:	fcc46683          	lwu	a3,-52(s0)
  200fd2:	03400793          	li	a5,52
  200fd6:	02f687b3          	mul	a5,a3,a5
  200fda:	97ba                	add	a5,a5,a4
  200fdc:	4721                	li	a4,8
  200fde:	00e780a3          	sb	a4,1(a5)
  200fe2:	002107b7          	lui	a5,0x210
  200fe6:	1807b703          	ld	a4,384(a5) # 210180 <reqPoolPtr>
  200fea:	fcc46683          	lwu	a3,-52(s0)
  200fee:	03400793          	li	a5,52
  200ff2:	02f687b3          	mul	a5,a3,a5
  200ff6:	97ba                	add	a5,a5,a4
  200ff8:	4b98                	lw	a4,16(a5)
  200ffa:	9b71                	andi	a4,a4,-4
  200ffc:	00276713          	ori	a4,a4,2
  201000:	cb98                	sw	a4,16(a5)
  201002:	002107b7          	lui	a5,0x210
  201006:	1807b703          	ld	a4,384(a5) # 210180 <reqPoolPtr>
  20100a:	fcc46683          	lwu	a3,-52(s0)
  20100e:	03400793          	li	a5,52
  201012:	02f687b3          	mul	a5,a3,a5
  201016:	97ba                	add	a5,a5,a4
  201018:	4b98                	lw	a4,16(a5)
  20101a:	9b4d                	andi	a4,a4,-13
  20101c:	00476713          	ori	a4,a4,4
  201020:	cb98                	sw	a4,16(a5)
  201022:	002107b7          	lui	a5,0x210
  201026:	1807b703          	ld	a4,384(a5) # 210180 <reqPoolPtr>
  20102a:	fcc46683          	lwu	a3,-52(s0)
  20102e:	03400793          	li	a5,52
  201032:	02f687b3          	mul	a5,a3,a5
  201036:	97ba                	add	a5,a5,a4
  201038:	4b98                	lw	a4,16(a5)
  20103a:	9b3d                	andi	a4,a4,-17
  20103c:	cb98                	sw	a4,16(a5)
  20103e:	002107b7          	lui	a5,0x210
  201042:	1807b703          	ld	a4,384(a5) # 210180 <reqPoolPtr>
  201046:	fcc46683          	lwu	a3,-52(s0)
  20104a:	03400793          	li	a5,52
  20104e:	02f687b3          	mul	a5,a3,a5
  201052:	97ba                	add	a5,a5,a4
  201054:	4b98                	lw	a4,16(a5)
  201056:	fdf77713          	andi	a4,a4,-33
  20105a:	cb98                	sw	a4,16(a5)
  20105c:	002107b7          	lui	a5,0x210
  201060:	1807b703          	ld	a4,384(a5) # 210180 <reqPoolPtr>
  201064:	fcc46683          	lwu	a3,-52(s0)
  201068:	03400793          	li	a5,52
  20106c:	02f687b3          	mul	a5,a3,a5
  201070:	97ba                	add	a5,a5,a4
  201072:	4b98                	lw	a4,16(a5)
  201074:	fbf77713          	andi	a4,a4,-65
  201078:	cb98                	sw	a4,16(a5)
  20107a:	002107b7          	lui	a5,0x210
  20107e:	1807b703          	ld	a4,384(a5) # 210180 <reqPoolPtr>
  201082:	fcc46683          	lwu	a3,-52(s0)
  201086:	03400793          	li	a5,52
  20108a:	02f687b3          	mul	a5,a3,a5
  20108e:	97ba                	add	a5,a5,a4
  201090:	4b98                	lw	a4,16(a5)
  201092:	08076713          	ori	a4,a4,128
  201096:	cb98                	sw	a4,16(a5)
  201098:	fe846783          	lwu	a5,-24(s0)
  20109c:	078a                	slli	a5,a5,0x2
  20109e:	f6043703          	ld	a4,-160(s0)
  2010a2:	97ba                	add	a5,a5,a4
  2010a4:	00210737          	lui	a4,0x210
  2010a8:	18073683          	ld	a3,384(a4) # 210180 <reqPoolPtr>
  2010ac:	4398                	lw	a4,0(a5)
  2010ae:	fcc46603          	lwu	a2,-52(s0)
  2010b2:	03400793          	li	a5,52
  2010b6:	02f607b3          	mul	a5,a2,a5
  2010ba:	97b6                	add	a5,a5,a3
  2010bc:	cbd8                	sw	a4,20(a5)
  2010be:	fe842783          	lw	a5,-24(s0)
  2010c2:	8bbd                	andi	a5,a5,15
  2010c4:	0ff7f793          	andi	a5,a5,255
  2010c8:	00210737          	lui	a4,0x210
  2010cc:	18073703          	ld	a4,384(a4) # 210180 <reqPoolPtr>
  2010d0:	8b9d                	andi	a5,a5,7
  2010d2:	0ff7f613          	andi	a2,a5,255
  2010d6:	fcc46683          	lwu	a3,-52(s0)
  2010da:	03400793          	li	a5,52
  2010de:	02f687b3          	mul	a5,a3,a5
  2010e2:	97ba                	add	a5,a5,a4
  2010e4:	8732                	mv	a4,a2
  2010e6:	00f77613          	andi	a2,a4,15
  2010ea:	53d8                	lw	a4,36(a5)
  2010ec:	9b41                	andi	a4,a4,-16
  2010ee:	86ba                	mv	a3,a4
  2010f0:	8732                	mv	a4,a2
  2010f2:	8f55                	or	a4,a4,a3
  2010f4:	d3d8                	sw	a4,36(a5)
  2010f6:	fe842783          	lw	a5,-24(s0)
  2010fa:	0037d79b          	srliw	a5,a5,0x3
  2010fe:	0007869b          	sext.w	a3,a5
  201102:	002107b7          	lui	a5,0x210
  201106:	1807b703          	ld	a4,384(a5) # 210180 <reqPoolPtr>
  20110a:	87b6                	mv	a5,a3
  20110c:	8bbd                	andi	a5,a5,15
  20110e:	0ff7f613          	andi	a2,a5,255
  201112:	fcc46683          	lwu	a3,-52(s0)
  201116:	03400793          	li	a5,52
  20111a:	02f687b3          	mul	a5,a3,a5
  20111e:	97ba                	add	a5,a5,a4
  201120:	8732                	mv	a4,a2
  201122:	8b3d                	andi	a4,a4,15
  201124:	0047171b          	slliw	a4,a4,0x4
  201128:	53d4                	lw	a3,36(a5)
  20112a:	f0f6f693          	andi	a3,a3,-241
  20112e:	8f55                	or	a4,a4,a3
  201130:	d3d8                	sw	a4,36(a5)
  201132:	002107b7          	lui	a5,0x210
  201136:	1807b683          	ld	a3,384(a5) # 210180 <reqPoolPtr>
  20113a:	fec42783          	lw	a5,-20(s0)
  20113e:	03079713          	slli	a4,a5,0x30
  201142:	9341                	srli	a4,a4,0x30
  201144:	fcc46603          	lwu	a2,-52(s0)
  201148:	03400793          	li	a5,52
  20114c:	02f607b3          	mul	a5,a2,a5
  201150:	97b6                	add	a5,a5,a3
  201152:	0087171b          	slliw	a4,a4,0x8
  201156:	53d0                	lw	a2,36(a5)
  201158:	ff0006b7          	lui	a3,0xff000
  20115c:	0ff68693          	addi	a3,a3,255 # ffffffffff0000ff <g_nvmeTask+0xfffffffffedefc97>
  201160:	8ef1                	and	a3,a3,a2
  201162:	8f55                	or	a4,a4,a3
  201164:	d3d8                	sw	a4,36(a5)
  201166:	002107b7          	lui	a5,0x210
  20116a:	1807b703          	ld	a4,384(a5) # 210180 <reqPoolPtr>
  20116e:	fcc46683          	lwu	a3,-52(s0)
  201172:	03400793          	li	a5,52
  201176:	02f687b3          	mul	a5,a3,a5
  20117a:	97ba                	add	a5,a5,a4
  20117c:	0ff00713          	li	a4,255
  201180:	02e79423          	sh	a4,40(a5)
  201184:	fcc42783          	lw	a5,-52(s0)
  201188:	4581                	li	a1,0
  20118a:	853e                	mv	a0,a5
  20118c:	2ba0a0ef          	jal	ra,20b446 <SelectLowLevelReqQ>
  201190:	a839                	j	2011ae <FindBadBlock+0x4e6>
  201192:	0020f7b7          	lui	a5,0x20f
  201196:	db078513          	addi	a0,a5,-592 # 20edb0 <nvme_main+0x2fa>
  20119a:	41e030ef          	jal	ra,2045b8 <cpl_print>
  20119e:	fe846783          	lwu	a5,-24(s0)
  2011a2:	ff040713          	addi	a4,s0,-16
  2011a6:	97ba                	add	a5,a5,a4
  2011a8:	4705                	li	a4,1
  2011aa:	f8e78c23          	sb	a4,-104(a5)
  2011ae:	fe842783          	lw	a5,-24(s0)
  2011b2:	2785                	addiw	a5,a5,1
  2011b4:	fef42423          	sw	a5,-24(s0)
  2011b8:	fe842783          	lw	a5,-24(s0)
  2011bc:	0007871b          	sext.w	a4,a5
  2011c0:	03f00793          	li	a5,63
  2011c4:	d6e7f8e3          	bgeu	a5,a4,200f34 <FindBadBlock+0x26c>
  2011c8:	33e040ef          	jal	ra,205506 <SyncAllLowLevelReqDone>
  2011cc:	fe042423          	sw	zero,-24(s0)
  2011d0:	aa39                	j	2012ee <FindBadBlock+0x626>
  2011d2:	fe846783          	lwu	a5,-24(s0)
  2011d6:	f7843703          	ld	a4,-136(s0)
  2011da:	97ba                	add	a5,a5,a4
  2011dc:	0007c783          	lbu	a5,0(a5)
  2011e0:	10079263          	bnez	a5,2012e4 <FindBadBlock+0x61c>
  2011e4:	fe846783          	lwu	a5,-24(s0)
  2011e8:	078a                	slli	a5,a5,0x2
  2011ea:	f6043703          	ld	a4,-160(s0)
  2011ee:	97ba                	add	a5,a5,a4
  2011f0:	439c                	lw	a5,0(a5)
  2011f2:	1782                	slli	a5,a5,0x20
  2011f4:	9381                	srli	a5,a5,0x20
  2011f6:	fef43023          	sd	a5,-32(s0)
  2011fa:	fe846783          	lwu	a5,-24(s0)
  2011fe:	078a                	slli	a5,a5,0x2
  201200:	f6043703          	ld	a4,-160(s0)
  201204:	97ba                	add	a5,a5,a4
  201206:	4398                	lw	a4,0(a5)
  201208:	6791                	lui	a5,0x4
  20120a:	9fb9                	addw	a5,a5,a4
  20120c:	2781                	sext.w	a5,a5
  20120e:	1782                	slli	a5,a5,0x20
  201210:	9381                	srli	a5,a5,0x20
  201212:	fcf43c23          	sd	a5,-40(s0)
  201216:	fe043783          	ld	a5,-32(s0)
  20121a:	0007c783          	lbu	a5,0(a5) # 4000 <start-0x1fc000>
  20121e:	873e                	mv	a4,a5
  201220:	0ff00793          	li	a5,255
  201224:	00f71b63          	bne	a4,a5,20123a <FindBadBlock+0x572>
  201228:	fd843783          	ld	a5,-40(s0)
  20122c:	0007c783          	lbu	a5,0(a5)
  201230:	873e                	mv	a4,a5
  201232:	0ff00793          	li	a5,255
  201236:	02f70863          	beq	a4,a5,201266 <FindBadBlock+0x59e>
  20123a:	fe846783          	lwu	a5,-24(s0)
  20123e:	ff040713          	addi	a4,s0,-16
  201242:	97ba                	add	a5,a5,a4
  201244:	f987c783          	lbu	a5,-104(a5)
  201248:	ef99                	bnez	a5,201266 <FindBadBlock+0x59e>
  20124a:	0020f7b7          	lui	a5,0x20f
  20124e:	db078513          	addi	a0,a5,-592 # 20edb0 <nvme_main+0x2fa>
  201252:	366030ef          	jal	ra,2045b8 <cpl_print>
  201256:	fe846783          	lwu	a5,-24(s0)
  20125a:	ff040713          	addi	a4,s0,-16
  20125e:	97ba                	add	a5,a5,a4
  201260:	4705                	li	a4,1
  201262:	f8e78c23          	sb	a4,-104(a5)
  201266:	fe846783          	lwu	a5,-24(s0)
  20126a:	078a                	slli	a5,a5,0x2
  20126c:	f7043703          	ld	a4,-144(s0)
  201270:	97ba                	add	a5,a5,a4
  201272:	439c                	lw	a5,0(a5)
  201274:	fec42703          	lw	a4,-20(s0)
  201278:	9fb9                	addw	a5,a5,a4
  20127a:	2781                	sext.w	a5,a5
  20127c:	1782                	slli	a5,a5,0x20
  20127e:	9381                	srli	a5,a5,0x20
  201280:	fcf43823          	sd	a5,-48(s0)
  201284:	fe846783          	lwu	a5,-24(s0)
  201288:	ff040713          	addi	a4,s0,-16
  20128c:	97ba                	add	a5,a5,a4
  20128e:	f987c703          	lbu	a4,-104(a5)
  201292:	fd043783          	ld	a5,-48(s0)
  201296:	00e78023          	sb	a4,0(a5)
  20129a:	fe846783          	lwu	a5,-24(s0)
  20129e:	ff040713          	addi	a4,s0,-16
  2012a2:	97ba                	add	a5,a5,a4
  2012a4:	f987c683          	lbu	a3,-104(a5)
  2012a8:	002107b7          	lui	a5,0x210
  2012ac:	f607b703          	ld	a4,-160(a5) # 20ff60 <phyBlockMapPtr>
  2012b0:	87b6                	mv	a5,a3
  2012b2:	8b85                	andi	a5,a5,1
  2012b4:	0ff7f593          	andi	a1,a5,255
  2012b8:	fec46783          	lwu	a5,-20(s0)
  2012bc:	fe846603          	lwu	a2,-24(s0)
  2012c0:	6689                	lui	a3,0x2
  2012c2:	0b068693          	addi	a3,a3,176 # 20b0 <start-0x1fdf50>
  2012c6:	02d606b3          	mul	a3,a2,a3
  2012ca:	97b6                	add	a5,a5,a3
  2012cc:	078a                	slli	a5,a5,0x2
  2012ce:	97ba                	add	a5,a5,a4
  2012d0:	872e                	mv	a4,a1
  2012d2:	8b05                	andi	a4,a4,1
  2012d4:	0107171b          	slliw	a4,a4,0x10
  2012d8:	4390                	lw	a2,0(a5)
  2012da:	76c1                	lui	a3,0xffff0
  2012dc:	16fd                	addi	a3,a3,-1
  2012de:	8ef1                	and	a3,a3,a2
  2012e0:	8f55                	or	a4,a4,a3
  2012e2:	c398                	sw	a4,0(a5)
  2012e4:	fe842783          	lw	a5,-24(s0)
  2012e8:	2785                	addiw	a5,a5,1
  2012ea:	fef42423          	sw	a5,-24(s0)
  2012ee:	fe842783          	lw	a5,-24(s0)
  2012f2:	0007871b          	sext.w	a4,a5
  2012f6:	03f00793          	li	a5,63
  2012fa:	ece7fce3          	bgeu	a5,a4,2011d2 <FindBadBlock+0x50a>
  2012fe:	fec42783          	lw	a5,-20(s0)
  201302:	2785                	addiw	a5,a5,1
  201304:	fef42623          	sw	a5,-20(s0)
  201308:	fec42783          	lw	a5,-20(s0)
  20130c:	0007871b          	sext.w	a4,a5
  201310:	6789                	lui	a5,0x2
  201312:	0af78793          	addi	a5,a5,175 # 20af <start-0x1fdf51>
  201316:	9ee7f2e3          	bgeu	a5,a4,200cfa <FindBadBlock+0x32>
  20131a:	0001                	nop
  20131c:	0001                	nop
  20131e:	60ea                	ld	ra,152(sp)
  201320:	644a                	ld	s0,144(sp)
  201322:	610d                	addi	sp,sp,160
  201324:	8082                	ret

0000000000201326 <SaveBadBlockTable>:
  201326:	715d                	addi	sp,sp,-80
  201328:	e486                	sd	ra,72(sp)
  20132a:	e0a2                	sd	s0,64(sp)
  20132c:	0880                	addi	s0,sp,80
  20132e:	fca43423          	sd	a0,-56(s0)
  201332:	fcb43023          	sd	a1,-64(s0)
  201336:	87b2                	mv	a5,a2
  201338:	faf42e23          	sw	a5,-68(s0)
  20133c:	fe042423          	sw	zero,-24(s0)
  201340:	6789                	lui	a5,0x2
  201342:	0b078793          	addi	a5,a5,176 # 20b0 <start-0x1fdf50>
  201346:	fef42223          	sw	a5,-28(s0)
  20134a:	4785                	li	a5,1
  20134c:	fef42023          	sw	a5,-32(s0)
  201350:	a93d                	j	20178e <SaveBadBlockTable+0x468>
  201352:	fe042623          	sw	zero,-20(s0)
  201356:	a121                	j	20175e <SaveBadBlockTable+0x438>
  201358:	fec46783          	lwu	a5,-20(s0)
  20135c:	fc843703          	ld	a4,-56(s0)
  201360:	97ba                	add	a5,a5,a4
  201362:	0007c783          	lbu	a5,0(a5)
  201366:	cf81                	beqz	a5,20137e <SaveBadBlockTable+0x58>
  201368:	fec46783          	lwu	a5,-20(s0)
  20136c:	fc843703          	ld	a4,-56(s0)
  201370:	97ba                	add	a5,a5,a4
  201372:	0007c783          	lbu	a5,0(a5)
  201376:	873e                	mv	a4,a5
  201378:	478d                	li	a5,3
  20137a:	3cf71d63          	bne	a4,a5,201754 <SaveBadBlockTable+0x42e>
  20137e:	fe842783          	lw	a5,-24(s0)
  201382:	2781                	sext.w	a5,a5
  201384:	18079e63          	bnez	a5,201520 <SaveBadBlockTable+0x1fa>
  201388:	7d9010ef          	jal	ra,203360 <GetFromFreeReqQ>
  20138c:	87aa                	mv	a5,a0
  20138e:	fcf42e23          	sw	a5,-36(s0)
  201392:	002107b7          	lui	a5,0x210
  201396:	1807b703          	ld	a4,384(a5) # 210180 <reqPoolPtr>
  20139a:	fdc46683          	lwu	a3,-36(s0)
  20139e:	03400793          	li	a5,52
  2013a2:	02f687b3          	mul	a5,a3,a5
  2013a6:	97ba                	add	a5,a5,a4
  2013a8:	4398                	lw	a4,0(a5)
  2013aa:	9b41                	andi	a4,a4,-16
  2013ac:	00176713          	ori	a4,a4,1
  2013b0:	c398                	sw	a4,0(a5)
  2013b2:	002107b7          	lui	a5,0x210
  2013b6:	1807b703          	ld	a4,384(a5) # 210180 <reqPoolPtr>
  2013ba:	fdc46683          	lwu	a3,-36(s0)
  2013be:	03400793          	li	a5,52
  2013c2:	02f687b3          	mul	a5,a3,a5
  2013c6:	97ba                	add	a5,a5,a4
  2013c8:	4731                	li	a4,12
  2013ca:	00e780a3          	sb	a4,1(a5)
  2013ce:	002107b7          	lui	a5,0x210
  2013d2:	1807b703          	ld	a4,384(a5) # 210180 <reqPoolPtr>
  2013d6:	fdc46683          	lwu	a3,-36(s0)
  2013da:	03400793          	li	a5,52
  2013de:	02f687b3          	mul	a5,a3,a5
  2013e2:	97ba                	add	a5,a5,a4
  2013e4:	4b98                	lw	a4,16(a5)
  2013e6:	9b4d                	andi	a4,a4,-13
  2013e8:	00476713          	ori	a4,a4,4
  2013ec:	cb98                	sw	a4,16(a5)
  2013ee:	002107b7          	lui	a5,0x210
  2013f2:	1807b703          	ld	a4,384(a5) # 210180 <reqPoolPtr>
  2013f6:	fdc46683          	lwu	a3,-36(s0)
  2013fa:	03400793          	li	a5,52
  2013fe:	02f687b3          	mul	a5,a3,a5
  201402:	97ba                	add	a5,a5,a4
  201404:	4b98                	lw	a4,16(a5)
  201406:	00376713          	ori	a4,a4,3
  20140a:	cb98                	sw	a4,16(a5)
  20140c:	002107b7          	lui	a5,0x210
  201410:	1807b703          	ld	a4,384(a5) # 210180 <reqPoolPtr>
  201414:	fdc46683          	lwu	a3,-36(s0)
  201418:	03400793          	li	a5,52
  20141c:	02f687b3          	mul	a5,a3,a5
  201420:	97ba                	add	a5,a5,a4
  201422:	4b98                	lw	a4,16(a5)
  201424:	fbf77713          	andi	a4,a4,-65
  201428:	cb98                	sw	a4,16(a5)
  20142a:	002107b7          	lui	a5,0x210
  20142e:	1807b703          	ld	a4,384(a5) # 210180 <reqPoolPtr>
  201432:	fdc46683          	lwu	a3,-36(s0)
  201436:	03400793          	li	a5,52
  20143a:	02f687b3          	mul	a5,a3,a5
  20143e:	97ba                	add	a5,a5,a4
  201440:	4b98                	lw	a4,16(a5)
  201442:	08076713          	ori	a4,a4,128
  201446:	cb98                	sw	a4,16(a5)
  201448:	fec42783          	lw	a5,-20(s0)
  20144c:	8bbd                	andi	a5,a5,15
  20144e:	0ff7f793          	andi	a5,a5,255
  201452:	00210737          	lui	a4,0x210
  201456:	18073703          	ld	a4,384(a4) # 210180 <reqPoolPtr>
  20145a:	8b9d                	andi	a5,a5,7
  20145c:	0ff7f613          	andi	a2,a5,255
  201460:	fdc46683          	lwu	a3,-36(s0)
  201464:	03400793          	li	a5,52
  201468:	02f687b3          	mul	a5,a3,a5
  20146c:	97ba                	add	a5,a5,a4
  20146e:	8732                	mv	a4,a2
  201470:	00f77613          	andi	a2,a4,15
  201474:	53d8                	lw	a4,36(a5)
  201476:	9b41                	andi	a4,a4,-16
  201478:	86ba                	mv	a3,a4
  20147a:	8732                	mv	a4,a2
  20147c:	8f55                	or	a4,a4,a3
  20147e:	d3d8                	sw	a4,36(a5)
  201480:	fec42783          	lw	a5,-20(s0)
  201484:	0037d79b          	srliw	a5,a5,0x3
  201488:	0007869b          	sext.w	a3,a5
  20148c:	002107b7          	lui	a5,0x210
  201490:	1807b703          	ld	a4,384(a5) # 210180 <reqPoolPtr>
  201494:	87b6                	mv	a5,a3
  201496:	8bbd                	andi	a5,a5,15
  201498:	0ff7f613          	andi	a2,a5,255
  20149c:	fdc46683          	lwu	a3,-36(s0)
  2014a0:	03400793          	li	a5,52
  2014a4:	02f687b3          	mul	a5,a3,a5
  2014a8:	97ba                	add	a5,a5,a4
  2014aa:	8732                	mv	a4,a2
  2014ac:	8b3d                	andi	a4,a4,15
  2014ae:	0047171b          	slliw	a4,a4,0x4
  2014b2:	53d4                	lw	a3,36(a5)
  2014b4:	f0f6f693          	andi	a3,a3,-241
  2014b8:	8f55                	or	a4,a4,a3
  2014ba:	d3d8                	sw	a4,36(a5)
  2014bc:	002107b7          	lui	a5,0x210
  2014c0:	f587b703          	ld	a4,-168(a5) # 20ff58 <bbtInfoMapPtr>
  2014c4:	002107b7          	lui	a5,0x210
  2014c8:	1807b683          	ld	a3,384(a5) # 210180 <reqPoolPtr>
  2014cc:	fec46783          	lwu	a5,-20(s0)
  2014d0:	078a                	slli	a5,a5,0x2
  2014d2:	97ba                	add	a5,a5,a4
  2014d4:	0007d703          	lhu	a4,0(a5)
  2014d8:	fdc46603          	lwu	a2,-36(s0)
  2014dc:	03400793          	li	a5,52
  2014e0:	02f607b3          	mul	a5,a2,a5
  2014e4:	97b6                	add	a5,a5,a3
  2014e6:	0087171b          	slliw	a4,a4,0x8
  2014ea:	53d0                	lw	a2,36(a5)
  2014ec:	ff0006b7          	lui	a3,0xff000
  2014f0:	0ff68693          	addi	a3,a3,255 # ffffffffff0000ff <g_nvmeTask+0xfffffffffedefc97>
  2014f4:	8ef1                	and	a3,a3,a2
  2014f6:	8f55                	or	a4,a4,a3
  2014f8:	d3d8                	sw	a4,36(a5)
  2014fa:	002107b7          	lui	a5,0x210
  2014fe:	1807b703          	ld	a4,384(a5) # 210180 <reqPoolPtr>
  201502:	fdc46683          	lwu	a3,-36(s0)
  201506:	03400793          	li	a5,52
  20150a:	02f687b3          	mul	a5,a3,a5
  20150e:	97ba                	add	a5,a5,a4
  201510:	02079423          	sh	zero,40(a5)
  201514:	fdc42783          	lw	a5,-36(s0)
  201518:	4581                	li	a1,0
  20151a:	853e                	mv	a0,a5
  20151c:	72b090ef          	jal	ra,20b446 <SelectLowLevelReqQ>
  201520:	641010ef          	jal	ra,203360 <GetFromFreeReqQ>
  201524:	87aa                	mv	a5,a0
  201526:	fcf42e23          	sw	a5,-36(s0)
  20152a:	002107b7          	lui	a5,0x210
  20152e:	1807b703          	ld	a4,384(a5) # 210180 <reqPoolPtr>
  201532:	fdc46683          	lwu	a3,-36(s0)
  201536:	03400793          	li	a5,52
  20153a:	02f687b3          	mul	a5,a3,a5
  20153e:	97ba                	add	a5,a5,a4
  201540:	4398                	lw	a4,0(a5)
  201542:	9b41                	andi	a4,a4,-16
  201544:	00176713          	ori	a4,a4,1
  201548:	c398                	sw	a4,0(a5)
  20154a:	002107b7          	lui	a5,0x210
  20154e:	1807b703          	ld	a4,384(a5) # 210180 <reqPoolPtr>
  201552:	fdc46683          	lwu	a3,-36(s0)
  201556:	03400793          	li	a5,52
  20155a:	02f687b3          	mul	a5,a3,a5
  20155e:	97ba                	add	a5,a5,a4
  201560:	000780a3          	sb	zero,1(a5)
  201564:	002107b7          	lui	a5,0x210
  201568:	1807b703          	ld	a4,384(a5) # 210180 <reqPoolPtr>
  20156c:	fdc46683          	lwu	a3,-36(s0)
  201570:	03400793          	li	a5,52
  201574:	02f687b3          	mul	a5,a3,a5
  201578:	97ba                	add	a5,a5,a4
  20157a:	4b98                	lw	a4,16(a5)
  20157c:	9b71                	andi	a4,a4,-4
  20157e:	00276713          	ori	a4,a4,2
  201582:	cb98                	sw	a4,16(a5)
  201584:	002107b7          	lui	a5,0x210
  201588:	1807b703          	ld	a4,384(a5) # 210180 <reqPoolPtr>
  20158c:	fdc46683          	lwu	a3,-36(s0)
  201590:	03400793          	li	a5,52
  201594:	02f687b3          	mul	a5,a3,a5
  201598:	97ba                	add	a5,a5,a4
  20159a:	4b98                	lw	a4,16(a5)
  20159c:	9b4d                	andi	a4,a4,-13
  20159e:	00476713          	ori	a4,a4,4
  2015a2:	cb98                	sw	a4,16(a5)
  2015a4:	002107b7          	lui	a5,0x210
  2015a8:	1807b703          	ld	a4,384(a5) # 210180 <reqPoolPtr>
  2015ac:	fdc46683          	lwu	a3,-36(s0)
  2015b0:	03400793          	li	a5,52
  2015b4:	02f687b3          	mul	a5,a3,a5
  2015b8:	97ba                	add	a5,a5,a4
  2015ba:	4b98                	lw	a4,16(a5)
  2015bc:	01076713          	ori	a4,a4,16
  2015c0:	cb98                	sw	a4,16(a5)
  2015c2:	002107b7          	lui	a5,0x210
  2015c6:	1807b703          	ld	a4,384(a5) # 210180 <reqPoolPtr>
  2015ca:	fdc46683          	lwu	a3,-36(s0)
  2015ce:	03400793          	li	a5,52
  2015d2:	02f687b3          	mul	a5,a3,a5
  2015d6:	97ba                	add	a5,a5,a4
  2015d8:	4b98                	lw	a4,16(a5)
  2015da:	fdf77713          	andi	a4,a4,-33
  2015de:	cb98                	sw	a4,16(a5)
  2015e0:	002107b7          	lui	a5,0x210
  2015e4:	1807b703          	ld	a4,384(a5) # 210180 <reqPoolPtr>
  2015e8:	fdc46683          	lwu	a3,-36(s0)
  2015ec:	03400793          	li	a5,52
  2015f0:	02f687b3          	mul	a5,a3,a5
  2015f4:	97ba                	add	a5,a5,a4
  2015f6:	4b98                	lw	a4,16(a5)
  2015f8:	fbf77713          	andi	a4,a4,-65
  2015fc:	cb98                	sw	a4,16(a5)
  2015fe:	002107b7          	lui	a5,0x210
  201602:	1807b703          	ld	a4,384(a5) # 210180 <reqPoolPtr>
  201606:	fdc46683          	lwu	a3,-36(s0)
  20160a:	03400793          	li	a5,52
  20160e:	02f687b3          	mul	a5,a3,a5
  201612:	97ba                	add	a5,a5,a4
  201614:	4b98                	lw	a4,16(a5)
  201616:	08076713          	ori	a4,a4,128
  20161a:	cb98                	sw	a4,16(a5)
  20161c:	fec46783          	lwu	a5,-20(s0)
  201620:	078a                	slli	a5,a5,0x2
  201622:	fc043703          	ld	a4,-64(s0)
  201626:	97ba                	add	a5,a5,a4
  201628:	4398                	lw	a4,0(a5)
  20162a:	fe842783          	lw	a5,-24(s0)
  20162e:	fbc42683          	lw	a3,-68(s0)
  201632:	02f687bb          	mulw	a5,a3,a5
  201636:	2781                	sext.w	a5,a5
  201638:	002106b7          	lui	a3,0x210
  20163c:	1806b683          	ld	a3,384(a3) # 210180 <reqPoolPtr>
  201640:	9fb9                	addw	a5,a5,a4
  201642:	0007871b          	sext.w	a4,a5
  201646:	fdc46603          	lwu	a2,-36(s0)
  20164a:	03400793          	li	a5,52
  20164e:	02f607b3          	mul	a5,a2,a5
  201652:	97b6                	add	a5,a5,a3
  201654:	cbd8                	sw	a4,20(a5)
  201656:	fec42783          	lw	a5,-20(s0)
  20165a:	8bbd                	andi	a5,a5,15
  20165c:	0ff7f793          	andi	a5,a5,255
  201660:	00210737          	lui	a4,0x210
  201664:	18073703          	ld	a4,384(a4) # 210180 <reqPoolPtr>
  201668:	8b9d                	andi	a5,a5,7
  20166a:	0ff7f613          	andi	a2,a5,255
  20166e:	fdc46683          	lwu	a3,-36(s0)
  201672:	03400793          	li	a5,52
  201676:	02f687b3          	mul	a5,a3,a5
  20167a:	97ba                	add	a5,a5,a4
  20167c:	8732                	mv	a4,a2
  20167e:	00f77613          	andi	a2,a4,15
  201682:	53d8                	lw	a4,36(a5)
  201684:	9b41                	andi	a4,a4,-16
  201686:	86ba                	mv	a3,a4
  201688:	8732                	mv	a4,a2
  20168a:	8f55                	or	a4,a4,a3
  20168c:	d3d8                	sw	a4,36(a5)
  20168e:	fec42783          	lw	a5,-20(s0)
  201692:	0037d79b          	srliw	a5,a5,0x3
  201696:	0007869b          	sext.w	a3,a5
  20169a:	002107b7          	lui	a5,0x210
  20169e:	1807b703          	ld	a4,384(a5) # 210180 <reqPoolPtr>
  2016a2:	87b6                	mv	a5,a3
  2016a4:	8bbd                	andi	a5,a5,15
  2016a6:	0ff7f613          	andi	a2,a5,255
  2016aa:	fdc46683          	lwu	a3,-36(s0)
  2016ae:	03400793          	li	a5,52
  2016b2:	02f687b3          	mul	a5,a3,a5
  2016b6:	97ba                	add	a5,a5,a4
  2016b8:	8732                	mv	a4,a2
  2016ba:	8b3d                	andi	a4,a4,15
  2016bc:	0047171b          	slliw	a4,a4,0x4
  2016c0:	53d4                	lw	a3,36(a5)
  2016c2:	f0f6f693          	andi	a3,a3,-241
  2016c6:	8f55                	or	a4,a4,a3
  2016c8:	d3d8                	sw	a4,36(a5)
  2016ca:	002107b7          	lui	a5,0x210
  2016ce:	f587b703          	ld	a4,-168(a5) # 20ff58 <bbtInfoMapPtr>
  2016d2:	002107b7          	lui	a5,0x210
  2016d6:	1807b683          	ld	a3,384(a5) # 210180 <reqPoolPtr>
  2016da:	fec46783          	lwu	a5,-20(s0)
  2016de:	078a                	slli	a5,a5,0x2
  2016e0:	97ba                	add	a5,a5,a4
  2016e2:	0007d703          	lhu	a4,0(a5)
  2016e6:	fdc46603          	lwu	a2,-36(s0)
  2016ea:	03400793          	li	a5,52
  2016ee:	02f607b3          	mul	a5,a2,a5
  2016f2:	97b6                	add	a5,a5,a3
  2016f4:	0087171b          	slliw	a4,a4,0x8
  2016f8:	53d0                	lw	a2,36(a5)
  2016fa:	ff0006b7          	lui	a3,0xff000
  2016fe:	0ff68693          	addi	a3,a3,255 # ffffffffff0000ff <g_nvmeTask+0xfffffffffedefc97>
  201702:	8ef1                	and	a3,a3,a2
  201704:	8f55                	or	a4,a4,a3
  201706:	d3d8                	sw	a4,36(a5)
  201708:	fe042783          	lw	a5,-32(s0)
  20170c:	2781                	sext.w	a5,a5
  20170e:	00f05f63          	blez	a5,20172c <SaveBadBlockTable+0x406>
  201712:	fe042783          	lw	a5,-32(s0)
  201716:	17c2                	slli	a5,a5,0x30
  201718:	93c1                	srli	a5,a5,0x30
  20171a:	0017979b          	slliw	a5,a5,0x1
  20171e:	17c2                	slli	a5,a5,0x30
  201720:	93c1                	srli	a5,a5,0x30
  201722:	37fd                	addiw	a5,a5,-1
  201724:	03079713          	slli	a4,a5,0x30
  201728:	9341                	srli	a4,a4,0x30
  20172a:	a011                	j	20172e <SaveBadBlockTable+0x408>
  20172c:	4701                	li	a4,0
  20172e:	002107b7          	lui	a5,0x210
  201732:	1807b683          	ld	a3,384(a5) # 210180 <reqPoolPtr>
  201736:	fdc46603          	lwu	a2,-36(s0)
  20173a:	03400793          	li	a5,52
  20173e:	02f607b3          	mul	a5,a2,a5
  201742:	97b6                	add	a5,a5,a3
  201744:	02e79423          	sh	a4,40(a5)
  201748:	fdc42783          	lw	a5,-36(s0)
  20174c:	4581                	li	a1,0
  20174e:	853e                	mv	a0,a5
  201750:	4f7090ef          	jal	ra,20b446 <SelectLowLevelReqQ>
  201754:	fec42783          	lw	a5,-20(s0)
  201758:	2785                	addiw	a5,a5,1
  20175a:	fef42623          	sw	a5,-20(s0)
  20175e:	fec42783          	lw	a5,-20(s0)
  201762:	0007871b          	sext.w	a4,a5
  201766:	03f00793          	li	a5,63
  20176a:	bee7f7e3          	bgeu	a5,a4,201358 <SaveBadBlockTable+0x32>
  20176e:	fe842783          	lw	a5,-24(s0)
  201772:	2785                	addiw	a5,a5,1
  201774:	fef42423          	sw	a5,-24(s0)
  201778:	fe042783          	lw	a5,-32(s0)
  20177c:	2785                	addiw	a5,a5,1
  20177e:	fef42023          	sw	a5,-32(s0)
  201782:	fe442703          	lw	a4,-28(s0)
  201786:	77f1                	lui	a5,0xffffc
  201788:	9fb9                	addw	a5,a5,a4
  20178a:	fef42223          	sw	a5,-28(s0)
  20178e:	fe442783          	lw	a5,-28(s0)
  201792:	2781                	sext.w	a5,a5
  201794:	baf04fe3          	bgtz	a5,201352 <SaveBadBlockTable+0x2c>
  201798:	56f030ef          	jal	ra,205506 <SyncAllLowLevelReqDone>
  20179c:	fe042623          	sw	zero,-20(s0)
  2017a0:	a025                	j	2017c8 <SaveBadBlockTable+0x4a2>
  2017a2:	fec46783          	lwu	a5,-20(s0)
  2017a6:	fc843703          	ld	a4,-56(s0)
  2017aa:	97ba                	add	a5,a5,a4
  2017ac:	0007c783          	lbu	a5,0(a5) # ffffffffffffc000 <g_nvmeTask+0xffffffffffdebb98>
  2017b0:	e799                	bnez	a5,2017be <SaveBadBlockTable+0x498>
  2017b2:	0020f7b7          	lui	a5,0x20f
  2017b6:	de878513          	addi	a0,a5,-536 # 20ede8 <nvme_main+0x332>
  2017ba:	5ff020ef          	jal	ra,2045b8 <cpl_print>
  2017be:	fec42783          	lw	a5,-20(s0)
  2017c2:	2785                	addiw	a5,a5,1
  2017c4:	fef42623          	sw	a5,-20(s0)
  2017c8:	fec42783          	lw	a5,-20(s0)
  2017cc:	0007871b          	sext.w	a4,a5
  2017d0:	03f00793          	li	a5,63
  2017d4:	fce7f7e3          	bgeu	a5,a4,2017a2 <SaveBadBlockTable+0x47c>
  2017d8:	0001                	nop
  2017da:	0001                	nop
  2017dc:	60a6                	ld	ra,72(sp)
  2017de:	6406                	ld	s0,64(sp)
  2017e0:	6161                	addi	sp,sp,80
  2017e2:	8082                	ret

00000000002017e4 <RecoverBadBlockTable>:
  2017e4:	d7010113          	addi	sp,sp,-656
  2017e8:	28113423          	sd	ra,648(sp)
  2017ec:	28813023          	sd	s0,640(sp)
  2017f0:	0d00                	addi	s0,sp,656
  2017f2:	87aa                	mv	a5,a0
  2017f4:	d6f42e23          	sw	a5,-644(s0)
  2017f8:	d7c42783          	lw	a5,-644(s0)
  2017fc:	fef42023          	sw	a5,-32(s0)
  201800:	6791                	lui	a5,0x4
  201802:	10078793          	addi	a5,a5,256 # 4100 <start-0x1fbf00>
  201806:	fcf42e23          	sw	a5,-36(s0)
  20180a:	fdc42783          	lw	a5,-36(s0)
  20180e:	0067979b          	slliw	a5,a5,0x6
  201812:	2781                	sext.w	a5,a5
  201814:	fe042703          	lw	a4,-32(s0)
  201818:	9fb9                	addw	a5,a5,a4
  20181a:	fcf42c23          	sw	a5,-40(s0)
  20181e:	6791                	lui	a5,0x4
  201820:	68078793          	addi	a5,a5,1664 # 4680 <start-0x1fb980>
  201824:	fcf42a23          	sw	a5,-44(s0)
  201828:	fe042623          	sw	zero,-20(s0)
  20182c:	a8b1                	j	201888 <RecoverBadBlockTable+0xa4>
  20182e:	fec42703          	lw	a4,-20(s0)
  201832:	fdc42783          	lw	a5,-36(s0)
  201836:	02f707bb          	mulw	a5,a4,a5
  20183a:	2781                	sext.w	a5,a5
  20183c:	fe042703          	lw	a4,-32(s0)
  201840:	9fb9                	addw	a5,a5,a4
  201842:	0007871b          	sext.w	a4,a5
  201846:	fec46783          	lwu	a5,-20(s0)
  20184a:	078a                	slli	a5,a5,0x2
  20184c:	ff040693          	addi	a3,s0,-16
  201850:	97b6                	add	a5,a5,a3
  201852:	ece7ac23          	sw	a4,-296(a5)
  201856:	fec42703          	lw	a4,-20(s0)
  20185a:	fd442783          	lw	a5,-44(s0)
  20185e:	02f707bb          	mulw	a5,a4,a5
  201862:	2781                	sext.w	a5,a5
  201864:	fd842703          	lw	a4,-40(s0)
  201868:	9fb9                	addw	a5,a5,a4
  20186a:	0007871b          	sext.w	a4,a5
  20186e:	fec46783          	lwu	a5,-20(s0)
  201872:	078a                	slli	a5,a5,0x2
  201874:	ff040693          	addi	a3,s0,-16
  201878:	97b6                	add	a5,a5,a3
  20187a:	dce7ac23          	sw	a4,-552(a5)
  20187e:	fec42783          	lw	a5,-20(s0)
  201882:	2785                	addiw	a5,a5,1
  201884:	fef42623          	sw	a5,-20(s0)
  201888:	fec42783          	lw	a5,-20(s0)
  20188c:	0007871b          	sext.w	a4,a5
  201890:	03f00793          	li	a5,63
  201894:	f8e7fde3          	bgeu	a5,a4,20182e <RecoverBadBlockTable+0x4a>
  201898:	fdc42703          	lw	a4,-36(s0)
  20189c:	ec840793          	addi	a5,s0,-312
  2018a0:	85ba                	mv	a1,a4
  2018a2:	853e                	mv	a0,a5
  2018a4:	970ff0ef          	jal	ra,200a14 <ReadBadBlockTable>
  2018a8:	fe042223          	sw	zero,-28(s0)
  2018ac:	fe042623          	sw	zero,-20(s0)
  2018b0:	a239                	j	2019be <RecoverBadBlockTable+0x1da>
  2018b2:	fec46783          	lwu	a5,-20(s0)
  2018b6:	078a                	slli	a5,a5,0x2
  2018b8:	ff040713          	addi	a4,s0,-16
  2018bc:	97ba                	add	a5,a5,a4
  2018be:	ed87a783          	lw	a5,-296(a5)
  2018c2:	1782                	slli	a5,a5,0x20
  2018c4:	9381                	srli	a5,a5,0x20
  2018c6:	fcf43423          	sd	a5,-56(s0)
  2018ca:	fc843783          	ld	a5,-56(s0)
  2018ce:	0007c783          	lbu	a5,0(a5)
  2018d2:	cb89                	beqz	a5,2018e4 <RecoverBadBlockTable+0x100>
  2018d4:	fc843783          	ld	a5,-56(s0)
  2018d8:	0007c783          	lbu	a5,0(a5)
  2018dc:	873e                	mv	a4,a5
  2018de:	4785                	li	a5,1
  2018e0:	0af71a63          	bne	a4,a5,201994 <RecoverBadBlockTable+0x1b0>
  2018e4:	0020f7b7          	lui	a5,0x20f
  2018e8:	e1878513          	addi	a0,a5,-488 # 20ee18 <nvme_main+0x362>
  2018ec:	4cd020ef          	jal	ra,2045b8 <cpl_print>
  2018f0:	fec46783          	lwu	a5,-20(s0)
  2018f4:	ff040713          	addi	a4,s0,-16
  2018f8:	97ba                	add	a5,a5,a4
  2018fa:	4705                	li	a4,1
  2018fc:	d8e78c23          	sb	a4,-616(a5)
  201900:	fe042423          	sw	zero,-24(s0)
  201904:	a885                	j	201974 <RecoverBadBlockTable+0x190>
  201906:	fec46783          	lwu	a5,-20(s0)
  20190a:	078a                	slli	a5,a5,0x2
  20190c:	ff040713          	addi	a4,s0,-16
  201910:	97ba                	add	a5,a5,a4
  201912:	ed87a783          	lw	a5,-296(a5)
  201916:	fe842703          	lw	a4,-24(s0)
  20191a:	9fb9                	addw	a5,a5,a4
  20191c:	2781                	sext.w	a5,a5
  20191e:	1782                	slli	a5,a5,0x20
  201920:	9381                	srli	a5,a5,0x20
  201922:	fcf43423          	sd	a5,-56(s0)
  201926:	fc843783          	ld	a5,-56(s0)
  20192a:	0007c683          	lbu	a3,0(a5)
  20192e:	002107b7          	lui	a5,0x210
  201932:	f607b703          	ld	a4,-160(a5) # 20ff60 <phyBlockMapPtr>
  201936:	87b6                	mv	a5,a3
  201938:	8b85                	andi	a5,a5,1
  20193a:	0ff7f593          	andi	a1,a5,255
  20193e:	fe846783          	lwu	a5,-24(s0)
  201942:	fec46603          	lwu	a2,-20(s0)
  201946:	6689                	lui	a3,0x2
  201948:	0b068693          	addi	a3,a3,176 # 20b0 <start-0x1fdf50>
  20194c:	02d606b3          	mul	a3,a2,a3
  201950:	97b6                	add	a5,a5,a3
  201952:	078a                	slli	a5,a5,0x2
  201954:	97ba                	add	a5,a5,a4
  201956:	872e                	mv	a4,a1
  201958:	8b05                	andi	a4,a4,1
  20195a:	0107171b          	slliw	a4,a4,0x10
  20195e:	4390                	lw	a2,0(a5)
  201960:	76c1                	lui	a3,0xffff0
  201962:	16fd                	addi	a3,a3,-1
  201964:	8ef1                	and	a3,a3,a2
  201966:	8f55                	or	a4,a4,a3
  201968:	c398                	sw	a4,0(a5)
  20196a:	fe842783          	lw	a5,-24(s0)
  20196e:	2785                	addiw	a5,a5,1
  201970:	fef42423          	sw	a5,-24(s0)
  201974:	fe842783          	lw	a5,-24(s0)
  201978:	0007871b          	sext.w	a4,a5
  20197c:	6789                	lui	a5,0x2
  20197e:	0af78793          	addi	a5,a5,175 # 20af <start-0x1fdf51>
  201982:	f8e7f2e3          	bgeu	a5,a4,201906 <RecoverBadBlockTable+0x122>
  201986:	0020f7b7          	lui	a5,0x20f
  20198a:	e4878513          	addi	a0,a5,-440 # 20ee48 <nvme_main+0x392>
  20198e:	42b020ef          	jal	ra,2045b8 <cpl_print>
  201992:	a00d                	j	2019b4 <RecoverBadBlockTable+0x1d0>
  201994:	0020f7b7          	lui	a5,0x20f
  201998:	e7878513          	addi	a0,a5,-392 # 20ee78 <nvme_main+0x3c2>
  20199c:	41d020ef          	jal	ra,2045b8 <cpl_print>
  2019a0:	fec46783          	lwu	a5,-20(s0)
  2019a4:	ff040713          	addi	a4,s0,-16
  2019a8:	97ba                	add	a5,a5,a4
  2019aa:	d8078c23          	sb	zero,-616(a5)
  2019ae:	4785                	li	a5,1
  2019b0:	fef42223          	sw	a5,-28(s0)
  2019b4:	fec42783          	lw	a5,-20(s0)
  2019b8:	2785                	addiw	a5,a5,1
  2019ba:	fef42623          	sw	a5,-20(s0)
  2019be:	fec42783          	lw	a5,-20(s0)
  2019c2:	0007871b          	sext.w	a4,a5
  2019c6:	03f00793          	li	a5,63
  2019ca:	eee7f4e3          	bgeu	a5,a4,2018b2 <RecoverBadBlockTable+0xce>
  2019ce:	fe442783          	lw	a5,-28(s0)
  2019d2:	0007871b          	sext.w	a4,a5
  2019d6:	4785                	li	a5,1
  2019d8:	02f71a63          	bne	a4,a5,201a0c <RecoverBadBlockTable+0x228>
  2019dc:	fd442703          	lw	a4,-44(s0)
  2019e0:	dc840693          	addi	a3,s0,-568
  2019e4:	fdc42603          	lw	a2,-36(s0)
  2019e8:	ec840593          	addi	a1,s0,-312
  2019ec:	d8840793          	addi	a5,s0,-632
  2019f0:	853e                	mv	a0,a5
  2019f2:	ad6ff0ef          	jal	ra,200cc8 <FindBadBlock>
  2019f6:	fdc42683          	lw	a3,-36(s0)
  2019fa:	ec840713          	addi	a4,s0,-312
  2019fe:	d8840793          	addi	a5,s0,-632
  201a02:	8636                	mv	a2,a3
  201a04:	85ba                	mv	a1,a4
  201a06:	853e                	mv	a0,a5
  201a08:	91fff0ef          	jal	ra,201326 <SaveBadBlockTable>
  201a0c:	fe042623          	sw	zero,-20(s0)
  201a10:	a01d                	j	201a36 <RecoverBadBlockTable+0x252>
  201a12:	002107b7          	lui	a5,0x210
  201a16:	f587b703          	ld	a4,-168(a5) # 20ff58 <bbtInfoMapPtr>
  201a1a:	fec46783          	lwu	a5,-20(s0)
  201a1e:	078a                	slli	a5,a5,0x2
  201a20:	97ba                	add	a5,a5,a4
  201a22:	4394                	lw	a3,0(a5)
  201a24:	7741                	lui	a4,0xffff0
  201a26:	177d                	addi	a4,a4,-1
  201a28:	8f75                	and	a4,a4,a3
  201a2a:	c398                	sw	a4,0(a5)
  201a2c:	fec42783          	lw	a5,-20(s0)
  201a30:	2785                	addiw	a5,a5,1
  201a32:	fef42623          	sw	a5,-20(s0)
  201a36:	fec42783          	lw	a5,-20(s0)
  201a3a:	0007871b          	sext.w	a4,a5
  201a3e:	03f00793          	li	a5,63
  201a42:	fce7f8e3          	bgeu	a5,a4,201a12 <RecoverBadBlockTable+0x22e>
  201a46:	0001                	nop
  201a48:	0001                	nop
  201a4a:	28813083          	ld	ra,648(sp)
  201a4e:	28013403          	ld	s0,640(sp)
  201a52:	29010113          	addi	sp,sp,656
  201a56:	8082                	ret

0000000000201a58 <EraseTotalBlockSpace>:
  201a58:	1101                	addi	sp,sp,-32
  201a5a:	ec06                	sd	ra,24(sp)
  201a5c:	e822                	sd	s0,16(sp)
  201a5e:	1000                	addi	s0,sp,32
  201a60:	0020f7b7          	lui	a5,0x20f
  201a64:	eb078513          	addi	a0,a5,-336 # 20eeb0 <nvme_main+0x3fa>
  201a68:	351020ef          	jal	ra,2045b8 <cpl_print>
  201a6c:	fe042623          	sw	zero,-20(s0)
  201a70:	aa6d                	j	201c2a <EraseTotalBlockSpace+0x1d2>
  201a72:	fe042423          	sw	zero,-24(s0)
  201a76:	aa69                	j	201c10 <EraseTotalBlockSpace+0x1b8>
  201a78:	0e9010ef          	jal	ra,203360 <GetFromFreeReqQ>
  201a7c:	87aa                	mv	a5,a0
  201a7e:	fef42223          	sw	a5,-28(s0)
  201a82:	002107b7          	lui	a5,0x210
  201a86:	1807b703          	ld	a4,384(a5) # 210180 <reqPoolPtr>
  201a8a:	fe446683          	lwu	a3,-28(s0)
  201a8e:	03400793          	li	a5,52
  201a92:	02f687b3          	mul	a5,a3,a5
  201a96:	97ba                	add	a5,a5,a4
  201a98:	4398                	lw	a4,0(a5)
  201a9a:	9b41                	andi	a4,a4,-16
  201a9c:	00176713          	ori	a4,a4,1
  201aa0:	c398                	sw	a4,0(a5)
  201aa2:	002107b7          	lui	a5,0x210
  201aa6:	1807b703          	ld	a4,384(a5) # 210180 <reqPoolPtr>
  201aaa:	fe446683          	lwu	a3,-28(s0)
  201aae:	03400793          	li	a5,52
  201ab2:	02f687b3          	mul	a5,a3,a5
  201ab6:	97ba                	add	a5,a5,a4
  201ab8:	4731                	li	a4,12
  201aba:	00e780a3          	sb	a4,1(a5)
  201abe:	002107b7          	lui	a5,0x210
  201ac2:	1807b703          	ld	a4,384(a5) # 210180 <reqPoolPtr>
  201ac6:	fe446683          	lwu	a3,-28(s0)
  201aca:	03400793          	li	a5,52
  201ace:	02f687b3          	mul	a5,a3,a5
  201ad2:	97ba                	add	a5,a5,a4
  201ad4:	4b98                	lw	a4,16(a5)
  201ad6:	9b4d                	andi	a4,a4,-13
  201ad8:	00476713          	ori	a4,a4,4
  201adc:	cb98                	sw	a4,16(a5)
  201ade:	002107b7          	lui	a5,0x210
  201ae2:	1807b703          	ld	a4,384(a5) # 210180 <reqPoolPtr>
  201ae6:	fe446683          	lwu	a3,-28(s0)
  201aea:	03400793          	li	a5,52
  201aee:	02f687b3          	mul	a5,a3,a5
  201af2:	97ba                	add	a5,a5,a4
  201af4:	4b98                	lw	a4,16(a5)
  201af6:	00376713          	ori	a4,a4,3
  201afa:	cb98                	sw	a4,16(a5)
  201afc:	002107b7          	lui	a5,0x210
  201b00:	1807b703          	ld	a4,384(a5) # 210180 <reqPoolPtr>
  201b04:	fe446683          	lwu	a3,-28(s0)
  201b08:	03400793          	li	a5,52
  201b0c:	02f687b3          	mul	a5,a3,a5
  201b10:	97ba                	add	a5,a5,a4
  201b12:	4b98                	lw	a4,16(a5)
  201b14:	fbf77713          	andi	a4,a4,-65
  201b18:	cb98                	sw	a4,16(a5)
  201b1a:	002107b7          	lui	a5,0x210
  201b1e:	1807b703          	ld	a4,384(a5) # 210180 <reqPoolPtr>
  201b22:	fe446683          	lwu	a3,-28(s0)
  201b26:	03400793          	li	a5,52
  201b2a:	02f687b3          	mul	a5,a3,a5
  201b2e:	97ba                	add	a5,a5,a4
  201b30:	4b98                	lw	a4,16(a5)
  201b32:	08076713          	ori	a4,a4,128
  201b36:	cb98                	sw	a4,16(a5)
  201b38:	fe842783          	lw	a5,-24(s0)
  201b3c:	8bbd                	andi	a5,a5,15
  201b3e:	0ff7f793          	andi	a5,a5,255
  201b42:	00210737          	lui	a4,0x210
  201b46:	18073703          	ld	a4,384(a4) # 210180 <reqPoolPtr>
  201b4a:	8b9d                	andi	a5,a5,7
  201b4c:	0ff7f613          	andi	a2,a5,255
  201b50:	fe446683          	lwu	a3,-28(s0)
  201b54:	03400793          	li	a5,52
  201b58:	02f687b3          	mul	a5,a3,a5
  201b5c:	97ba                	add	a5,a5,a4
  201b5e:	8732                	mv	a4,a2
  201b60:	00f77613          	andi	a2,a4,15
  201b64:	53d8                	lw	a4,36(a5)
  201b66:	9b41                	andi	a4,a4,-16
  201b68:	86ba                	mv	a3,a4
  201b6a:	8732                	mv	a4,a2
  201b6c:	8f55                	or	a4,a4,a3
  201b6e:	d3d8                	sw	a4,36(a5)
  201b70:	fe842783          	lw	a5,-24(s0)
  201b74:	0037d79b          	srliw	a5,a5,0x3
  201b78:	0007869b          	sext.w	a3,a5
  201b7c:	002107b7          	lui	a5,0x210
  201b80:	1807b703          	ld	a4,384(a5) # 210180 <reqPoolPtr>
  201b84:	87b6                	mv	a5,a3
  201b86:	8bbd                	andi	a5,a5,15
  201b88:	0ff7f613          	andi	a2,a5,255
  201b8c:	fe446683          	lwu	a3,-28(s0)
  201b90:	03400793          	li	a5,52
  201b94:	02f687b3          	mul	a5,a3,a5
  201b98:	97ba                	add	a5,a5,a4
  201b9a:	8732                	mv	a4,a2
  201b9c:	8b3d                	andi	a4,a4,15
  201b9e:	0047171b          	slliw	a4,a4,0x4
  201ba2:	53d4                	lw	a3,36(a5)
  201ba4:	f0f6f693          	andi	a3,a3,-241
  201ba8:	8f55                	or	a4,a4,a3
  201baa:	d3d8                	sw	a4,36(a5)
  201bac:	002107b7          	lui	a5,0x210
  201bb0:	1807b683          	ld	a3,384(a5) # 210180 <reqPoolPtr>
  201bb4:	fec42783          	lw	a5,-20(s0)
  201bb8:	03079713          	slli	a4,a5,0x30
  201bbc:	9341                	srli	a4,a4,0x30
  201bbe:	fe446603          	lwu	a2,-28(s0)
  201bc2:	03400793          	li	a5,52
  201bc6:	02f607b3          	mul	a5,a2,a5
  201bca:	97b6                	add	a5,a5,a3
  201bcc:	0087171b          	slliw	a4,a4,0x8
  201bd0:	53d0                	lw	a2,36(a5)
  201bd2:	ff0006b7          	lui	a3,0xff000
  201bd6:	0ff68693          	addi	a3,a3,255 # ffffffffff0000ff <g_nvmeTask+0xfffffffffedefc97>
  201bda:	8ef1                	and	a3,a3,a2
  201bdc:	8f55                	or	a4,a4,a3
  201bde:	d3d8                	sw	a4,36(a5)
  201be0:	002107b7          	lui	a5,0x210
  201be4:	1807b703          	ld	a4,384(a5) # 210180 <reqPoolPtr>
  201be8:	fe446683          	lwu	a3,-28(s0)
  201bec:	03400793          	li	a5,52
  201bf0:	02f687b3          	mul	a5,a3,a5
  201bf4:	97ba                	add	a5,a5,a4
  201bf6:	02079423          	sh	zero,40(a5)
  201bfa:	fe442783          	lw	a5,-28(s0)
  201bfe:	4581                	li	a1,0
  201c00:	853e                	mv	a0,a5
  201c02:	045090ef          	jal	ra,20b446 <SelectLowLevelReqQ>
  201c06:	fe842783          	lw	a5,-24(s0)
  201c0a:	2785                	addiw	a5,a5,1
  201c0c:	fef42423          	sw	a5,-24(s0)
  201c10:	fe842783          	lw	a5,-24(s0)
  201c14:	0007871b          	sext.w	a4,a5
  201c18:	03f00793          	li	a5,63
  201c1c:	e4e7fee3          	bgeu	a5,a4,201a78 <EraseTotalBlockSpace+0x20>
  201c20:	fec42783          	lw	a5,-20(s0)
  201c24:	2785                	addiw	a5,a5,1
  201c26:	fef42623          	sw	a5,-20(s0)
  201c2a:	fec42783          	lw	a5,-20(s0)
  201c2e:	0007871b          	sext.w	a4,a5
  201c32:	6789                	lui	a5,0x2
  201c34:	0af78793          	addi	a5,a5,175 # 20af <start-0x1fdf51>
  201c38:	e2e7fde3          	bgeu	a5,a4,201a72 <EraseTotalBlockSpace+0x1a>
  201c3c:	0cb030ef          	jal	ra,205506 <SyncAllLowLevelReqDone>
  201c40:	0020f7b7          	lui	a5,0x20f
  201c44:	ee878513          	addi	a0,a5,-280 # 20eee8 <nvme_main+0x432>
  201c48:	171020ef          	jal	ra,2045b8 <cpl_print>
  201c4c:	0001                	nop
  201c4e:	60e2                	ld	ra,24(sp)
  201c50:	6442                	ld	s0,16(sp)
  201c52:	6105                	addi	sp,sp,32
  201c54:	8082                	ret

0000000000201c56 <EraseUserBlockSpace>:
  201c56:	1101                	addi	sp,sp,-32
  201c58:	ec06                	sd	ra,24(sp)
  201c5a:	e822                	sd	s0,16(sp)
  201c5c:	1000                	addi	s0,sp,32
  201c5e:	0020f7b7          	lui	a5,0x20f
  201c62:	ef078513          	addi	a0,a5,-272 # 20eef0 <nvme_main+0x43a>
  201c66:	153020ef          	jal	ra,2045b8 <cpl_print>
  201c6a:	fe042623          	sw	zero,-20(s0)
  201c6e:	aa91                	j	201dc2 <EraseUserBlockSpace+0x16c>
  201c70:	fe042423          	sw	zero,-24(s0)
  201c74:	aa15                	j	201da8 <EraseUserBlockSpace+0x152>
  201c76:	002107b7          	lui	a5,0x210
  201c7a:	f487b603          	ld	a2,-184(a5) # 20ff48 <virtualBlockMapPtr>
  201c7e:	fec46783          	lwu	a5,-20(s0)
  201c82:	fe846683          	lwu	a3,-24(s0)
  201c86:	873e                	mv	a4,a5
  201c88:	0706                	slli	a4,a4,0x1
  201c8a:	973e                	add	a4,a4,a5
  201c8c:	00271793          	slli	a5,a4,0x2
  201c90:	873e                	mv	a4,a5
  201c92:	87b6                	mv	a5,a3
  201c94:	0786                	slli	a5,a5,0x1
  201c96:	97b6                	add	a5,a5,a3
  201c98:	07be                	slli	a5,a5,0xf
  201c9a:	97ba                	add	a5,a5,a4
  201c9c:	97b2                	add	a5,a5,a2
  201c9e:	439c                	lw	a5,0(a5)
  201ca0:	8b85                	andi	a5,a5,1
  201ca2:	0ff7f793          	andi	a5,a5,255
  201ca6:	0e079c63          	bnez	a5,201d9e <EraseUserBlockSpace+0x148>
  201caa:	6b6010ef          	jal	ra,203360 <GetFromFreeReqQ>
  201cae:	87aa                	mv	a5,a0
  201cb0:	fef42223          	sw	a5,-28(s0)
  201cb4:	002107b7          	lui	a5,0x210
  201cb8:	1807b703          	ld	a4,384(a5) # 210180 <reqPoolPtr>
  201cbc:	fe446683          	lwu	a3,-28(s0)
  201cc0:	03400793          	li	a5,52
  201cc4:	02f687b3          	mul	a5,a3,a5
  201cc8:	97ba                	add	a5,a5,a4
  201cca:	4398                	lw	a4,0(a5)
  201ccc:	9b41                	andi	a4,a4,-16
  201cce:	00176713          	ori	a4,a4,1
  201cd2:	c398                	sw	a4,0(a5)
  201cd4:	002107b7          	lui	a5,0x210
  201cd8:	1807b703          	ld	a4,384(a5) # 210180 <reqPoolPtr>
  201cdc:	fe446683          	lwu	a3,-28(s0)
  201ce0:	03400793          	li	a5,52
  201ce4:	02f687b3          	mul	a5,a3,a5
  201ce8:	97ba                	add	a5,a5,a4
  201cea:	4731                	li	a4,12
  201cec:	00e780a3          	sb	a4,1(a5)
  201cf0:	002107b7          	lui	a5,0x210
  201cf4:	1807b703          	ld	a4,384(a5) # 210180 <reqPoolPtr>
  201cf8:	fe446683          	lwu	a3,-28(s0)
  201cfc:	03400793          	li	a5,52
  201d00:	02f687b3          	mul	a5,a3,a5
  201d04:	97ba                	add	a5,a5,a4
  201d06:	4b98                	lw	a4,16(a5)
  201d08:	9b4d                	andi	a4,a4,-13
  201d0a:	cb98                	sw	a4,16(a5)
  201d0c:	002107b7          	lui	a5,0x210
  201d10:	1807b703          	ld	a4,384(a5) # 210180 <reqPoolPtr>
  201d14:	fe446683          	lwu	a3,-28(s0)
  201d18:	03400793          	li	a5,52
  201d1c:	02f687b3          	mul	a5,a3,a5
  201d20:	97ba                	add	a5,a5,a4
  201d22:	4b98                	lw	a4,16(a5)
  201d24:	00376713          	ori	a4,a4,3
  201d28:	cb98                	sw	a4,16(a5)
  201d2a:	002107b7          	lui	a5,0x210
  201d2e:	1807b703          	ld	a4,384(a5) # 210180 <reqPoolPtr>
  201d32:	fe446683          	lwu	a3,-28(s0)
  201d36:	03400793          	li	a5,52
  201d3a:	02f687b3          	mul	a5,a3,a5
  201d3e:	97ba                	add	a5,a5,a4
  201d40:	4b98                	lw	a4,16(a5)
  201d42:	fbf77713          	andi	a4,a4,-65
  201d46:	cb98                	sw	a4,16(a5)
  201d48:	002107b7          	lui	a5,0x210
  201d4c:	1807b703          	ld	a4,384(a5) # 210180 <reqPoolPtr>
  201d50:	fe446683          	lwu	a3,-28(s0)
  201d54:	03400793          	li	a5,52
  201d58:	02f687b3          	mul	a5,a3,a5
  201d5c:	97ba                	add	a5,a5,a4
  201d5e:	4b98                	lw	a4,16(a5)
  201d60:	f7f77713          	andi	a4,a4,-129
  201d64:	cb98                	sw	a4,16(a5)
  201d66:	fec42783          	lw	a5,-20(s0)
  201d6a:	00d7979b          	slliw	a5,a5,0xd
  201d6e:	2781                	sext.w	a5,a5
  201d70:	00210737          	lui	a4,0x210
  201d74:	18073683          	ld	a3,384(a4) # 210180 <reqPoolPtr>
  201d78:	fe842703          	lw	a4,-24(s0)
  201d7c:	9fb9                	addw	a5,a5,a4
  201d7e:	0007871b          	sext.w	a4,a5
  201d82:	fe446603          	lwu	a2,-28(s0)
  201d86:	03400793          	li	a5,52
  201d8a:	02f607b3          	mul	a5,a2,a5
  201d8e:	97b6                	add	a5,a5,a3
  201d90:	d3d8                	sw	a4,36(a5)
  201d92:	fe442783          	lw	a5,-28(s0)
  201d96:	4581                	li	a1,0
  201d98:	853e                	mv	a0,a5
  201d9a:	6ac090ef          	jal	ra,20b446 <SelectLowLevelReqQ>
  201d9e:	fe842783          	lw	a5,-24(s0)
  201da2:	2785                	addiw	a5,a5,1
  201da4:	fef42423          	sw	a5,-24(s0)
  201da8:	fe842783          	lw	a5,-24(s0)
  201dac:	0007871b          	sext.w	a4,a5
  201db0:	03f00793          	li	a5,63
  201db4:	ece7f1e3          	bgeu	a5,a4,201c76 <EraseUserBlockSpace+0x20>
  201db8:	fec42783          	lw	a5,-20(s0)
  201dbc:	2785                	addiw	a5,a5,1
  201dbe:	fef42623          	sw	a5,-20(s0)
  201dc2:	fec42783          	lw	a5,-20(s0)
  201dc6:	0007871b          	sext.w	a4,a5
  201dca:	6789                	lui	a5,0x2
  201dcc:	eaf762e3          	bltu	a4,a5,201c70 <EraseUserBlockSpace+0x1a>
  201dd0:	736030ef          	jal	ra,205506 <SyncAllLowLevelReqDone>
  201dd4:	0020f7b7          	lui	a5,0x20f
  201dd8:	ee878513          	addi	a0,a5,-280 # 20eee8 <nvme_main+0x432>
  201ddc:	7dc020ef          	jal	ra,2045b8 <cpl_print>
  201de0:	0001                	nop
  201de2:	60e2                	ld	ra,24(sp)
  201de4:	6442                	ld	s0,16(sp)
  201de6:	6105                	addi	sp,sp,32
  201de8:	8082                	ret

0000000000201dea <InitBlockDieMap>:
  201dea:	1101                	addi	sp,sp,-32
  201dec:	ec06                	sd	ra,24(sp)
  201dee:	e822                	sd	s0,16(sp)
  201df0:	1000                	addi	s0,sp,32
  201df2:	4785                	li	a5,1
  201df4:	fef405a3          	sb	a5,-21(s0)
  201df8:	0020f7b7          	lui	a5,0x20f
  201dfc:	f2078513          	addi	a0,a5,-224 # 20ef20 <nvme_main+0x46a>
  201e00:	7b8020ef          	jal	ra,2045b8 <cpl_print>
  201e04:	88dfe0ef          	jal	ra,200690 <InitDieMap>
  201e08:	11144537          	lui	a0,0x11144
  201e0c:	9d9ff0ef          	jal	ra,2017e4 <RecoverBadBlockTable>
  201e10:	fe042623          	sw	zero,-20(s0)
  201e14:	a099                	j	201e5a <InitBlockDieMap+0x70>
  201e16:	002107b7          	lui	a5,0x210
  201e1a:	f607b703          	ld	a4,-160(a5) # 20ff60 <phyBlockMapPtr>
  201e1e:	002107b7          	lui	a5,0x210
  201e22:	f587b683          	ld	a3,-168(a5) # 20ff58 <bbtInfoMapPtr>
  201e26:	fec46783          	lwu	a5,-20(s0)
  201e2a:	078a                	slli	a5,a5,0x2
  201e2c:	97b6                	add	a5,a5,a3
  201e2e:	0007d783          	lhu	a5,0(a5)
  201e32:	2781                	sext.w	a5,a5
  201e34:	fec46603          	lwu	a2,-20(s0)
  201e38:	6689                	lui	a3,0x2
  201e3a:	0b068693          	addi	a3,a3,176 # 20b0 <start-0x1fdf50>
  201e3e:	02d606b3          	mul	a3,a2,a3
  201e42:	97b6                	add	a5,a5,a3
  201e44:	078a                	slli	a5,a5,0x2
  201e46:	97ba                	add	a5,a5,a4
  201e48:	4394                	lw	a3,0(a5)
  201e4a:	6741                	lui	a4,0x10
  201e4c:	8f55                	or	a4,a4,a3
  201e4e:	c398                	sw	a4,0(a5)
  201e50:	fec42783          	lw	a5,-20(s0)
  201e54:	2785                	addiw	a5,a5,1
  201e56:	fef42623          	sw	a5,-20(s0)
  201e5a:	fec42783          	lw	a5,-20(s0)
  201e5e:	0007871b          	sext.w	a4,a5
  201e62:	03f00793          	li	a5,63
  201e66:	fae7f8e3          	bgeu	a5,a4,201e16 <InitBlockDieMap+0x2c>
  201e6a:	bb2fe0ef          	jal	ra,20021c <RemapBadBlock>
  201e6e:	8a5fe0ef          	jal	ra,200712 <InitBlockMap>
  201e72:	feb44783          	lbu	a5,-21(s0)
  201e76:	0ff7f793          	andi	a5,a5,255
  201e7a:	c399                	beqz	a5,201e80 <InitBlockDieMap+0x96>
  201e7c:	ddbff0ef          	jal	ra,201c56 <EraseUserBlockSpace>
  201e80:	afbfe0ef          	jal	ra,20097a <InitCurrentBlockOfDieMap>
  201e84:	0001                	nop
  201e86:	60e2                	ld	ra,24(sp)
  201e88:	6442                	ld	s0,16(sp)
  201e8a:	6105                	addi	sp,sp,32
  201e8c:	8082                	ret

0000000000201e8e <AddrTransRead>:
  201e8e:	7179                	addi	sp,sp,-48
  201e90:	f406                	sd	ra,40(sp)
  201e92:	f022                	sd	s0,32(sp)
  201e94:	1800                	addi	s0,sp,48
  201e96:	87aa                	mv	a5,a0
  201e98:	fcf42e23          	sw	a5,-36(s0)
  201e9c:	fdc42783          	lw	a5,-36(s0)
  201ea0:	0007871b          	sext.w	a4,a5
  201ea4:	040007b7          	lui	a5,0x4000
  201ea8:	02f77963          	bgeu	a4,a5,201eda <AddrTransRead+0x4c>
  201eac:	002107b7          	lui	a5,0x210
  201eb0:	f387b703          	ld	a4,-200(a5) # 20ff38 <logicalSliceMapPtr>
  201eb4:	fdc46783          	lwu	a5,-36(s0)
  201eb8:	078a                	slli	a5,a5,0x2
  201eba:	97ba                	add	a5,a5,a4
  201ebc:	439c                	lw	a5,0(a5)
  201ebe:	fef42623          	sw	a5,-20(s0)
  201ec2:	fec42783          	lw	a5,-20(s0)
  201ec6:	0007871b          	sext.w	a4,a5
  201eca:	57fd                	li	a5,-1
  201ecc:	00f70563          	beq	a4,a5,201ed6 <AddrTransRead+0x48>
  201ed0:	fec42783          	lw	a5,-20(s0)
  201ed4:	a809                	j	201ee6 <AddrTransRead+0x58>
  201ed6:	57fd                	li	a5,-1
  201ed8:	a039                	j	201ee6 <AddrTransRead+0x58>
  201eda:	0020f7b7          	lui	a5,0x20f
  201ede:	f5078513          	addi	a0,a5,-176 # 20ef50 <nvme_main+0x49a>
  201ee2:	6d6020ef          	jal	ra,2045b8 <cpl_print>
  201ee6:	853e                	mv	a0,a5
  201ee8:	70a2                	ld	ra,40(sp)
  201eea:	7402                	ld	s0,32(sp)
  201eec:	6145                	addi	sp,sp,48
  201eee:	8082                	ret

0000000000201ef0 <AddrTransWrite>:
  201ef0:	7179                	addi	sp,sp,-48
  201ef2:	f406                	sd	ra,40(sp)
  201ef4:	f022                	sd	s0,32(sp)
  201ef6:	1800                	addi	s0,sp,48
  201ef8:	87aa                	mv	a5,a0
  201efa:	fcf42e23          	sw	a5,-36(s0)
  201efe:	fdc42783          	lw	a5,-36(s0)
  201f02:	0007871b          	sext.w	a4,a5
  201f06:	040007b7          	lui	a5,0x4000
  201f0a:	04f77563          	bgeu	a4,a5,201f54 <AddrTransWrite+0x64>
  201f0e:	fdc42783          	lw	a5,-36(s0)
  201f12:	853e                	mv	a0,a5
  201f14:	600000ef          	jal	ra,202514 <InvalidateOldVsa>
  201f18:	052000ef          	jal	ra,201f6a <FindFreeVirtualSlice>
  201f1c:	87aa                	mv	a5,a0
  201f1e:	fef42623          	sw	a5,-20(s0)
  201f22:	002107b7          	lui	a5,0x210
  201f26:	f387b703          	ld	a4,-200(a5) # 20ff38 <logicalSliceMapPtr>
  201f2a:	fdc46783          	lwu	a5,-36(s0)
  201f2e:	078a                	slli	a5,a5,0x2
  201f30:	97ba                	add	a5,a5,a4
  201f32:	fec42703          	lw	a4,-20(s0)
  201f36:	c398                	sw	a4,0(a5)
  201f38:	002107b7          	lui	a5,0x210
  201f3c:	f507b703          	ld	a4,-176(a5) # 20ff50 <virtualSliceMapPtr>
  201f40:	fec46783          	lwu	a5,-20(s0)
  201f44:	078a                	slli	a5,a5,0x2
  201f46:	97ba                	add	a5,a5,a4
  201f48:	fdc42703          	lw	a4,-36(s0)
  201f4c:	c398                	sw	a4,0(a5)
  201f4e:	fec42783          	lw	a5,-20(s0)
  201f52:	a039                	j	201f60 <AddrTransWrite+0x70>
  201f54:	0020f7b7          	lui	a5,0x20f
  201f58:	fb078513          	addi	a0,a5,-80 # 20efb0 <nvme_main+0x4fa>
  201f5c:	65c020ef          	jal	ra,2045b8 <cpl_print>
  201f60:	853e                	mv	a0,a5
  201f62:	70a2                	ld	ra,40(sp)
  201f64:	7402                	ld	s0,32(sp)
  201f66:	6145                	addi	sp,sp,48
  201f68:	8082                	ret

0000000000201f6a <FindFreeVirtualSlice>:
  201f6a:	1101                	addi	sp,sp,-32
  201f6c:	ec06                	sd	ra,24(sp)
  201f6e:	e822                	sd	s0,16(sp)
  201f70:	1000                	addi	s0,sp,32
  201f72:	002107b7          	lui	a5,0x210
  201f76:	f307c783          	lbu	a5,-208(a5) # 20ff30 <sliceAllocationTargetDie>
  201f7a:	fef42423          	sw	a5,-24(s0)
  201f7e:	002107b7          	lui	a5,0x210
  201f82:	f407b683          	ld	a3,-192(a5) # 20ff40 <virtualDieMapPtr>
  201f86:	fe846703          	lwu	a4,-24(s0)
  201f8a:	87ba                	mv	a5,a4
  201f8c:	0786                	slli	a5,a5,0x1
  201f8e:	97ba                	add	a5,a5,a4
  201f90:	078a                	slli	a5,a5,0x2
  201f92:	97b6                	add	a5,a5,a3
  201f94:	0007d783          	lhu	a5,0(a5)
  201f98:	fef42623          	sw	a5,-20(s0)
  201f9c:	002107b7          	lui	a5,0x210
  201fa0:	f487b603          	ld	a2,-184(a5) # 20ff48 <virtualBlockMapPtr>
  201fa4:	fec46783          	lwu	a5,-20(s0)
  201fa8:	fe846683          	lwu	a3,-24(s0)
  201fac:	873e                	mv	a4,a5
  201fae:	0706                	slli	a4,a4,0x1
  201fb0:	973e                	add	a4,a4,a5
  201fb2:	00271793          	slli	a5,a4,0x2
  201fb6:	873e                	mv	a4,a5
  201fb8:	87b6                	mv	a5,a3
  201fba:	0786                	slli	a5,a5,0x1
  201fbc:	97b6                	add	a5,a5,a3
  201fbe:	07be                	slli	a5,a5,0xf
  201fc0:	97ba                	add	a5,a5,a4
  201fc2:	97b2                	add	a5,a5,a2
  201fc4:	0047d783          	lhu	a5,4(a5)
  201fc8:	0007871b          	sext.w	a4,a5
  201fcc:	08000793          	li	a5,128
  201fd0:	14f71463          	bne	a4,a5,202118 <FindFreeVirtualSlice+0x1ae>
  201fd4:	fe842783          	lw	a5,-24(s0)
  201fd8:	4581                	li	a1,0
  201fda:	853e                	mv	a0,a5
  201fdc:	333000ef          	jal	ra,202b0e <GetFromFbList>
  201fe0:	87aa                	mv	a5,a0
  201fe2:	fef42623          	sw	a5,-20(s0)
  201fe6:	fec42783          	lw	a5,-20(s0)
  201fea:	0007871b          	sext.w	a4,a5
  201fee:	67c1                	lui	a5,0x10
  201ff0:	17fd                	addi	a5,a5,-1
  201ff2:	02f70563          	beq	a4,a5,20201c <FindFreeVirtualSlice+0xb2>
  201ff6:	002107b7          	lui	a5,0x210
  201ffa:	f407b603          	ld	a2,-192(a5) # 20ff40 <virtualDieMapPtr>
  201ffe:	fec42783          	lw	a5,-20(s0)
  202002:	03079693          	slli	a3,a5,0x30
  202006:	92c1                	srli	a3,a3,0x30
  202008:	fe846703          	lwu	a4,-24(s0)
  20200c:	87ba                	mv	a5,a4
  20200e:	0786                	slli	a5,a5,0x1
  202010:	97ba                	add	a5,a5,a4
  202012:	078a                	slli	a5,a5,0x2
  202014:	97b2                	add	a5,a5,a2
  202016:	00d79023          	sh	a3,0(a5)
  20201a:	a289                	j	20215c <FindFreeVirtualSlice+0x1f2>
  20201c:	fe842783          	lw	a5,-24(s0)
  202020:	853e                	mv	a0,a5
  202022:	0d80a0ef          	jal	ra,20c0fa <GarbageCollection>
  202026:	002107b7          	lui	a5,0x210
  20202a:	f407b683          	ld	a3,-192(a5) # 20ff40 <virtualDieMapPtr>
  20202e:	fe846703          	lwu	a4,-24(s0)
  202032:	87ba                	mv	a5,a4
  202034:	0786                	slli	a5,a5,0x1
  202036:	97ba                	add	a5,a5,a4
  202038:	078a                	slli	a5,a5,0x2
  20203a:	97b6                	add	a5,a5,a3
  20203c:	0007d783          	lhu	a5,0(a5)
  202040:	fef42623          	sw	a5,-20(s0)
  202044:	002107b7          	lui	a5,0x210
  202048:	f487b603          	ld	a2,-184(a5) # 20ff48 <virtualBlockMapPtr>
  20204c:	fec46783          	lwu	a5,-20(s0)
  202050:	fe846683          	lwu	a3,-24(s0)
  202054:	873e                	mv	a4,a5
  202056:	0706                	slli	a4,a4,0x1
  202058:	973e                	add	a4,a4,a5
  20205a:	00271793          	slli	a5,a4,0x2
  20205e:	873e                	mv	a4,a5
  202060:	87b6                	mv	a5,a3
  202062:	0786                	slli	a5,a5,0x1
  202064:	97b6                	add	a5,a5,a3
  202066:	07be                	slli	a5,a5,0xf
  202068:	97ba                	add	a5,a5,a4
  20206a:	97b2                	add	a5,a5,a2
  20206c:	0047d783          	lhu	a5,4(a5)
  202070:	0007871b          	sext.w	a4,a5
  202074:	08000793          	li	a5,128
  202078:	04f71d63          	bne	a4,a5,2020d2 <FindFreeVirtualSlice+0x168>
  20207c:	fe842783          	lw	a5,-24(s0)
  202080:	4581                	li	a1,0
  202082:	853e                	mv	a0,a5
  202084:	28b000ef          	jal	ra,202b0e <GetFromFbList>
  202088:	87aa                	mv	a5,a0
  20208a:	fef42623          	sw	a5,-20(s0)
  20208e:	fec42783          	lw	a5,-20(s0)
  202092:	0007871b          	sext.w	a4,a5
  202096:	67c1                	lui	a5,0x10
  202098:	17fd                	addi	a5,a5,-1
  20209a:	02f70563          	beq	a4,a5,2020c4 <FindFreeVirtualSlice+0x15a>
  20209e:	002107b7          	lui	a5,0x210
  2020a2:	f407b603          	ld	a2,-192(a5) # 20ff40 <virtualDieMapPtr>
  2020a6:	fec42783          	lw	a5,-20(s0)
  2020aa:	03079693          	slli	a3,a5,0x30
  2020ae:	92c1                	srli	a3,a3,0x30
  2020b0:	fe846703          	lwu	a4,-24(s0)
  2020b4:	87ba                	mv	a5,a4
  2020b6:	0786                	slli	a5,a5,0x1
  2020b8:	97ba                	add	a5,a5,a4
  2020ba:	078a                	slli	a5,a5,0x2
  2020bc:	97b2                	add	a5,a5,a2
  2020be:	00d79023          	sh	a3,0(a5)
  2020c2:	a869                	j	20215c <FindFreeVirtualSlice+0x1f2>
  2020c4:	0020f7b7          	lui	a5,0x20f
  2020c8:	01078513          	addi	a0,a5,16 # 20f010 <nvme_main+0x55a>
  2020cc:	4ec020ef          	jal	ra,2045b8 <cpl_print>
  2020d0:	a071                	j	20215c <FindFreeVirtualSlice+0x1f2>
  2020d2:	002107b7          	lui	a5,0x210
  2020d6:	f487b603          	ld	a2,-184(a5) # 20ff48 <virtualBlockMapPtr>
  2020da:	fec46783          	lwu	a5,-20(s0)
  2020de:	fe846683          	lwu	a3,-24(s0)
  2020e2:	873e                	mv	a4,a5
  2020e4:	0706                	slli	a4,a4,0x1
  2020e6:	973e                	add	a4,a4,a5
  2020e8:	00271793          	slli	a5,a4,0x2
  2020ec:	873e                	mv	a4,a5
  2020ee:	87b6                	mv	a5,a3
  2020f0:	0786                	slli	a5,a5,0x1
  2020f2:	97b6                	add	a5,a5,a3
  2020f4:	07be                	slli	a5,a5,0xf
  2020f6:	97ba                	add	a5,a5,a4
  2020f8:	97b2                	add	a5,a5,a2
  2020fa:	0047d783          	lhu	a5,4(a5)
  2020fe:	0007871b          	sext.w	a4,a5
  202102:	08000793          	li	a5,128
  202106:	04e7fb63          	bgeu	a5,a4,20215c <FindFreeVirtualSlice+0x1f2>
  20210a:	0020f7b7          	lui	a5,0x20f
  20210e:	04878513          	addi	a0,a5,72 # 20f048 <nvme_main+0x592>
  202112:	4a6020ef          	jal	ra,2045b8 <cpl_print>
  202116:	a099                	j	20215c <FindFreeVirtualSlice+0x1f2>
  202118:	002107b7          	lui	a5,0x210
  20211c:	f487b603          	ld	a2,-184(a5) # 20ff48 <virtualBlockMapPtr>
  202120:	fec46783          	lwu	a5,-20(s0)
  202124:	fe846683          	lwu	a3,-24(s0)
  202128:	873e                	mv	a4,a5
  20212a:	0706                	slli	a4,a4,0x1
  20212c:	973e                	add	a4,a4,a5
  20212e:	00271793          	slli	a5,a4,0x2
  202132:	873e                	mv	a4,a5
  202134:	87b6                	mv	a5,a3
  202136:	0786                	slli	a5,a5,0x1
  202138:	97b6                	add	a5,a5,a3
  20213a:	07be                	slli	a5,a5,0xf
  20213c:	97ba                	add	a5,a5,a4
  20213e:	97b2                	add	a5,a5,a2
  202140:	0047d783          	lhu	a5,4(a5)
  202144:	0007871b          	sext.w	a4,a5
  202148:	08000793          	li	a5,128
  20214c:	00e7f863          	bgeu	a5,a4,20215c <FindFreeVirtualSlice+0x1f2>
  202150:	0020f7b7          	lui	a5,0x20f
  202154:	04878513          	addi	a0,a5,72 # 20f048 <nvme_main+0x592>
  202158:	460020ef          	jal	ra,2045b8 <cpl_print>
  20215c:	fec42783          	lw	a5,-20(s0)
  202160:	0077979b          	slliw	a5,a5,0x7
  202164:	0007861b          	sext.w	a2,a5
  202168:	002107b7          	lui	a5,0x210
  20216c:	f487b583          	ld	a1,-184(a5) # 20ff48 <virtualBlockMapPtr>
  202170:	fec46783          	lwu	a5,-20(s0)
  202174:	fe846683          	lwu	a3,-24(s0)
  202178:	873e                	mv	a4,a5
  20217a:	0706                	slli	a4,a4,0x1
  20217c:	973e                	add	a4,a4,a5
  20217e:	00271793          	slli	a5,a4,0x2
  202182:	873e                	mv	a4,a5
  202184:	87b6                	mv	a5,a3
  202186:	0786                	slli	a5,a5,0x1
  202188:	97b6                	add	a5,a5,a3
  20218a:	07be                	slli	a5,a5,0xf
  20218c:	97ba                	add	a5,a5,a4
  20218e:	97ae                	add	a5,a5,a1
  202190:	0047d783          	lhu	a5,4(a5)
  202194:	2781                	sext.w	a5,a5
  202196:	9fb1                	addw	a5,a5,a2
  202198:	2781                	sext.w	a5,a5
  20219a:	0067979b          	slliw	a5,a5,0x6
  20219e:	2781                	sext.w	a5,a5
  2021a0:	fe842703          	lw	a4,-24(s0)
  2021a4:	9fb9                	addw	a5,a5,a4
  2021a6:	fef42223          	sw	a5,-28(s0)
  2021aa:	002107b7          	lui	a5,0x210
  2021ae:	f487b683          	ld	a3,-184(a5) # 20ff48 <virtualBlockMapPtr>
  2021b2:	fec46783          	lwu	a5,-20(s0)
  2021b6:	fe846603          	lwu	a2,-24(s0)
  2021ba:	873e                	mv	a4,a5
  2021bc:	0706                	slli	a4,a4,0x1
  2021be:	973e                	add	a4,a4,a5
  2021c0:	00271793          	slli	a5,a4,0x2
  2021c4:	873e                	mv	a4,a5
  2021c6:	87b2                	mv	a5,a2
  2021c8:	0786                	slli	a5,a5,0x1
  2021ca:	97b2                	add	a5,a5,a2
  2021cc:	07be                	slli	a5,a5,0xf
  2021ce:	97ba                	add	a5,a5,a4
  2021d0:	97b6                	add	a5,a5,a3
  2021d2:	0047d783          	lhu	a5,4(a5)
  2021d6:	2785                	addiw	a5,a5,1
  2021d8:	03079593          	slli	a1,a5,0x30
  2021dc:	91c1                	srli	a1,a1,0x30
  2021de:	fec46783          	lwu	a5,-20(s0)
  2021e2:	fe846603          	lwu	a2,-24(s0)
  2021e6:	873e                	mv	a4,a5
  2021e8:	0706                	slli	a4,a4,0x1
  2021ea:	973e                	add	a4,a4,a5
  2021ec:	00271793          	slli	a5,a4,0x2
  2021f0:	873e                	mv	a4,a5
  2021f2:	87b2                	mv	a5,a2
  2021f4:	0786                	slli	a5,a5,0x1
  2021f6:	97b2                	add	a5,a5,a2
  2021f8:	07be                	slli	a5,a5,0xf
  2021fa:	97ba                	add	a5,a5,a4
  2021fc:	97b6                	add	a5,a5,a3
  2021fe:	00b79223          	sh	a1,4(a5)
  202202:	27e000ef          	jal	ra,202480 <FindDieForFreeSliceAllocation>
  202206:	87aa                	mv	a5,a0
  202208:	2781                	sext.w	a5,a5
  20220a:	0ff7f713          	andi	a4,a5,255
  20220e:	002107b7          	lui	a5,0x210
  202212:	f2e78823          	sb	a4,-208(a5) # 20ff30 <sliceAllocationTargetDie>
  202216:	002107b7          	lui	a5,0x210
  20221a:	f307c783          	lbu	a5,-208(a5) # 20ff30 <sliceAllocationTargetDie>
  20221e:	fef42423          	sw	a5,-24(s0)
  202222:	fe442783          	lw	a5,-28(s0)
  202226:	853e                	mv	a0,a5
  202228:	60e2                	ld	ra,24(sp)
  20222a:	6442                	ld	s0,16(sp)
  20222c:	6105                	addi	sp,sp,32
  20222e:	8082                	ret

0000000000202230 <FindFreeVirtualSliceForGc>:
  202230:	7179                	addi	sp,sp,-48
  202232:	f406                	sd	ra,40(sp)
  202234:	f022                	sd	s0,32(sp)
  202236:	1800                	addi	s0,sp,48
  202238:	87aa                	mv	a5,a0
  20223a:	872e                	mv	a4,a1
  20223c:	fcf42e23          	sw	a5,-36(s0)
  202240:	87ba                	mv	a5,a4
  202242:	fcf42c23          	sw	a5,-40(s0)
  202246:	fdc42783          	lw	a5,-36(s0)
  20224a:	fef42423          	sw	a5,-24(s0)
  20224e:	002107b7          	lui	a5,0x210
  202252:	f407b683          	ld	a3,-192(a5) # 20ff40 <virtualDieMapPtr>
  202256:	fe846703          	lwu	a4,-24(s0)
  20225a:	87ba                	mv	a5,a4
  20225c:	0786                	slli	a5,a5,0x1
  20225e:	97ba                	add	a5,a5,a4
  202260:	078a                	slli	a5,a5,0x2
  202262:	97b6                	add	a5,a5,a3
  202264:	0007d783          	lhu	a5,0(a5)
  202268:	0007871b          	sext.w	a4,a5
  20226c:	fd842783          	lw	a5,-40(s0)
  202270:	2781                	sext.w	a5,a5
  202272:	06e79563          	bne	a5,a4,2022dc <FindFreeVirtualSliceForGc+0xac>
  202276:	fe842783          	lw	a5,-24(s0)
  20227a:	4585                	li	a1,1
  20227c:	853e                	mv	a0,a5
  20227e:	091000ef          	jal	ra,202b0e <GetFromFbList>
  202282:	87aa                	mv	a5,a0
  202284:	0007871b          	sext.w	a4,a5
  202288:	002107b7          	lui	a5,0x210
  20228c:	f407b603          	ld	a2,-192(a5) # 20ff40 <virtualDieMapPtr>
  202290:	87ba                	mv	a5,a4
  202292:	03079693          	slli	a3,a5,0x30
  202296:	92c1                	srli	a3,a3,0x30
  202298:	fe846703          	lwu	a4,-24(s0)
  20229c:	87ba                	mv	a5,a4
  20229e:	0786                	slli	a5,a5,0x1
  2022a0:	97ba                	add	a5,a5,a4
  2022a2:	078a                	slli	a5,a5,0x2
  2022a4:	97b2                	add	a5,a5,a2
  2022a6:	00d79023          	sh	a3,0(a5)
  2022aa:	002107b7          	lui	a5,0x210
  2022ae:	f407b683          	ld	a3,-192(a5) # 20ff40 <virtualDieMapPtr>
  2022b2:	fe846703          	lwu	a4,-24(s0)
  2022b6:	87ba                	mv	a5,a4
  2022b8:	0786                	slli	a5,a5,0x1
  2022ba:	97ba                	add	a5,a5,a4
  2022bc:	078a                	slli	a5,a5,0x2
  2022be:	97b6                	add	a5,a5,a3
  2022c0:	0007d783          	lhu	a5,0(a5)
  2022c4:	0007871b          	sext.w	a4,a5
  2022c8:	67c1                	lui	a5,0x10
  2022ca:	17fd                	addi	a5,a5,-1
  2022cc:	00f71863          	bne	a4,a5,2022dc <FindFreeVirtualSliceForGc+0xac>
  2022d0:	0020f7b7          	lui	a5,0x20f
  2022d4:	08078513          	addi	a0,a5,128 # 20f080 <nvme_main+0x5ca>
  2022d8:	2e0020ef          	jal	ra,2045b8 <cpl_print>
  2022dc:	002107b7          	lui	a5,0x210
  2022e0:	f407b683          	ld	a3,-192(a5) # 20ff40 <virtualDieMapPtr>
  2022e4:	fe846703          	lwu	a4,-24(s0)
  2022e8:	87ba                	mv	a5,a4
  2022ea:	0786                	slli	a5,a5,0x1
  2022ec:	97ba                	add	a5,a5,a4
  2022ee:	078a                	slli	a5,a5,0x2
  2022f0:	97b6                	add	a5,a5,a3
  2022f2:	0007d783          	lhu	a5,0(a5)
  2022f6:	fef42623          	sw	a5,-20(s0)
  2022fa:	002107b7          	lui	a5,0x210
  2022fe:	f487b603          	ld	a2,-184(a5) # 20ff48 <virtualBlockMapPtr>
  202302:	fec46783          	lwu	a5,-20(s0)
  202306:	fe846683          	lwu	a3,-24(s0)
  20230a:	873e                	mv	a4,a5
  20230c:	0706                	slli	a4,a4,0x1
  20230e:	973e                	add	a4,a4,a5
  202310:	00271793          	slli	a5,a4,0x2
  202314:	873e                	mv	a4,a5
  202316:	87b6                	mv	a5,a3
  202318:	0786                	slli	a5,a5,0x1
  20231a:	97b6                	add	a5,a5,a3
  20231c:	07be                	slli	a5,a5,0xf
  20231e:	97ba                	add	a5,a5,a4
  202320:	97b2                	add	a5,a5,a2
  202322:	0047d783          	lhu	a5,4(a5)
  202326:	0007871b          	sext.w	a4,a5
  20232a:	08000793          	li	a5,128
  20232e:	04f71d63          	bne	a4,a5,202388 <FindFreeVirtualSliceForGc+0x158>
  202332:	fe842783          	lw	a5,-24(s0)
  202336:	4585                	li	a1,1
  202338:	853e                	mv	a0,a5
  20233a:	7d4000ef          	jal	ra,202b0e <GetFromFbList>
  20233e:	87aa                	mv	a5,a0
  202340:	fef42623          	sw	a5,-20(s0)
  202344:	fec42783          	lw	a5,-20(s0)
  202348:	0007871b          	sext.w	a4,a5
  20234c:	67c1                	lui	a5,0x10
  20234e:	17fd                	addi	a5,a5,-1
  202350:	02f70563          	beq	a4,a5,20237a <FindFreeVirtualSliceForGc+0x14a>
  202354:	002107b7          	lui	a5,0x210
  202358:	f407b603          	ld	a2,-192(a5) # 20ff40 <virtualDieMapPtr>
  20235c:	fec42783          	lw	a5,-20(s0)
  202360:	03079693          	slli	a3,a5,0x30
  202364:	92c1                	srli	a3,a3,0x30
  202366:	fe846703          	lwu	a4,-24(s0)
  20236a:	87ba                	mv	a5,a4
  20236c:	0786                	slli	a5,a5,0x1
  20236e:	97ba                	add	a5,a5,a4
  202370:	078a                	slli	a5,a5,0x2
  202372:	97b2                	add	a5,a5,a2
  202374:	00d79023          	sh	a3,0(a5)
  202378:	a891                	j	2023cc <FindFreeVirtualSliceForGc+0x19c>
  20237a:	0020f7b7          	lui	a5,0x20f
  20237e:	08078513          	addi	a0,a5,128 # 20f080 <nvme_main+0x5ca>
  202382:	236020ef          	jal	ra,2045b8 <cpl_print>
  202386:	a099                	j	2023cc <FindFreeVirtualSliceForGc+0x19c>
  202388:	002107b7          	lui	a5,0x210
  20238c:	f487b603          	ld	a2,-184(a5) # 20ff48 <virtualBlockMapPtr>
  202390:	fec46783          	lwu	a5,-20(s0)
  202394:	fe846683          	lwu	a3,-24(s0)
  202398:	873e                	mv	a4,a5
  20239a:	0706                	slli	a4,a4,0x1
  20239c:	973e                	add	a4,a4,a5
  20239e:	00271793          	slli	a5,a4,0x2
  2023a2:	873e                	mv	a4,a5
  2023a4:	87b6                	mv	a5,a3
  2023a6:	0786                	slli	a5,a5,0x1
  2023a8:	97b6                	add	a5,a5,a3
  2023aa:	07be                	slli	a5,a5,0xf
  2023ac:	97ba                	add	a5,a5,a4
  2023ae:	97b2                	add	a5,a5,a2
  2023b0:	0047d783          	lhu	a5,4(a5)
  2023b4:	0007871b          	sext.w	a4,a5
  2023b8:	08000793          	li	a5,128
  2023bc:	00e7f863          	bgeu	a5,a4,2023cc <FindFreeVirtualSliceForGc+0x19c>
  2023c0:	0020f7b7          	lui	a5,0x20f
  2023c4:	0b078513          	addi	a0,a5,176 # 20f0b0 <nvme_main+0x5fa>
  2023c8:	1f0020ef          	jal	ra,2045b8 <cpl_print>
  2023cc:	fec42783          	lw	a5,-20(s0)
  2023d0:	0077979b          	slliw	a5,a5,0x7
  2023d4:	0007861b          	sext.w	a2,a5
  2023d8:	002107b7          	lui	a5,0x210
  2023dc:	f487b583          	ld	a1,-184(a5) # 20ff48 <virtualBlockMapPtr>
  2023e0:	fec46783          	lwu	a5,-20(s0)
  2023e4:	fe846683          	lwu	a3,-24(s0)
  2023e8:	873e                	mv	a4,a5
  2023ea:	0706                	slli	a4,a4,0x1
  2023ec:	973e                	add	a4,a4,a5
  2023ee:	00271793          	slli	a5,a4,0x2
  2023f2:	873e                	mv	a4,a5
  2023f4:	87b6                	mv	a5,a3
  2023f6:	0786                	slli	a5,a5,0x1
  2023f8:	97b6                	add	a5,a5,a3
  2023fa:	07be                	slli	a5,a5,0xf
  2023fc:	97ba                	add	a5,a5,a4
  2023fe:	97ae                	add	a5,a5,a1
  202400:	0047d783          	lhu	a5,4(a5)
  202404:	2781                	sext.w	a5,a5
  202406:	9fb1                	addw	a5,a5,a2
  202408:	2781                	sext.w	a5,a5
  20240a:	0067979b          	slliw	a5,a5,0x6
  20240e:	2781                	sext.w	a5,a5
  202410:	fe842703          	lw	a4,-24(s0)
  202414:	9fb9                	addw	a5,a5,a4
  202416:	fef42223          	sw	a5,-28(s0)
  20241a:	002107b7          	lui	a5,0x210
  20241e:	f487b683          	ld	a3,-184(a5) # 20ff48 <virtualBlockMapPtr>
  202422:	fec46783          	lwu	a5,-20(s0)
  202426:	fe846603          	lwu	a2,-24(s0)
  20242a:	873e                	mv	a4,a5
  20242c:	0706                	slli	a4,a4,0x1
  20242e:	973e                	add	a4,a4,a5
  202430:	00271793          	slli	a5,a4,0x2
  202434:	873e                	mv	a4,a5
  202436:	87b2                	mv	a5,a2
  202438:	0786                	slli	a5,a5,0x1
  20243a:	97b2                	add	a5,a5,a2
  20243c:	07be                	slli	a5,a5,0xf
  20243e:	97ba                	add	a5,a5,a4
  202440:	97b6                	add	a5,a5,a3
  202442:	0047d783          	lhu	a5,4(a5)
  202446:	2785                	addiw	a5,a5,1
  202448:	03079593          	slli	a1,a5,0x30
  20244c:	91c1                	srli	a1,a1,0x30
  20244e:	fec46783          	lwu	a5,-20(s0)
  202452:	fe846603          	lwu	a2,-24(s0)
  202456:	873e                	mv	a4,a5
  202458:	0706                	slli	a4,a4,0x1
  20245a:	973e                	add	a4,a4,a5
  20245c:	00271793          	slli	a5,a4,0x2
  202460:	873e                	mv	a4,a5
  202462:	87b2                	mv	a5,a2
  202464:	0786                	slli	a5,a5,0x1
  202466:	97b2                	add	a5,a5,a2
  202468:	07be                	slli	a5,a5,0xf
  20246a:	97ba                	add	a5,a5,a4
  20246c:	97b6                	add	a5,a5,a3
  20246e:	00b79223          	sh	a1,4(a5)
  202472:	fe442783          	lw	a5,-28(s0)
  202476:	853e                	mv	a0,a5
  202478:	70a2                	ld	ra,40(sp)
  20247a:	7402                	ld	s0,32(sp)
  20247c:	6145                	addi	sp,sp,48
  20247e:	8082                	ret

0000000000202480 <FindDieForFreeSliceAllocation>:
  202480:	1101                	addi	sp,sp,-32
  202482:	ec22                	sd	s0,24(sp)
  202484:	1000                	addi	s0,sp,32
  202486:	002107b7          	lui	a5,0x210
  20248a:	f287c783          	lbu	a5,-216(a5) # 20ff28 <__bss_start>
  20248e:	0007871b          	sext.w	a4,a5
  202492:	002107b7          	lui	a5,0x210
  202496:	f297c783          	lbu	a5,-215(a5) # 20ff29 <targetWay.2888>
  20249a:	2781                	sext.w	a5,a5
  20249c:	0037979b          	slliw	a5,a5,0x3
  2024a0:	2781                	sext.w	a5,a5
  2024a2:	9fb9                	addw	a5,a5,a4
  2024a4:	2781                	sext.w	a5,a5
  2024a6:	fef42623          	sw	a5,-20(s0)
  2024aa:	002107b7          	lui	a5,0x210
  2024ae:	f287c783          	lbu	a5,-216(a5) # 20ff28 <__bss_start>
  2024b2:	873e                	mv	a4,a5
  2024b4:	479d                	li	a5,7
  2024b6:	00f70e63          	beq	a4,a5,2024d2 <FindDieForFreeSliceAllocation+0x52>
  2024ba:	002107b7          	lui	a5,0x210
  2024be:	f287c783          	lbu	a5,-216(a5) # 20ff28 <__bss_start>
  2024c2:	2785                	addiw	a5,a5,1
  2024c4:	0ff7f713          	andi	a4,a5,255
  2024c8:	002107b7          	lui	a5,0x210
  2024cc:	f2e78423          	sb	a4,-216(a5) # 20ff28 <__bss_start>
  2024d0:	a825                	j	202508 <FindDieForFreeSliceAllocation+0x88>
  2024d2:	002107b7          	lui	a5,0x210
  2024d6:	f2078423          	sb	zero,-216(a5) # 20ff28 <__bss_start>
  2024da:	002107b7          	lui	a5,0x210
  2024de:	f297c783          	lbu	a5,-215(a5) # 20ff29 <targetWay.2888>
  2024e2:	2781                	sext.w	a5,a5
  2024e4:	2785                	addiw	a5,a5,1
  2024e6:	2781                	sext.w	a5,a5
  2024e8:	873e                	mv	a4,a5
  2024ea:	41f7579b          	sraiw	a5,a4,0x1f
  2024ee:	01d7d79b          	srliw	a5,a5,0x1d
  2024f2:	9f3d                	addw	a4,a4,a5
  2024f4:	8b1d                	andi	a4,a4,7
  2024f6:	40f707bb          	subw	a5,a4,a5
  2024fa:	2781                	sext.w	a5,a5
  2024fc:	0ff7f713          	andi	a4,a5,255
  202500:	002107b7          	lui	a5,0x210
  202504:	f2e784a3          	sb	a4,-215(a5) # 20ff29 <targetWay.2888>
  202508:	fec42783          	lw	a5,-20(s0)
  20250c:	853e                	mv	a0,a5
  20250e:	6462                	ld	s0,24(sp)
  202510:	6105                	addi	sp,sp,32
  202512:	8082                	ret

0000000000202514 <InvalidateOldVsa>:
  202514:	7179                	addi	sp,sp,-48
  202516:	f406                	sd	ra,40(sp)
  202518:	f022                	sd	s0,32(sp)
  20251a:	1800                	addi	s0,sp,48
  20251c:	87aa                	mv	a5,a0
  20251e:	fcf42e23          	sw	a5,-36(s0)
  202522:	002107b7          	lui	a5,0x210
  202526:	f387b703          	ld	a4,-200(a5) # 20ff38 <logicalSliceMapPtr>
  20252a:	fdc46783          	lwu	a5,-36(s0)
  20252e:	078a                	slli	a5,a5,0x2
  202530:	97ba                	add	a5,a5,a4
  202532:	439c                	lw	a5,0(a5)
  202534:	fef42623          	sw	a5,-20(s0)
  202538:	fec42783          	lw	a5,-20(s0)
  20253c:	0007871b          	sext.w	a4,a5
  202540:	57fd                	li	a5,-1
  202542:	10f70c63          	beq	a4,a5,20265a <InvalidateOldVsa+0x146>
  202546:	002107b7          	lui	a5,0x210
  20254a:	f507b703          	ld	a4,-176(a5) # 20ff50 <virtualSliceMapPtr>
  20254e:	fec46783          	lwu	a5,-20(s0)
  202552:	078a                	slli	a5,a5,0x2
  202554:	97ba                	add	a5,a5,a4
  202556:	4398                	lw	a4,0(a5)
  202558:	fdc42783          	lw	a5,-36(s0)
  20255c:	2781                	sext.w	a5,a5
  20255e:	0ee79d63          	bne	a5,a4,202658 <InvalidateOldVsa+0x144>
  202562:	fec42783          	lw	a5,-20(s0)
  202566:	03f7f793          	andi	a5,a5,63
  20256a:	fef42423          	sw	a5,-24(s0)
  20256e:	fec42783          	lw	a5,-20(s0)
  202572:	00d7d79b          	srliw	a5,a5,0xd
  202576:	fef42223          	sw	a5,-28(s0)
  20257a:	fe442703          	lw	a4,-28(s0)
  20257e:	fe842783          	lw	a5,-24(s0)
  202582:	85ba                	mv	a1,a4
  202584:	853e                	mv	a0,a5
  202586:	553090ef          	jal	ra,20c2d8 <SelectiveGetFromGcVictimList>
  20258a:	002107b7          	lui	a5,0x210
  20258e:	f487b683          	ld	a3,-184(a5) # 20ff48 <virtualBlockMapPtr>
  202592:	fe446783          	lwu	a5,-28(s0)
  202596:	fe846603          	lwu	a2,-24(s0)
  20259a:	873e                	mv	a4,a5
  20259c:	0706                	slli	a4,a4,0x1
  20259e:	973e                	add	a4,a4,a5
  2025a0:	00271793          	slli	a5,a4,0x2
  2025a4:	873e                	mv	a4,a5
  2025a6:	87b2                	mv	a5,a2
  2025a8:	0786                	slli	a5,a5,0x1
  2025aa:	97b2                	add	a5,a5,a2
  2025ac:	07be                	slli	a5,a5,0xf
  2025ae:	97ba                	add	a5,a5,a4
  2025b0:	97b6                	add	a5,a5,a3
  2025b2:	439c                	lw	a5,0(a5)
  2025b4:	0027d79b          	srliw	a5,a5,0x2
  2025b8:	9bfd                	andi	a5,a5,-1
  2025ba:	17c2                	slli	a5,a5,0x30
  2025bc:	93c1                	srli	a5,a5,0x30
  2025be:	2785                	addiw	a5,a5,1
  2025c0:	03079593          	slli	a1,a5,0x30
  2025c4:	91c1                	srli	a1,a1,0x30
  2025c6:	fe446783          	lwu	a5,-28(s0)
  2025ca:	fe846603          	lwu	a2,-24(s0)
  2025ce:	873e                	mv	a4,a5
  2025d0:	0706                	slli	a4,a4,0x1
  2025d2:	973e                	add	a4,a4,a5
  2025d4:	00271793          	slli	a5,a4,0x2
  2025d8:	873e                	mv	a4,a5
  2025da:	87b2                	mv	a5,a2
  2025dc:	0786                	slli	a5,a5,0x1
  2025de:	97b2                	add	a5,a5,a2
  2025e0:	07be                	slli	a5,a5,0xf
  2025e2:	97ba                	add	a5,a5,a4
  2025e4:	97b6                	add	a5,a5,a3
  2025e6:	0025971b          	slliw	a4,a1,0x2
  2025ea:	4390                	lw	a2,0(a5)
  2025ec:	fffc06b7          	lui	a3,0xfffc0
  2025f0:	068d                	addi	a3,a3,3
  2025f2:	8ef1                	and	a3,a3,a2
  2025f4:	8f55                	or	a4,a4,a3
  2025f6:	c398                	sw	a4,0(a5)
  2025f8:	002107b7          	lui	a5,0x210
  2025fc:	f387b703          	ld	a4,-200(a5) # 20ff38 <logicalSliceMapPtr>
  202600:	fdc46783          	lwu	a5,-36(s0)
  202604:	078a                	slli	a5,a5,0x2
  202606:	97ba                	add	a5,a5,a4
  202608:	577d                	li	a4,-1
  20260a:	c398                	sw	a4,0(a5)
  20260c:	002107b7          	lui	a5,0x210
  202610:	f487b603          	ld	a2,-184(a5) # 20ff48 <virtualBlockMapPtr>
  202614:	fe446783          	lwu	a5,-28(s0)
  202618:	fe846683          	lwu	a3,-24(s0)
  20261c:	873e                	mv	a4,a5
  20261e:	0706                	slli	a4,a4,0x1
  202620:	973e                	add	a4,a4,a5
  202622:	00271793          	slli	a5,a4,0x2
  202626:	873e                	mv	a4,a5
  202628:	87b6                	mv	a5,a3
  20262a:	0786                	slli	a5,a5,0x1
  20262c:	97b6                	add	a5,a5,a3
  20262e:	07be                	slli	a5,a5,0xf
  202630:	97ba                	add	a5,a5,a4
  202632:	97b2                	add	a5,a5,a2
  202634:	439c                	lw	a5,0(a5)
  202636:	0027d79b          	srliw	a5,a5,0x2
  20263a:	9bfd                	andi	a5,a5,-1
  20263c:	17c2                	slli	a5,a5,0x30
  20263e:	93c1                	srli	a5,a5,0x30
  202640:	0007869b          	sext.w	a3,a5
  202644:	fe442703          	lw	a4,-28(s0)
  202648:	fe842783          	lw	a5,-24(s0)
  20264c:	8636                	mv	a2,a3
  20264e:	85ba                	mv	a1,a4
  202650:	853e                	mv	a0,a5
  202652:	16f090ef          	jal	ra,20bfc0 <PutToGcVictimList>
  202656:	a011                	j	20265a <InvalidateOldVsa+0x146>
  202658:	0001                	nop
  20265a:	70a2                	ld	ra,40(sp)
  20265c:	7402                	ld	s0,32(sp)
  20265e:	6145                	addi	sp,sp,48
  202660:	8082                	ret

0000000000202662 <EraseBlock>:
  202662:	7179                	addi	sp,sp,-48
  202664:	f406                	sd	ra,40(sp)
  202666:	f022                	sd	s0,32(sp)
  202668:	1800                	addi	s0,sp,48
  20266a:	87aa                	mv	a5,a0
  20266c:	872e                	mv	a4,a1
  20266e:	fcf42e23          	sw	a5,-36(s0)
  202672:	87ba                	mv	a5,a4
  202674:	fcf42c23          	sw	a5,-40(s0)
  202678:	4e9000ef          	jal	ra,203360 <GetFromFreeReqQ>
  20267c:	87aa                	mv	a5,a0
  20267e:	fef42423          	sw	a5,-24(s0)
  202682:	002107b7          	lui	a5,0x210
  202686:	1807b703          	ld	a4,384(a5) # 210180 <reqPoolPtr>
  20268a:	fe846683          	lwu	a3,-24(s0)
  20268e:	03400793          	li	a5,52
  202692:	02f687b3          	mul	a5,a3,a5
  202696:	97ba                	add	a5,a5,a4
  202698:	4398                	lw	a4,0(a5)
  20269a:	9b41                	andi	a4,a4,-16
  20269c:	00176713          	ori	a4,a4,1
  2026a0:	c398                	sw	a4,0(a5)
  2026a2:	002107b7          	lui	a5,0x210
  2026a6:	1807b703          	ld	a4,384(a5) # 210180 <reqPoolPtr>
  2026aa:	fe846683          	lwu	a3,-24(s0)
  2026ae:	03400793          	li	a5,52
  2026b2:	02f687b3          	mul	a5,a3,a5
  2026b6:	97ba                	add	a5,a5,a4
  2026b8:	4731                	li	a4,12
  2026ba:	00e780a3          	sb	a4,1(a5)
  2026be:	002107b7          	lui	a5,0x210
  2026c2:	1807b703          	ld	a4,384(a5) # 210180 <reqPoolPtr>
  2026c6:	fe846683          	lwu	a3,-24(s0)
  2026ca:	03400793          	li	a5,52
  2026ce:	02f687b3          	mul	a5,a3,a5
  2026d2:	97ba                	add	a5,a5,a4
  2026d4:	4b98                	lw	a4,16(a5)
  2026d6:	9b4d                	andi	a4,a4,-13
  2026d8:	cb98                	sw	a4,16(a5)
  2026da:	002107b7          	lui	a5,0x210
  2026de:	1807b703          	ld	a4,384(a5) # 210180 <reqPoolPtr>
  2026e2:	fe846683          	lwu	a3,-24(s0)
  2026e6:	03400793          	li	a5,52
  2026ea:	02f687b3          	mul	a5,a3,a5
  2026ee:	97ba                	add	a5,a5,a4
  2026f0:	4b98                	lw	a4,16(a5)
  2026f2:	00376713          	ori	a4,a4,3
  2026f6:	cb98                	sw	a4,16(a5)
  2026f8:	002107b7          	lui	a5,0x210
  2026fc:	1807b703          	ld	a4,384(a5) # 210180 <reqPoolPtr>
  202700:	fe846683          	lwu	a3,-24(s0)
  202704:	03400793          	li	a5,52
  202708:	02f687b3          	mul	a5,a3,a5
  20270c:	97ba                	add	a5,a5,a4
  20270e:	4b98                	lw	a4,16(a5)
  202710:	04076713          	ori	a4,a4,64
  202714:	cb98                	sw	a4,16(a5)
  202716:	002107b7          	lui	a5,0x210
  20271a:	1807b703          	ld	a4,384(a5) # 210180 <reqPoolPtr>
  20271e:	fe846683          	lwu	a3,-24(s0)
  202722:	03400793          	li	a5,52
  202726:	02f687b3          	mul	a5,a3,a5
  20272a:	97ba                	add	a5,a5,a4
  20272c:	4b98                	lw	a4,16(a5)
  20272e:	f7f77713          	andi	a4,a4,-129
  202732:	cb98                	sw	a4,16(a5)
  202734:	fd842783          	lw	a5,-40(s0)
  202738:	00d7979b          	slliw	a5,a5,0xd
  20273c:	2781                	sext.w	a5,a5
  20273e:	00210737          	lui	a4,0x210
  202742:	18073683          	ld	a3,384(a4) # 210180 <reqPoolPtr>
  202746:	fdc42703          	lw	a4,-36(s0)
  20274a:	9fb9                	addw	a5,a5,a4
  20274c:	0007871b          	sext.w	a4,a5
  202750:	fe846603          	lwu	a2,-24(s0)
  202754:	03400793          	li	a5,52
  202758:	02f607b3          	mul	a5,a2,a5
  20275c:	97b6                	add	a5,a5,a3
  20275e:	d3d8                	sw	a4,36(a5)
  202760:	002107b7          	lui	a5,0x210
  202764:	f487b603          	ld	a2,-184(a5) # 20ff48 <virtualBlockMapPtr>
  202768:	fd846783          	lwu	a5,-40(s0)
  20276c:	fdc46683          	lwu	a3,-36(s0)
  202770:	873e                	mv	a4,a5
  202772:	0706                	slli	a4,a4,0x1
  202774:	973e                	add	a4,a4,a5
  202776:	00271793          	slli	a5,a4,0x2
  20277a:	873e                	mv	a4,a5
  20277c:	87b6                	mv	a5,a3
  20277e:	0786                	slli	a5,a5,0x1
  202780:	97b6                	add	a5,a5,a3
  202782:	07be                	slli	a5,a5,0xf
  202784:	97ba                	add	a5,a5,a4
  202786:	97b2                	add	a5,a5,a2
  202788:	0047d703          	lhu	a4,4(a5)
  20278c:	002107b7          	lui	a5,0x210
  202790:	1807b683          	ld	a3,384(a5) # 210180 <reqPoolPtr>
  202794:	2701                	sext.w	a4,a4
  202796:	fe846603          	lwu	a2,-24(s0)
  20279a:	03400793          	li	a5,52
  20279e:	02f607b3          	mul	a5,a2,a5
  2027a2:	97b6                	add	a5,a5,a3
  2027a4:	d798                	sw	a4,40(a5)
  2027a6:	fe842783          	lw	a5,-24(s0)
  2027aa:	4581                	li	a1,0
  2027ac:	853e                	mv	a0,a5
  2027ae:	499080ef          	jal	ra,20b446 <SelectLowLevelReqQ>
  2027b2:	002107b7          	lui	a5,0x210
  2027b6:	f487b603          	ld	a2,-184(a5) # 20ff48 <virtualBlockMapPtr>
  2027ba:	fd846783          	lwu	a5,-40(s0)
  2027be:	fdc46683          	lwu	a3,-36(s0)
  2027c2:	873e                	mv	a4,a5
  2027c4:	0706                	slli	a4,a4,0x1
  2027c6:	973e                	add	a4,a4,a5
  2027c8:	00271793          	slli	a5,a4,0x2
  2027cc:	873e                	mv	a4,a5
  2027ce:	87b6                	mv	a5,a3
  2027d0:	0786                	slli	a5,a5,0x1
  2027d2:	97b6                	add	a5,a5,a3
  2027d4:	07be                	slli	a5,a5,0xf
  2027d6:	97ba                	add	a5,a5,a4
  2027d8:	97b2                	add	a5,a5,a2
  2027da:	4398                	lw	a4,0(a5)
  2027dc:	00276713          	ori	a4,a4,2
  2027e0:	c398                	sw	a4,0(a5)
  2027e2:	002107b7          	lui	a5,0x210
  2027e6:	f487b683          	ld	a3,-184(a5) # 20ff48 <virtualBlockMapPtr>
  2027ea:	fd846783          	lwu	a5,-40(s0)
  2027ee:	fdc46603          	lwu	a2,-36(s0)
  2027f2:	873e                	mv	a4,a5
  2027f4:	0706                	slli	a4,a4,0x1
  2027f6:	973e                	add	a4,a4,a5
  2027f8:	00271793          	slli	a5,a4,0x2
  2027fc:	873e                	mv	a4,a5
  2027fe:	87b2                	mv	a5,a2
  202800:	0786                	slli	a5,a5,0x1
  202802:	97b2                	add	a5,a5,a2
  202804:	07be                	slli	a5,a5,0xf
  202806:	97ba                	add	a5,a5,a4
  202808:	97b6                	add	a5,a5,a3
  20280a:	0067d783          	lhu	a5,6(a5)
  20280e:	2785                	addiw	a5,a5,1
  202810:	03079593          	slli	a1,a5,0x30
  202814:	91c1                	srli	a1,a1,0x30
  202816:	fd846783          	lwu	a5,-40(s0)
  20281a:	fdc46603          	lwu	a2,-36(s0)
  20281e:	873e                	mv	a4,a5
  202820:	0706                	slli	a4,a4,0x1
  202822:	973e                	add	a4,a4,a5
  202824:	00271793          	slli	a5,a4,0x2
  202828:	873e                	mv	a4,a5
  20282a:	87b2                	mv	a5,a2
  20282c:	0786                	slli	a5,a5,0x1
  20282e:	97b2                	add	a5,a5,a2
  202830:	07be                	slli	a5,a5,0xf
  202832:	97ba                	add	a5,a5,a4
  202834:	97b6                	add	a5,a5,a3
  202836:	00b79323          	sh	a1,6(a5)
  20283a:	002107b7          	lui	a5,0x210
  20283e:	f487b603          	ld	a2,-184(a5) # 20ff48 <virtualBlockMapPtr>
  202842:	fd846783          	lwu	a5,-40(s0)
  202846:	fdc46683          	lwu	a3,-36(s0)
  20284a:	873e                	mv	a4,a5
  20284c:	0706                	slli	a4,a4,0x1
  20284e:	973e                	add	a4,a4,a5
  202850:	00271793          	slli	a5,a4,0x2
  202854:	873e                	mv	a4,a5
  202856:	87b6                	mv	a5,a3
  202858:	0786                	slli	a5,a5,0x1
  20285a:	97b6                	add	a5,a5,a3
  20285c:	07be                	slli	a5,a5,0xf
  20285e:	97ba                	add	a5,a5,a4
  202860:	97b2                	add	a5,a5,a2
  202862:	4394                	lw	a3,0(a5)
  202864:	fffc0737          	lui	a4,0xfffc0
  202868:	070d                	addi	a4,a4,3
  20286a:	8f75                	and	a4,a4,a3
  20286c:	c398                	sw	a4,0(a5)
  20286e:	002107b7          	lui	a5,0x210
  202872:	f487b603          	ld	a2,-184(a5) # 20ff48 <virtualBlockMapPtr>
  202876:	fd846783          	lwu	a5,-40(s0)
  20287a:	fdc46683          	lwu	a3,-36(s0)
  20287e:	873e                	mv	a4,a5
  202880:	0706                	slli	a4,a4,0x1
  202882:	973e                	add	a4,a4,a5
  202884:	00271793          	slli	a5,a4,0x2
  202888:	873e                	mv	a4,a5
  20288a:	87b6                	mv	a5,a3
  20288c:	0786                	slli	a5,a5,0x1
  20288e:	97b6                	add	a5,a5,a3
  202890:	07be                	slli	a5,a5,0xf
  202892:	97ba                	add	a5,a5,a4
  202894:	97b2                	add	a5,a5,a2
  202896:	00079223          	sh	zero,4(a5)
  20289a:	fd842703          	lw	a4,-40(s0)
  20289e:	fdc42783          	lw	a5,-36(s0)
  2028a2:	85ba                	mv	a1,a4
  2028a4:	853e                	mv	a0,a5
  2028a6:	066000ef          	jal	ra,20290c <PutToFbList>
  2028aa:	fe042623          	sw	zero,-20(s0)
  2028ae:	a089                	j	2028f0 <EraseBlock+0x28e>
  2028b0:	fd842783          	lw	a5,-40(s0)
  2028b4:	0077979b          	slliw	a5,a5,0x7
  2028b8:	2781                	sext.w	a5,a5
  2028ba:	fec42703          	lw	a4,-20(s0)
  2028be:	9fb9                	addw	a5,a5,a4
  2028c0:	2781                	sext.w	a5,a5
  2028c2:	0067979b          	slliw	a5,a5,0x6
  2028c6:	2781                	sext.w	a5,a5
  2028c8:	fdc42703          	lw	a4,-36(s0)
  2028cc:	9fb9                	addw	a5,a5,a4
  2028ce:	fef42223          	sw	a5,-28(s0)
  2028d2:	002107b7          	lui	a5,0x210
  2028d6:	f507b703          	ld	a4,-176(a5) # 20ff50 <virtualSliceMapPtr>
  2028da:	fe446783          	lwu	a5,-28(s0)
  2028de:	078a                	slli	a5,a5,0x2
  2028e0:	97ba                	add	a5,a5,a4
  2028e2:	577d                	li	a4,-1
  2028e4:	c398                	sw	a4,0(a5)
  2028e6:	fec42783          	lw	a5,-20(s0)
  2028ea:	2785                	addiw	a5,a5,1
  2028ec:	fef42623          	sw	a5,-20(s0)
  2028f0:	fec42783          	lw	a5,-20(s0)
  2028f4:	0007871b          	sext.w	a4,a5
  2028f8:	07f00793          	li	a5,127
  2028fc:	fae7fae3          	bgeu	a5,a4,2028b0 <EraseBlock+0x24e>
  202900:	0001                	nop
  202902:	0001                	nop
  202904:	70a2                	ld	ra,40(sp)
  202906:	7402                	ld	s0,32(sp)
  202908:	6145                	addi	sp,sp,48
  20290a:	8082                	ret

000000000020290c <PutToFbList>:
  20290c:	1101                	addi	sp,sp,-32
  20290e:	ec22                	sd	s0,24(sp)
  202910:	1000                	addi	s0,sp,32
  202912:	87aa                	mv	a5,a0
  202914:	872e                	mv	a4,a1
  202916:	fef42623          	sw	a5,-20(s0)
  20291a:	87ba                	mv	a5,a4
  20291c:	fef42423          	sw	a5,-24(s0)
  202920:	002107b7          	lui	a5,0x210
  202924:	f407b683          	ld	a3,-192(a5) # 20ff40 <virtualDieMapPtr>
  202928:	fec46703          	lwu	a4,-20(s0)
  20292c:	87ba                	mv	a5,a4
  20292e:	0786                	slli	a5,a5,0x1
  202930:	97ba                	add	a5,a5,a4
  202932:	078a                	slli	a5,a5,0x2
  202934:	97b6                	add	a5,a5,a3
  202936:	0047d783          	lhu	a5,4(a5)
  20293a:	0007871b          	sext.w	a4,a5
  20293e:	67c1                	lui	a5,0x10
  202940:	17fd                	addi	a5,a5,-1
  202942:	0ef70663          	beq	a4,a5,202a2e <PutToFbList+0x122>
  202946:	002107b7          	lui	a5,0x210
  20294a:	f407b683          	ld	a3,-192(a5) # 20ff40 <virtualDieMapPtr>
  20294e:	002107b7          	lui	a5,0x210
  202952:	f487b583          	ld	a1,-184(a5) # 20ff48 <virtualBlockMapPtr>
  202956:	fec46703          	lwu	a4,-20(s0)
  20295a:	87ba                	mv	a5,a4
  20295c:	0786                	slli	a5,a5,0x1
  20295e:	97ba                	add	a5,a5,a4
  202960:	078a                	slli	a5,a5,0x2
  202962:	97b6                	add	a5,a5,a3
  202964:	0047d603          	lhu	a2,4(a5)
  202968:	fe846783          	lwu	a5,-24(s0)
  20296c:	fec46683          	lwu	a3,-20(s0)
  202970:	873e                	mv	a4,a5
  202972:	0706                	slli	a4,a4,0x1
  202974:	973e                	add	a4,a4,a5
  202976:	00271793          	slli	a5,a4,0x2
  20297a:	873e                	mv	a4,a5
  20297c:	87b6                	mv	a5,a3
  20297e:	0786                	slli	a5,a5,0x1
  202980:	97b6                	add	a5,a5,a3
  202982:	07be                	slli	a5,a5,0xf
  202984:	97ba                	add	a5,a5,a4
  202986:	97ae                	add	a5,a5,a1
  202988:	00c79423          	sh	a2,8(a5)
  20298c:	002107b7          	lui	a5,0x210
  202990:	f487b603          	ld	a2,-184(a5) # 20ff48 <virtualBlockMapPtr>
  202994:	fe846783          	lwu	a5,-24(s0)
  202998:	fec46683          	lwu	a3,-20(s0)
  20299c:	873e                	mv	a4,a5
  20299e:	0706                	slli	a4,a4,0x1
  2029a0:	973e                	add	a4,a4,a5
  2029a2:	00271793          	slli	a5,a4,0x2
  2029a6:	873e                	mv	a4,a5
  2029a8:	87b6                	mv	a5,a3
  2029aa:	0786                	slli	a5,a5,0x1
  2029ac:	97b6                	add	a5,a5,a3
  2029ae:	07be                	slli	a5,a5,0xf
  2029b0:	97ba                	add	a5,a5,a4
  2029b2:	97b2                	add	a5,a5,a2
  2029b4:	577d                	li	a4,-1
  2029b6:	00e79523          	sh	a4,10(a5)
  2029ba:	002107b7          	lui	a5,0x210
  2029be:	f487b583          	ld	a1,-184(a5) # 20ff48 <virtualBlockMapPtr>
  2029c2:	002107b7          	lui	a5,0x210
  2029c6:	f407b683          	ld	a3,-192(a5) # 20ff40 <virtualDieMapPtr>
  2029ca:	fec46703          	lwu	a4,-20(s0)
  2029ce:	87ba                	mv	a5,a4
  2029d0:	0786                	slli	a5,a5,0x1
  2029d2:	97ba                	add	a5,a5,a4
  2029d4:	078a                	slli	a5,a5,0x2
  2029d6:	97b6                	add	a5,a5,a3
  2029d8:	0047d783          	lhu	a5,4(a5)
  2029dc:	2781                	sext.w	a5,a5
  2029de:	fe842703          	lw	a4,-24(s0)
  2029e2:	03071613          	slli	a2,a4,0x30
  2029e6:	9241                	srli	a2,a2,0x30
  2029e8:	fec46683          	lwu	a3,-20(s0)
  2029ec:	873e                	mv	a4,a5
  2029ee:	0706                	slli	a4,a4,0x1
  2029f0:	973e                	add	a4,a4,a5
  2029f2:	00271793          	slli	a5,a4,0x2
  2029f6:	873e                	mv	a4,a5
  2029f8:	87b6                	mv	a5,a3
  2029fa:	0786                	slli	a5,a5,0x1
  2029fc:	97b6                	add	a5,a5,a3
  2029fe:	07be                	slli	a5,a5,0xf
  202a00:	97ba                	add	a5,a5,a4
  202a02:	97ae                	add	a5,a5,a1
  202a04:	00c79523          	sh	a2,10(a5)
  202a08:	002107b7          	lui	a5,0x210
  202a0c:	f407b603          	ld	a2,-192(a5) # 20ff40 <virtualDieMapPtr>
  202a10:	fe842783          	lw	a5,-24(s0)
  202a14:	03079693          	slli	a3,a5,0x30
  202a18:	92c1                	srli	a3,a3,0x30
  202a1a:	fec46703          	lwu	a4,-20(s0)
  202a1e:	87ba                	mv	a5,a4
  202a20:	0786                	slli	a5,a5,0x1
  202a22:	97ba                	add	a5,a5,a4
  202a24:	078a                	slli	a5,a5,0x2
  202a26:	97b2                	add	a5,a5,a2
  202a28:	00d79223          	sh	a3,4(a5)
  202a2c:	a05d                	j	202ad2 <PutToFbList+0x1c6>
  202a2e:	002107b7          	lui	a5,0x210
  202a32:	f487b603          	ld	a2,-184(a5) # 20ff48 <virtualBlockMapPtr>
  202a36:	fe846783          	lwu	a5,-24(s0)
  202a3a:	fec46683          	lwu	a3,-20(s0)
  202a3e:	873e                	mv	a4,a5
  202a40:	0706                	slli	a4,a4,0x1
  202a42:	973e                	add	a4,a4,a5
  202a44:	00271793          	slli	a5,a4,0x2
  202a48:	873e                	mv	a4,a5
  202a4a:	87b6                	mv	a5,a3
  202a4c:	0786                	slli	a5,a5,0x1
  202a4e:	97b6                	add	a5,a5,a3
  202a50:	07be                	slli	a5,a5,0xf
  202a52:	97ba                	add	a5,a5,a4
  202a54:	97b2                	add	a5,a5,a2
  202a56:	577d                	li	a4,-1
  202a58:	00e79423          	sh	a4,8(a5)
  202a5c:	002107b7          	lui	a5,0x210
  202a60:	f487b603          	ld	a2,-184(a5) # 20ff48 <virtualBlockMapPtr>
  202a64:	fe846783          	lwu	a5,-24(s0)
  202a68:	fec46683          	lwu	a3,-20(s0)
  202a6c:	873e                	mv	a4,a5
  202a6e:	0706                	slli	a4,a4,0x1
  202a70:	973e                	add	a4,a4,a5
  202a72:	00271793          	slli	a5,a4,0x2
  202a76:	873e                	mv	a4,a5
  202a78:	87b6                	mv	a5,a3
  202a7a:	0786                	slli	a5,a5,0x1
  202a7c:	97b6                	add	a5,a5,a3
  202a7e:	07be                	slli	a5,a5,0xf
  202a80:	97ba                	add	a5,a5,a4
  202a82:	97b2                	add	a5,a5,a2
  202a84:	577d                	li	a4,-1
  202a86:	00e79523          	sh	a4,10(a5)
  202a8a:	002107b7          	lui	a5,0x210
  202a8e:	f407b603          	ld	a2,-192(a5) # 20ff40 <virtualDieMapPtr>
  202a92:	fe842783          	lw	a5,-24(s0)
  202a96:	03079693          	slli	a3,a5,0x30
  202a9a:	92c1                	srli	a3,a3,0x30
  202a9c:	fec46703          	lwu	a4,-20(s0)
  202aa0:	87ba                	mv	a5,a4
  202aa2:	0786                	slli	a5,a5,0x1
  202aa4:	97ba                	add	a5,a5,a4
  202aa6:	078a                	slli	a5,a5,0x2
  202aa8:	97b2                	add	a5,a5,a2
  202aaa:	00d79123          	sh	a3,2(a5)
  202aae:	002107b7          	lui	a5,0x210
  202ab2:	f407b603          	ld	a2,-192(a5) # 20ff40 <virtualDieMapPtr>
  202ab6:	fe842783          	lw	a5,-24(s0)
  202aba:	03079693          	slli	a3,a5,0x30
  202abe:	92c1                	srli	a3,a3,0x30
  202ac0:	fec46703          	lwu	a4,-20(s0)
  202ac4:	87ba                	mv	a5,a4
  202ac6:	0786                	slli	a5,a5,0x1
  202ac8:	97ba                	add	a5,a5,a4
  202aca:	078a                	slli	a5,a5,0x2
  202acc:	97b2                	add	a5,a5,a2
  202ace:	00d79223          	sh	a3,4(a5)
  202ad2:	002107b7          	lui	a5,0x210
  202ad6:	f407b703          	ld	a4,-192(a5) # 20ff40 <virtualDieMapPtr>
  202ada:	fec46683          	lwu	a3,-20(s0)
  202ade:	87b6                	mv	a5,a3
  202ae0:	0786                	slli	a5,a5,0x1
  202ae2:	97b6                	add	a5,a5,a3
  202ae4:	078a                	slli	a5,a5,0x2
  202ae6:	97ba                	add	a5,a5,a4
  202ae8:	0067d783          	lhu	a5,6(a5)
  202aec:	2785                	addiw	a5,a5,1
  202aee:	03079613          	slli	a2,a5,0x30
  202af2:	9241                	srli	a2,a2,0x30
  202af4:	fec46683          	lwu	a3,-20(s0)
  202af8:	87b6                	mv	a5,a3
  202afa:	0786                	slli	a5,a5,0x1
  202afc:	97b6                	add	a5,a5,a3
  202afe:	078a                	slli	a5,a5,0x2
  202b00:	97ba                	add	a5,a5,a4
  202b02:	00c79323          	sh	a2,6(a5)
  202b06:	0001                	nop
  202b08:	6462                	ld	s0,24(sp)
  202b0a:	6105                	addi	sp,sp,32
  202b0c:	8082                	ret

0000000000202b0e <GetFromFbList>:
  202b0e:	7179                	addi	sp,sp,-48
  202b10:	f406                	sd	ra,40(sp)
  202b12:	f022                	sd	s0,32(sp)
  202b14:	1800                	addi	s0,sp,48
  202b16:	87aa                	mv	a5,a0
  202b18:	872e                	mv	a4,a1
  202b1a:	fcf42e23          	sw	a5,-36(s0)
  202b1e:	87ba                	mv	a5,a4
  202b20:	fcf42c23          	sw	a5,-40(s0)
  202b24:	002107b7          	lui	a5,0x210
  202b28:	f407b683          	ld	a3,-192(a5) # 20ff40 <virtualDieMapPtr>
  202b2c:	fdc46703          	lwu	a4,-36(s0)
  202b30:	87ba                	mv	a5,a4
  202b32:	0786                	slli	a5,a5,0x1
  202b34:	97ba                	add	a5,a5,a4
  202b36:	078a                	slli	a5,a5,0x2
  202b38:	97b6                	add	a5,a5,a3
  202b3a:	0027d783          	lhu	a5,2(a5)
  202b3e:	fef42623          	sw	a5,-20(s0)
  202b42:	fd842783          	lw	a5,-40(s0)
  202b46:	2781                	sext.w	a5,a5
  202b48:	e795                	bnez	a5,202b74 <GetFromFbList+0x66>
  202b4a:	002107b7          	lui	a5,0x210
  202b4e:	f407b683          	ld	a3,-192(a5) # 20ff40 <virtualDieMapPtr>
  202b52:	fdc46703          	lwu	a4,-36(s0)
  202b56:	87ba                	mv	a5,a4
  202b58:	0786                	slli	a5,a5,0x1
  202b5a:	97ba                	add	a5,a5,a4
  202b5c:	078a                	slli	a5,a5,0x2
  202b5e:	97b6                	add	a5,a5,a3
  202b60:	0067d783          	lhu	a5,6(a5)
  202b64:	0007871b          	sext.w	a4,a5
  202b68:	4785                	li	a5,1
  202b6a:	02e7ed63          	bltu	a5,a4,202ba4 <GetFromFbList+0x96>
  202b6e:	67c1                	lui	a5,0x10
  202b70:	17fd                	addi	a5,a5,-1
  202b72:	a411                	j	202d76 <GetFromFbList+0x268>
  202b74:	fd842783          	lw	a5,-40(s0)
  202b78:	0007871b          	sext.w	a4,a5
  202b7c:	4785                	li	a5,1
  202b7e:	00f71d63          	bne	a4,a5,202b98 <GetFromFbList+0x8a>
  202b82:	fec42783          	lw	a5,-20(s0)
  202b86:	0007871b          	sext.w	a4,a5
  202b8a:	67c1                	lui	a5,0x10
  202b8c:	17fd                	addi	a5,a5,-1
  202b8e:	00f71b63          	bne	a4,a5,202ba4 <GetFromFbList+0x96>
  202b92:	67c1                	lui	a5,0x10
  202b94:	17fd                	addi	a5,a5,-1
  202b96:	a2c5                	j	202d76 <GetFromFbList+0x268>
  202b98:	0020f7b7          	lui	a5,0x20f
  202b9c:	0e878513          	addi	a0,a5,232 # 20f0e8 <nvme_main+0x632>
  202ba0:	219010ef          	jal	ra,2045b8 <cpl_print>
  202ba4:	002107b7          	lui	a5,0x210
  202ba8:	f487b603          	ld	a2,-184(a5) # 20ff48 <virtualBlockMapPtr>
  202bac:	fec46783          	lwu	a5,-20(s0)
  202bb0:	fdc46683          	lwu	a3,-36(s0)
  202bb4:	873e                	mv	a4,a5
  202bb6:	0706                	slli	a4,a4,0x1
  202bb8:	973e                	add	a4,a4,a5
  202bba:	00271793          	slli	a5,a4,0x2
  202bbe:	873e                	mv	a4,a5
  202bc0:	87b6                	mv	a5,a3
  202bc2:	0786                	slli	a5,a5,0x1
  202bc4:	97b6                	add	a5,a5,a3
  202bc6:	07be                	slli	a5,a5,0xf
  202bc8:	97ba                	add	a5,a5,a4
  202bca:	97b2                	add	a5,a5,a2
  202bcc:	00a7d783          	lhu	a5,10(a5)
  202bd0:	0007871b          	sext.w	a4,a5
  202bd4:	67c1                	lui	a5,0x10
  202bd6:	17fd                	addi	a5,a5,-1
  202bd8:	0af70263          	beq	a4,a5,202c7c <GetFromFbList+0x16e>
  202bdc:	002107b7          	lui	a5,0x210
  202be0:	f487b583          	ld	a1,-184(a5) # 20ff48 <virtualBlockMapPtr>
  202be4:	002107b7          	lui	a5,0x210
  202be8:	f407b603          	ld	a2,-192(a5) # 20ff40 <virtualDieMapPtr>
  202bec:	fec46783          	lwu	a5,-20(s0)
  202bf0:	fdc46683          	lwu	a3,-36(s0)
  202bf4:	873e                	mv	a4,a5
  202bf6:	0706                	slli	a4,a4,0x1
  202bf8:	973e                	add	a4,a4,a5
  202bfa:	00271793          	slli	a5,a4,0x2
  202bfe:	873e                	mv	a4,a5
  202c00:	87b6                	mv	a5,a3
  202c02:	0786                	slli	a5,a5,0x1
  202c04:	97b6                	add	a5,a5,a3
  202c06:	07be                	slli	a5,a5,0xf
  202c08:	97ba                	add	a5,a5,a4
  202c0a:	97ae                	add	a5,a5,a1
  202c0c:	00a7d683          	lhu	a3,10(a5)
  202c10:	fdc46703          	lwu	a4,-36(s0)
  202c14:	87ba                	mv	a5,a4
  202c16:	0786                	slli	a5,a5,0x1
  202c18:	97ba                	add	a5,a5,a4
  202c1a:	078a                	slli	a5,a5,0x2
  202c1c:	97b2                	add	a5,a5,a2
  202c1e:	00d79123          	sh	a3,2(a5)
  202c22:	002107b7          	lui	a5,0x210
  202c26:	f487b603          	ld	a2,-184(a5) # 20ff48 <virtualBlockMapPtr>
  202c2a:	002107b7          	lui	a5,0x210
  202c2e:	f487b583          	ld	a1,-184(a5) # 20ff48 <virtualBlockMapPtr>
  202c32:	fec46783          	lwu	a5,-20(s0)
  202c36:	fdc46683          	lwu	a3,-36(s0)
  202c3a:	873e                	mv	a4,a5
  202c3c:	0706                	slli	a4,a4,0x1
  202c3e:	973e                	add	a4,a4,a5
  202c40:	00271793          	slli	a5,a4,0x2
  202c44:	873e                	mv	a4,a5
  202c46:	87b6                	mv	a5,a3
  202c48:	0786                	slli	a5,a5,0x1
  202c4a:	97b6                	add	a5,a5,a3
  202c4c:	07be                	slli	a5,a5,0xf
  202c4e:	97ba                	add	a5,a5,a4
  202c50:	97ae                	add	a5,a5,a1
  202c52:	00a7d783          	lhu	a5,10(a5)
  202c56:	2781                	sext.w	a5,a5
  202c58:	fdc46683          	lwu	a3,-36(s0)
  202c5c:	873e                	mv	a4,a5
  202c5e:	0706                	slli	a4,a4,0x1
  202c60:	973e                	add	a4,a4,a5
  202c62:	00271793          	slli	a5,a4,0x2
  202c66:	873e                	mv	a4,a5
  202c68:	87b6                	mv	a5,a3
  202c6a:	0786                	slli	a5,a5,0x1
  202c6c:	97b6                	add	a5,a5,a3
  202c6e:	07be                	slli	a5,a5,0xf
  202c70:	97ba                	add	a5,a5,a4
  202c72:	97b2                	add	a5,a5,a2
  202c74:	577d                	li	a4,-1
  202c76:	00e79423          	sh	a4,8(a5)
  202c7a:	a82d                	j	202cb4 <GetFromFbList+0x1a6>
  202c7c:	002107b7          	lui	a5,0x210
  202c80:	f407b683          	ld	a3,-192(a5) # 20ff40 <virtualDieMapPtr>
  202c84:	fdc46703          	lwu	a4,-36(s0)
  202c88:	87ba                	mv	a5,a4
  202c8a:	0786                	slli	a5,a5,0x1
  202c8c:	97ba                	add	a5,a5,a4
  202c8e:	078a                	slli	a5,a5,0x2
  202c90:	97b6                	add	a5,a5,a3
  202c92:	577d                	li	a4,-1
  202c94:	00e79123          	sh	a4,2(a5)
  202c98:	002107b7          	lui	a5,0x210
  202c9c:	f407b683          	ld	a3,-192(a5) # 20ff40 <virtualDieMapPtr>
  202ca0:	fdc46703          	lwu	a4,-36(s0)
  202ca4:	87ba                	mv	a5,a4
  202ca6:	0786                	slli	a5,a5,0x1
  202ca8:	97ba                	add	a5,a5,a4
  202caa:	078a                	slli	a5,a5,0x2
  202cac:	97b6                	add	a5,a5,a3
  202cae:	577d                	li	a4,-1
  202cb0:	00e79223          	sh	a4,4(a5)
  202cb4:	002107b7          	lui	a5,0x210
  202cb8:	f487b603          	ld	a2,-184(a5) # 20ff48 <virtualBlockMapPtr>
  202cbc:	fec46783          	lwu	a5,-20(s0)
  202cc0:	fdc46683          	lwu	a3,-36(s0)
  202cc4:	873e                	mv	a4,a5
  202cc6:	0706                	slli	a4,a4,0x1
  202cc8:	973e                	add	a4,a4,a5
  202cca:	00271793          	slli	a5,a4,0x2
  202cce:	873e                	mv	a4,a5
  202cd0:	87b6                	mv	a5,a3
  202cd2:	0786                	slli	a5,a5,0x1
  202cd4:	97b6                	add	a5,a5,a3
  202cd6:	07be                	slli	a5,a5,0xf
  202cd8:	97ba                	add	a5,a5,a4
  202cda:	97b2                	add	a5,a5,a2
  202cdc:	4398                	lw	a4,0(a5)
  202cde:	9b75                	andi	a4,a4,-3
  202ce0:	c398                	sw	a4,0(a5)
  202ce2:	002107b7          	lui	a5,0x210
  202ce6:	f407b703          	ld	a4,-192(a5) # 20ff40 <virtualDieMapPtr>
  202cea:	fdc46683          	lwu	a3,-36(s0)
  202cee:	87b6                	mv	a5,a3
  202cf0:	0786                	slli	a5,a5,0x1
  202cf2:	97b6                	add	a5,a5,a3
  202cf4:	078a                	slli	a5,a5,0x2
  202cf6:	97ba                	add	a5,a5,a4
  202cf8:	0067d783          	lhu	a5,6(a5)
  202cfc:	37fd                	addiw	a5,a5,-1
  202cfe:	03079613          	slli	a2,a5,0x30
  202d02:	9241                	srli	a2,a2,0x30
  202d04:	fdc46683          	lwu	a3,-36(s0)
  202d08:	87b6                	mv	a5,a3
  202d0a:	0786                	slli	a5,a5,0x1
  202d0c:	97b6                	add	a5,a5,a3
  202d0e:	078a                	slli	a5,a5,0x2
  202d10:	97ba                	add	a5,a5,a4
  202d12:	00c79323          	sh	a2,6(a5)
  202d16:	002107b7          	lui	a5,0x210
  202d1a:	f487b603          	ld	a2,-184(a5) # 20ff48 <virtualBlockMapPtr>
  202d1e:	fec46783          	lwu	a5,-20(s0)
  202d22:	fdc46683          	lwu	a3,-36(s0)
  202d26:	873e                	mv	a4,a5
  202d28:	0706                	slli	a4,a4,0x1
  202d2a:	973e                	add	a4,a4,a5
  202d2c:	00271793          	slli	a5,a4,0x2
  202d30:	873e                	mv	a4,a5
  202d32:	87b6                	mv	a5,a3
  202d34:	0786                	slli	a5,a5,0x1
  202d36:	97b6                	add	a5,a5,a3
  202d38:	07be                	slli	a5,a5,0xf
  202d3a:	97ba                	add	a5,a5,a4
  202d3c:	97b2                	add	a5,a5,a2
  202d3e:	577d                	li	a4,-1
  202d40:	00e79523          	sh	a4,10(a5)
  202d44:	002107b7          	lui	a5,0x210
  202d48:	f487b603          	ld	a2,-184(a5) # 20ff48 <virtualBlockMapPtr>
  202d4c:	fec46783          	lwu	a5,-20(s0)
  202d50:	fdc46683          	lwu	a3,-36(s0)
  202d54:	873e                	mv	a4,a5
  202d56:	0706                	slli	a4,a4,0x1
  202d58:	973e                	add	a4,a4,a5
  202d5a:	00271793          	slli	a5,a4,0x2
  202d5e:	873e                	mv	a4,a5
  202d60:	87b6                	mv	a5,a3
  202d62:	0786                	slli	a5,a5,0x1
  202d64:	97b6                	add	a5,a5,a3
  202d66:	07be                	slli	a5,a5,0xf
  202d68:	97ba                	add	a5,a5,a4
  202d6a:	97b2                	add	a5,a5,a2
  202d6c:	577d                	li	a4,-1
  202d6e:	00e79423          	sh	a4,8(a5)
  202d72:	fec42783          	lw	a5,-20(s0)
  202d76:	853e                	mv	a0,a5
  202d78:	70a2                	ld	ra,40(sp)
  202d7a:	7402                	ld	s0,32(sp)
  202d7c:	6145                	addi	sp,sp,48
  202d7e:	8082                	ret

0000000000202d80 <UpdatePhyBlockMapForGrownBadBlock>:
  202d80:	1101                	addi	sp,sp,-32
  202d82:	ec22                	sd	s0,24(sp)
  202d84:	1000                	addi	s0,sp,32
  202d86:	87aa                	mv	a5,a0
  202d88:	872e                	mv	a4,a1
  202d8a:	fef42623          	sw	a5,-20(s0)
  202d8e:	87ba                	mv	a5,a4
  202d90:	fef42423          	sw	a5,-24(s0)
  202d94:	002107b7          	lui	a5,0x210
  202d98:	f607b703          	ld	a4,-160(a5) # 20ff60 <phyBlockMapPtr>
  202d9c:	fe846783          	lwu	a5,-24(s0)
  202da0:	fec46603          	lwu	a2,-20(s0)
  202da4:	6689                	lui	a3,0x2
  202da6:	0b068693          	addi	a3,a3,176 # 20b0 <start-0x1fdf50>
  202daa:	02d606b3          	mul	a3,a2,a3
  202dae:	97b6                	add	a5,a5,a3
  202db0:	078a                	slli	a5,a5,0x2
  202db2:	97ba                	add	a5,a5,a4
  202db4:	4394                	lw	a3,0(a5)
  202db6:	6741                	lui	a4,0x10
  202db8:	8f55                	or	a4,a4,a3
  202dba:	c398                	sw	a4,0(a5)
  202dbc:	002107b7          	lui	a5,0x210
  202dc0:	f587b703          	ld	a4,-168(a5) # 20ff58 <bbtInfoMapPtr>
  202dc4:	fec46783          	lwu	a5,-20(s0)
  202dc8:	078a                	slli	a5,a5,0x2
  202dca:	97ba                	add	a5,a5,a4
  202dcc:	4394                	lw	a3,0(a5)
  202dce:	6741                	lui	a4,0x10
  202dd0:	8f55                	or	a4,a4,a3
  202dd2:	c398                	sw	a4,0(a5)
  202dd4:	0001                	nop
  202dd6:	6462                	ld	s0,24(sp)
  202dd8:	6105                	addi	sp,sp,32
  202dda:	8082                	ret

0000000000202ddc <UpdateBadBlockTableForGrownBadBlock>:
  202ddc:	7109                	addi	sp,sp,-384
  202dde:	fe86                	sd	ra,376(sp)
  202de0:	faa2                	sd	s0,368(sp)
  202de2:	0300                	addi	s0,sp,384
  202de4:	87aa                	mv	a5,a0
  202de6:	e8f42623          	sw	a5,-372(s0)
  202dea:	e8c42783          	lw	a5,-372(s0)
  202dee:	fef42223          	sw	a5,-28(s0)
  202df2:	6791                	lui	a5,0x4
  202df4:	10078793          	addi	a5,a5,256 # 4100 <start-0x1fbf00>
  202df8:	fef42023          	sw	a5,-32(s0)
  202dfc:	fe042623          	sw	zero,-20(s0)
  202e00:	a815                	j	202e34 <UpdateBadBlockTableForGrownBadBlock+0x58>
  202e02:	fec42703          	lw	a4,-20(s0)
  202e06:	fe042783          	lw	a5,-32(s0)
  202e0a:	02f707bb          	mulw	a5,a4,a5
  202e0e:	2781                	sext.w	a5,a5
  202e10:	fe442703          	lw	a4,-28(s0)
  202e14:	9fb9                	addw	a5,a5,a4
  202e16:	0007871b          	sext.w	a4,a5
  202e1a:	fec46783          	lwu	a5,-20(s0)
  202e1e:	078a                	slli	a5,a5,0x2
  202e20:	ff040693          	addi	a3,s0,-16
  202e24:	97b6                	add	a5,a5,a3
  202e26:	eee7a423          	sw	a4,-280(a5)
  202e2a:	fec42783          	lw	a5,-20(s0)
  202e2e:	2785                	addiw	a5,a5,1
  202e30:	fef42623          	sw	a5,-20(s0)
  202e34:	fec42783          	lw	a5,-20(s0)
  202e38:	0007871b          	sext.w	a4,a5
  202e3c:	03f00793          	li	a5,63
  202e40:	fce7f1e3          	bgeu	a5,a4,202e02 <UpdateBadBlockTableForGrownBadBlock+0x26>
  202e44:	fe042623          	sw	zero,-20(s0)
  202e48:	a8dd                	j	202f3e <UpdateBadBlockTableForGrownBadBlock+0x162>
  202e4a:	002107b7          	lui	a5,0x210
  202e4e:	f587b703          	ld	a4,-168(a5) # 20ff58 <bbtInfoMapPtr>
  202e52:	fec46783          	lwu	a5,-20(s0)
  202e56:	078a                	slli	a5,a5,0x2
  202e58:	97ba                	add	a5,a5,a4
  202e5a:	439c                	lw	a5,0(a5)
  202e5c:	0107d79b          	srliw	a5,a5,0x10
  202e60:	8b85                	andi	a5,a5,1
  202e62:	0ff7f793          	andi	a5,a5,255
  202e66:	873e                	mv	a4,a5
  202e68:	4785                	li	a5,1
  202e6a:	0af71d63          	bne	a4,a5,202f24 <UpdateBadBlockTableForGrownBadBlock+0x148>
  202e6e:	fe042423          	sw	zero,-24(s0)
  202e72:	a079                	j	202f00 <UpdateBadBlockTableForGrownBadBlock+0x124>
  202e74:	fec46783          	lwu	a5,-20(s0)
  202e78:	078a                	slli	a5,a5,0x2
  202e7a:	ff040713          	addi	a4,s0,-16
  202e7e:	97ba                	add	a5,a5,a4
  202e80:	ee87a783          	lw	a5,-280(a5)
  202e84:	fe842703          	lw	a4,-24(s0)
  202e88:	9fb9                	addw	a5,a5,a4
  202e8a:	2781                	sext.w	a5,a5
  202e8c:	1782                	slli	a5,a5,0x20
  202e8e:	9381                	srli	a5,a5,0x20
  202e90:	fcf43c23          	sd	a5,-40(s0)
  202e94:	002107b7          	lui	a5,0x210
  202e98:	f587b703          	ld	a4,-168(a5) # 20ff58 <bbtInfoMapPtr>
  202e9c:	fec46783          	lwu	a5,-20(s0)
  202ea0:	078a                	slli	a5,a5,0x2
  202ea2:	97ba                	add	a5,a5,a4
  202ea4:	0007d783          	lhu	a5,0(a5)
  202ea8:	0007871b          	sext.w	a4,a5
  202eac:	fe842783          	lw	a5,-24(s0)
  202eb0:	2781                	sext.w	a5,a5
  202eb2:	02e78e63          	beq	a5,a4,202eee <UpdateBadBlockTableForGrownBadBlock+0x112>
  202eb6:	002107b7          	lui	a5,0x210
  202eba:	f607b703          	ld	a4,-160(a5) # 20ff60 <phyBlockMapPtr>
  202ebe:	fe846783          	lwu	a5,-24(s0)
  202ec2:	fec46603          	lwu	a2,-20(s0)
  202ec6:	6689                	lui	a3,0x2
  202ec8:	0b068693          	addi	a3,a3,176 # 20b0 <start-0x1fdf50>
  202ecc:	02d606b3          	mul	a3,a2,a3
  202ed0:	97b6                	add	a5,a5,a3
  202ed2:	078a                	slli	a5,a5,0x2
  202ed4:	97ba                	add	a5,a5,a4
  202ed6:	439c                	lw	a5,0(a5)
  202ed8:	0107d79b          	srliw	a5,a5,0x10
  202edc:	8b85                	andi	a5,a5,1
  202ede:	0ff7f793          	andi	a5,a5,255
  202ee2:	873e                	mv	a4,a5
  202ee4:	fd843783          	ld	a5,-40(s0)
  202ee8:	00e78023          	sb	a4,0(a5)
  202eec:	a029                	j	202ef6 <UpdateBadBlockTableForGrownBadBlock+0x11a>
  202eee:	fd843783          	ld	a5,-40(s0)
  202ef2:	00078023          	sb	zero,0(a5)
  202ef6:	fe842783          	lw	a5,-24(s0)
  202efa:	2785                	addiw	a5,a5,1
  202efc:	fef42423          	sw	a5,-24(s0)
  202f00:	fe842783          	lw	a5,-24(s0)
  202f04:	0007871b          	sext.w	a4,a5
  202f08:	6789                	lui	a5,0x2
  202f0a:	0af78793          	addi	a5,a5,175 # 20af <start-0x1fdf51>
  202f0e:	f6e7f3e3          	bgeu	a5,a4,202e74 <UpdateBadBlockTableForGrownBadBlock+0x98>
  202f12:	fec46783          	lwu	a5,-20(s0)
  202f16:	ff040713          	addi	a4,s0,-16
  202f1a:	97ba                	add	a5,a5,a4
  202f1c:	470d                	li	a4,3
  202f1e:	eae78423          	sb	a4,-344(a5)
  202f22:	a809                	j	202f34 <UpdateBadBlockTableForGrownBadBlock+0x158>
  202f24:	fec46783          	lwu	a5,-20(s0)
  202f28:	ff040713          	addi	a4,s0,-16
  202f2c:	97ba                	add	a5,a5,a4
  202f2e:	4709                	li	a4,2
  202f30:	eae78423          	sb	a4,-344(a5)
  202f34:	fec42783          	lw	a5,-20(s0)
  202f38:	2785                	addiw	a5,a5,1
  202f3a:	fef42623          	sw	a5,-20(s0)
  202f3e:	fec42783          	lw	a5,-20(s0)
  202f42:	0007871b          	sext.w	a4,a5
  202f46:	03f00793          	li	a5,63
  202f4a:	f0e7f0e3          	bgeu	a5,a4,202e4a <UpdateBadBlockTableForGrownBadBlock+0x6e>
  202f4e:	fe042683          	lw	a3,-32(s0)
  202f52:	ed840713          	addi	a4,s0,-296
  202f56:	e9840793          	addi	a5,s0,-360
  202f5a:	8636                	mv	a2,a3
  202f5c:	85ba                	mv	a1,a4
  202f5e:	853e                	mv	a0,a5
  202f60:	bc6fe0ef          	jal	ra,201326 <SaveBadBlockTable>
  202f64:	0001                	nop
  202f66:	70f6                	ld	ra,376(sp)
  202f68:	7456                	ld	s0,368(sp)
  202f6a:	6119                	addi	sp,sp,384
  202f6c:	8082                	ret

0000000000202f6e <InitReqPool>:
  202f6e:	1101                	addi	sp,sp,-32
  202f70:	ec22                	sd	s0,24(sp)
  202f72:	1000                	addi	s0,sp,32
  202f74:	002107b7          	lui	a5,0x210
  202f78:	38818737          	lui	a4,0x38818
  202f7c:	60070713          	addi	a4,a4,1536 # 38818600 <g_nvmeTask+0x38608198>
  202f80:	18e7b023          	sd	a4,384(a5) # 210180 <reqPoolPtr>
  202f84:	002107b7          	lui	a5,0x210
  202f88:	18079423          	sh	zero,392(a5) # 210188 <freeReqQ>
  202f8c:	002107b7          	lui	a5,0x210
  202f90:	18878793          	addi	a5,a5,392 # 210188 <freeReqQ>
  202f94:	6709                	lui	a4,0x2
  202f96:	177d                	addi	a4,a4,-1
  202f98:	00e79123          	sh	a4,2(a5)
  202f9c:	002107b7          	lui	a5,0x210
  202fa0:	577d                	li	a4,-1
  202fa2:	f6e79823          	sh	a4,-144(a5) # 20ff70 <sliceReqQ>
  202fa6:	002107b7          	lui	a5,0x210
  202faa:	f7078793          	addi	a5,a5,-144 # 20ff70 <sliceReqQ>
  202fae:	577d                	li	a4,-1
  202fb0:	00e79123          	sh	a4,2(a5)
  202fb4:	002107b7          	lui	a5,0x210
  202fb8:	f7078793          	addi	a5,a5,-144 # 20ff70 <sliceReqQ>
  202fbc:	00079223          	sh	zero,4(a5)
  202fc0:	002107b7          	lui	a5,0x210
  202fc4:	577d                	li	a4,-1
  202fc6:	f6e79c23          	sh	a4,-136(a5) # 20ff78 <blockedByBufDepReqQ>
  202fca:	002107b7          	lui	a5,0x210
  202fce:	f7878793          	addi	a5,a5,-136 # 20ff78 <blockedByBufDepReqQ>
  202fd2:	577d                	li	a4,-1
  202fd4:	00e79123          	sh	a4,2(a5)
  202fd8:	002107b7          	lui	a5,0x210
  202fdc:	f7878793          	addi	a5,a5,-136 # 20ff78 <blockedByBufDepReqQ>
  202fe0:	00079223          	sh	zero,4(a5)
  202fe4:	002107b7          	lui	a5,0x210
  202fe8:	577d                	li	a4,-1
  202fea:	18e79823          	sh	a4,400(a5) # 210190 <nvmeDmaReqQ>
  202fee:	002107b7          	lui	a5,0x210
  202ff2:	19078793          	addi	a5,a5,400 # 210190 <nvmeDmaReqQ>
  202ff6:	577d                	li	a4,-1
  202ff8:	00e79123          	sh	a4,2(a5)
  202ffc:	002107b7          	lui	a5,0x210
  203000:	19078793          	addi	a5,a5,400 # 210190 <nvmeDmaReqQ>
  203004:	00079223          	sh	zero,4(a5)
  203008:	fe042623          	sw	zero,-20(s0)
  20300c:	a8e9                	j	2030e6 <InitReqPool+0x178>
  20300e:	fe042423          	sw	zero,-24(s0)
  203012:	a875                	j	2030ce <InitReqPool+0x160>
  203014:	002107b7          	lui	a5,0x210
  203018:	f8078713          	addi	a4,a5,-128 # 20ff80 <blockedByRowAddrDepReqQ>
  20301c:	fe842783          	lw	a5,-24(s0)
  203020:	fec42683          	lw	a3,-20(s0)
  203024:	068e                	slli	a3,a3,0x3
  203026:	97b6                	add	a5,a5,a3
  203028:	078e                	slli	a5,a5,0x3
  20302a:	97ba                	add	a5,a5,a4
  20302c:	577d                	li	a4,-1
  20302e:	00e79023          	sh	a4,0(a5)
  203032:	002107b7          	lui	a5,0x210
  203036:	f8078713          	addi	a4,a5,-128 # 20ff80 <blockedByRowAddrDepReqQ>
  20303a:	fe842783          	lw	a5,-24(s0)
  20303e:	fec42683          	lw	a3,-20(s0)
  203042:	068e                	slli	a3,a3,0x3
  203044:	97b6                	add	a5,a5,a3
  203046:	078e                	slli	a5,a5,0x3
  203048:	97ba                	add	a5,a5,a4
  20304a:	577d                	li	a4,-1
  20304c:	00e79123          	sh	a4,2(a5)
  203050:	002107b7          	lui	a5,0x210
  203054:	f8078713          	addi	a4,a5,-128 # 20ff80 <blockedByRowAddrDepReqQ>
  203058:	fe842783          	lw	a5,-24(s0)
  20305c:	fec42683          	lw	a3,-20(s0)
  203060:	068e                	slli	a3,a3,0x3
  203062:	97b6                	add	a5,a5,a3
  203064:	078e                	slli	a5,a5,0x3
  203066:	97ba                	add	a5,a5,a4
  203068:	00079223          	sh	zero,4(a5)
  20306c:	002107b7          	lui	a5,0x210
  203070:	19878713          	addi	a4,a5,408 # 210198 <nandReqQ>
  203074:	fe842783          	lw	a5,-24(s0)
  203078:	fec42683          	lw	a3,-20(s0)
  20307c:	068e                	slli	a3,a3,0x3
  20307e:	97b6                	add	a5,a5,a3
  203080:	078e                	slli	a5,a5,0x3
  203082:	97ba                	add	a5,a5,a4
  203084:	577d                	li	a4,-1
  203086:	00e79023          	sh	a4,0(a5)
  20308a:	002107b7          	lui	a5,0x210
  20308e:	19878713          	addi	a4,a5,408 # 210198 <nandReqQ>
  203092:	fe842783          	lw	a5,-24(s0)
  203096:	fec42683          	lw	a3,-20(s0)
  20309a:	068e                	slli	a3,a3,0x3
  20309c:	97b6                	add	a5,a5,a3
  20309e:	078e                	slli	a5,a5,0x3
  2030a0:	97ba                	add	a5,a5,a4
  2030a2:	577d                	li	a4,-1
  2030a4:	00e79123          	sh	a4,2(a5)
  2030a8:	002107b7          	lui	a5,0x210
  2030ac:	19878713          	addi	a4,a5,408 # 210198 <nandReqQ>
  2030b0:	fe842783          	lw	a5,-24(s0)
  2030b4:	fec42683          	lw	a3,-20(s0)
  2030b8:	068e                	slli	a3,a3,0x3
  2030ba:	97b6                	add	a5,a5,a3
  2030bc:	078e                	slli	a5,a5,0x3
  2030be:	97ba                	add	a5,a5,a4
  2030c0:	00079223          	sh	zero,4(a5)
  2030c4:	fe842783          	lw	a5,-24(s0)
  2030c8:	2785                	addiw	a5,a5,1
  2030ca:	fef42423          	sw	a5,-24(s0)
  2030ce:	fe842783          	lw	a5,-24(s0)
  2030d2:	0007871b          	sext.w	a4,a5
  2030d6:	479d                	li	a5,7
  2030d8:	f2e7dee3          	bge	a5,a4,203014 <InitReqPool+0xa6>
  2030dc:	fec42783          	lw	a5,-20(s0)
  2030e0:	2785                	addiw	a5,a5,1
  2030e2:	fef42623          	sw	a5,-20(s0)
  2030e6:	fec42783          	lw	a5,-20(s0)
  2030ea:	0007871b          	sext.w	a4,a5
  2030ee:	479d                	li	a5,7
  2030f0:	f0e7dfe3          	bge	a5,a4,20300e <InitReqPool+0xa0>
  2030f4:	fe042223          	sw	zero,-28(s0)
  2030f8:	a86d                	j	2031b2 <InitReqPool+0x244>
  2030fa:	002107b7          	lui	a5,0x210
  2030fe:	1807b703          	ld	a4,384(a5) # 210180 <reqPoolPtr>
  203102:	fe442683          	lw	a3,-28(s0)
  203106:	03400793          	li	a5,52
  20310a:	02f687b3          	mul	a5,a3,a5
  20310e:	97ba                	add	a5,a5,a4
  203110:	4398                	lw	a4,0(a5)
  203112:	f0f77713          	andi	a4,a4,-241
  203116:	01076713          	ori	a4,a4,16
  20311a:	c398                	sw	a4,0(a5)
  20311c:	002107b7          	lui	a5,0x210
  203120:	1807b703          	ld	a4,384(a5) # 210180 <reqPoolPtr>
  203124:	fe442683          	lw	a3,-28(s0)
  203128:	03400793          	li	a5,52
  20312c:	02f687b3          	mul	a5,a3,a5
  203130:	97ba                	add	a5,a5,a4
  203132:	577d                	li	a4,-1
  203134:	02e79823          	sh	a4,48(a5)
  203138:	002107b7          	lui	a5,0x210
  20313c:	1807b703          	ld	a4,384(a5) # 210180 <reqPoolPtr>
  203140:	fe442683          	lw	a3,-28(s0)
  203144:	03400793          	li	a5,52
  203148:	02f687b3          	mul	a5,a3,a5
  20314c:	97ba                	add	a5,a5,a4
  20314e:	577d                	li	a4,-1
  203150:	02e79923          	sh	a4,50(a5)
  203154:	fe442783          	lw	a5,-28(s0)
  203158:	17c2                	slli	a5,a5,0x30
  20315a:	93c1                	srli	a5,a5,0x30
  20315c:	00210737          	lui	a4,0x210
  203160:	18073683          	ld	a3,384(a4) # 210180 <reqPoolPtr>
  203164:	37fd                	addiw	a5,a5,-1
  203166:	03079713          	slli	a4,a5,0x30
  20316a:	9341                	srli	a4,a4,0x30
  20316c:	fe442603          	lw	a2,-28(s0)
  203170:	03400793          	li	a5,52
  203174:	02f607b3          	mul	a5,a2,a5
  203178:	97b6                	add	a5,a5,a3
  20317a:	02e79623          	sh	a4,44(a5)
  20317e:	fe442783          	lw	a5,-28(s0)
  203182:	17c2                	slli	a5,a5,0x30
  203184:	93c1                	srli	a5,a5,0x30
  203186:	00210737          	lui	a4,0x210
  20318a:	18073683          	ld	a3,384(a4) # 210180 <reqPoolPtr>
  20318e:	2785                	addiw	a5,a5,1
  203190:	03079713          	slli	a4,a5,0x30
  203194:	9341                	srli	a4,a4,0x30
  203196:	fe442603          	lw	a2,-28(s0)
  20319a:	03400793          	li	a5,52
  20319e:	02f607b3          	mul	a5,a2,a5
  2031a2:	97b6                	add	a5,a5,a3
  2031a4:	02e79723          	sh	a4,46(a5)
  2031a8:	fe442783          	lw	a5,-28(s0)
  2031ac:	2785                	addiw	a5,a5,1
  2031ae:	fef42223          	sw	a5,-28(s0)
  2031b2:	fe442783          	lw	a5,-28(s0)
  2031b6:	0007871b          	sext.w	a4,a5
  2031ba:	6789                	lui	a5,0x2
  2031bc:	f2f74fe3          	blt	a4,a5,2030fa <InitReqPool+0x18c>
  2031c0:	002107b7          	lui	a5,0x210
  2031c4:	1807b783          	ld	a5,384(a5) # 210180 <reqPoolPtr>
  2031c8:	577d                	li	a4,-1
  2031ca:	02e79623          	sh	a4,44(a5)
  2031ce:	002107b7          	lui	a5,0x210
  2031d2:	1807b703          	ld	a4,384(a5) # 210180 <reqPoolPtr>
  2031d6:	000687b7          	lui	a5,0x68
  2031da:	97ba                	add	a5,a5,a4
  2031dc:	577d                	li	a4,-1
  2031de:	fee79d23          	sh	a4,-6(a5) # 67ffa <start-0x198006>
  2031e2:	002107b7          	lui	a5,0x210
  2031e6:	18878793          	addi	a5,a5,392 # 210188 <freeReqQ>
  2031ea:	6709                	lui	a4,0x2
  2031ec:	00e79223          	sh	a4,4(a5)
  2031f0:	002107b7          	lui	a5,0x210
  2031f4:	f607a423          	sw	zero,-152(a5) # 20ff68 <notCompletedNandReqCnt>
  2031f8:	002107b7          	lui	a5,0x210
  2031fc:	3807ac23          	sw	zero,920(a5) # 210398 <blockedReqCnt>
  203200:	0001                	nop
  203202:	6462                	ld	s0,24(sp)
  203204:	6105                	addi	sp,sp,32
  203206:	8082                	ret

0000000000203208 <PutToFreeReqQ>:
  203208:	1101                	addi	sp,sp,-32
  20320a:	ec22                	sd	s0,24(sp)
  20320c:	1000                	addi	s0,sp,32
  20320e:	87aa                	mv	a5,a0
  203210:	fef42623          	sw	a5,-20(s0)
  203214:	002107b7          	lui	a5,0x210
  203218:	18878793          	addi	a5,a5,392 # 210188 <freeReqQ>
  20321c:	0027d783          	lhu	a5,2(a5)
  203220:	0007871b          	sext.w	a4,a5
  203224:	67c1                	lui	a5,0x10
  203226:	17fd                	addi	a5,a5,-1
  203228:	08f70763          	beq	a4,a5,2032b6 <PutToFreeReqQ+0xae>
  20322c:	002107b7          	lui	a5,0x210
  203230:	1807b683          	ld	a3,384(a5) # 210180 <reqPoolPtr>
  203234:	002107b7          	lui	a5,0x210
  203238:	18878793          	addi	a5,a5,392 # 210188 <freeReqQ>
  20323c:	0027d703          	lhu	a4,2(a5)
  203240:	fec46603          	lwu	a2,-20(s0)
  203244:	03400793          	li	a5,52
  203248:	02f607b3          	mul	a5,a2,a5
  20324c:	97b6                	add	a5,a5,a3
  20324e:	02e79623          	sh	a4,44(a5)
  203252:	002107b7          	lui	a5,0x210
  203256:	1807b703          	ld	a4,384(a5) # 210180 <reqPoolPtr>
  20325a:	fec46683          	lwu	a3,-20(s0)
  20325e:	03400793          	li	a5,52
  203262:	02f687b3          	mul	a5,a3,a5
  203266:	97ba                	add	a5,a5,a4
  203268:	577d                	li	a4,-1
  20326a:	02e79723          	sh	a4,46(a5)
  20326e:	002107b7          	lui	a5,0x210
  203272:	1807b683          	ld	a3,384(a5) # 210180 <reqPoolPtr>
  203276:	002107b7          	lui	a5,0x210
  20327a:	18878793          	addi	a5,a5,392 # 210188 <freeReqQ>
  20327e:	0027d783          	lhu	a5,2(a5)
  203282:	0007861b          	sext.w	a2,a5
  203286:	fec42783          	lw	a5,-20(s0)
  20328a:	03079713          	slli	a4,a5,0x30
  20328e:	9341                	srli	a4,a4,0x30
  203290:	03400793          	li	a5,52
  203294:	02f607b3          	mul	a5,a2,a5
  203298:	97b6                	add	a5,a5,a3
  20329a:	02e79723          	sh	a4,46(a5)
  20329e:	fec42783          	lw	a5,-20(s0)
  2032a2:	03079713          	slli	a4,a5,0x30
  2032a6:	9341                	srli	a4,a4,0x30
  2032a8:	002107b7          	lui	a5,0x210
  2032ac:	18878793          	addi	a5,a5,392 # 210188 <freeReqQ>
  2032b0:	00e79123          	sh	a4,2(a5)
  2032b4:	a08d                	j	203316 <PutToFreeReqQ+0x10e>
  2032b6:	002107b7          	lui	a5,0x210
  2032ba:	1807b703          	ld	a4,384(a5) # 210180 <reqPoolPtr>
  2032be:	fec46683          	lwu	a3,-20(s0)
  2032c2:	03400793          	li	a5,52
  2032c6:	02f687b3          	mul	a5,a3,a5
  2032ca:	97ba                	add	a5,a5,a4
  2032cc:	577d                	li	a4,-1
  2032ce:	02e79623          	sh	a4,44(a5)
  2032d2:	002107b7          	lui	a5,0x210
  2032d6:	1807b703          	ld	a4,384(a5) # 210180 <reqPoolPtr>
  2032da:	fec46683          	lwu	a3,-20(s0)
  2032de:	03400793          	li	a5,52
  2032e2:	02f687b3          	mul	a5,a3,a5
  2032e6:	97ba                	add	a5,a5,a4
  2032e8:	577d                	li	a4,-1
  2032ea:	02e79723          	sh	a4,46(a5)
  2032ee:	fec42783          	lw	a5,-20(s0)
  2032f2:	03079713          	slli	a4,a5,0x30
  2032f6:	9341                	srli	a4,a4,0x30
  2032f8:	002107b7          	lui	a5,0x210
  2032fc:	18e79423          	sh	a4,392(a5) # 210188 <freeReqQ>
  203300:	fec42783          	lw	a5,-20(s0)
  203304:	03079713          	slli	a4,a5,0x30
  203308:	9341                	srli	a4,a4,0x30
  20330a:	002107b7          	lui	a5,0x210
  20330e:	18878793          	addi	a5,a5,392 # 210188 <freeReqQ>
  203312:	00e79123          	sh	a4,2(a5)
  203316:	002107b7          	lui	a5,0x210
  20331a:	1807b703          	ld	a4,384(a5) # 210180 <reqPoolPtr>
  20331e:	fec46683          	lwu	a3,-20(s0)
  203322:	03400793          	li	a5,52
  203326:	02f687b3          	mul	a5,a3,a5
  20332a:	97ba                	add	a5,a5,a4
  20332c:	4398                	lw	a4,0(a5)
  20332e:	f0f77713          	andi	a4,a4,-241
  203332:	01076713          	ori	a4,a4,16
  203336:	c398                	sw	a4,0(a5)
  203338:	002107b7          	lui	a5,0x210
  20333c:	18878793          	addi	a5,a5,392 # 210188 <freeReqQ>
  203340:	0047d783          	lhu	a5,4(a5)
  203344:	2785                	addiw	a5,a5,1
  203346:	03079713          	slli	a4,a5,0x30
  20334a:	9341                	srli	a4,a4,0x30
  20334c:	002107b7          	lui	a5,0x210
  203350:	18878793          	addi	a5,a5,392 # 210188 <freeReqQ>
  203354:	00e79223          	sh	a4,4(a5)
  203358:	0001                	nop
  20335a:	6462                	ld	s0,24(sp)
  20335c:	6105                	addi	sp,sp,32
  20335e:	8082                	ret

0000000000203360 <GetFromFreeReqQ>:
  203360:	1101                	addi	sp,sp,-32
  203362:	ec06                	sd	ra,24(sp)
  203364:	e822                	sd	s0,16(sp)
  203366:	1000                	addi	s0,sp,32
  203368:	002107b7          	lui	a5,0x210
  20336c:	1887d783          	lhu	a5,392(a5) # 210188 <freeReqQ>
  203370:	fef42623          	sw	a5,-20(s0)
  203374:	fec42783          	lw	a5,-20(s0)
  203378:	0007871b          	sext.w	a4,a5
  20337c:	67c1                	lui	a5,0x10
  20337e:	17fd                	addi	a5,a5,-1
  203380:	00f71a63          	bne	a4,a5,203394 <GetFromFreeReqQ+0x34>
  203384:	1c8020ef          	jal	ra,20554c <SyncAvailFreeReq>
  203388:	002107b7          	lui	a5,0x210
  20338c:	1887d783          	lhu	a5,392(a5) # 210188 <freeReqQ>
  203390:	fef42623          	sw	a5,-20(s0)
  203394:	002107b7          	lui	a5,0x210
  203398:	1807b703          	ld	a4,384(a5) # 210180 <reqPoolPtr>
  20339c:	fec46683          	lwu	a3,-20(s0)
  2033a0:	03400793          	li	a5,52
  2033a4:	02f687b3          	mul	a5,a3,a5
  2033a8:	97ba                	add	a5,a5,a4
  2033aa:	02e7d783          	lhu	a5,46(a5)
  2033ae:	0007871b          	sext.w	a4,a5
  2033b2:	67c1                	lui	a5,0x10
  2033b4:	17fd                	addi	a5,a5,-1
  2033b6:	04f70f63          	beq	a4,a5,203414 <GetFromFreeReqQ+0xb4>
  2033ba:	002107b7          	lui	a5,0x210
  2033be:	1807b703          	ld	a4,384(a5) # 210180 <reqPoolPtr>
  2033c2:	fec46683          	lwu	a3,-20(s0)
  2033c6:	03400793          	li	a5,52
  2033ca:	02f687b3          	mul	a5,a3,a5
  2033ce:	97ba                	add	a5,a5,a4
  2033d0:	02e7d703          	lhu	a4,46(a5)
  2033d4:	002107b7          	lui	a5,0x210
  2033d8:	18e79423          	sh	a4,392(a5) # 210188 <freeReqQ>
  2033dc:	002107b7          	lui	a5,0x210
  2033e0:	1807b703          	ld	a4,384(a5) # 210180 <reqPoolPtr>
  2033e4:	002107b7          	lui	a5,0x210
  2033e8:	1807b683          	ld	a3,384(a5) # 210180 <reqPoolPtr>
  2033ec:	fec46603          	lwu	a2,-20(s0)
  2033f0:	03400793          	li	a5,52
  2033f4:	02f607b3          	mul	a5,a2,a5
  2033f8:	97b6                	add	a5,a5,a3
  2033fa:	02e7d783          	lhu	a5,46(a5)
  2033fe:	0007869b          	sext.w	a3,a5
  203402:	03400793          	li	a5,52
  203406:	02f687b3          	mul	a5,a3,a5
  20340a:	97ba                	add	a5,a5,a4
  20340c:	577d                	li	a4,-1
  20340e:	02e79623          	sh	a4,44(a5)
  203412:	a829                	j	20342c <GetFromFreeReqQ+0xcc>
  203414:	002107b7          	lui	a5,0x210
  203418:	577d                	li	a4,-1
  20341a:	18e79423          	sh	a4,392(a5) # 210188 <freeReqQ>
  20341e:	002107b7          	lui	a5,0x210
  203422:	18878793          	addi	a5,a5,392 # 210188 <freeReqQ>
  203426:	577d                	li	a4,-1
  203428:	00e79123          	sh	a4,2(a5)
  20342c:	002107b7          	lui	a5,0x210
  203430:	1807b703          	ld	a4,384(a5) # 210180 <reqPoolPtr>
  203434:	fec46683          	lwu	a3,-20(s0)
  203438:	03400793          	li	a5,52
  20343c:	02f687b3          	mul	a5,a3,a5
  203440:	97ba                	add	a5,a5,a4
  203442:	4398                	lw	a4,0(a5)
  203444:	f0f77713          	andi	a4,a4,-241
  203448:	c398                	sw	a4,0(a5)
  20344a:	002107b7          	lui	a5,0x210
  20344e:	18878793          	addi	a5,a5,392 # 210188 <freeReqQ>
  203452:	0047d783          	lhu	a5,4(a5)
  203456:	37fd                	addiw	a5,a5,-1
  203458:	03079713          	slli	a4,a5,0x30
  20345c:	9341                	srli	a4,a4,0x30
  20345e:	002107b7          	lui	a5,0x210
  203462:	18878793          	addi	a5,a5,392 # 210188 <freeReqQ>
  203466:	00e79223          	sh	a4,4(a5)
  20346a:	fec42783          	lw	a5,-20(s0)
  20346e:	853e                	mv	a0,a5
  203470:	60e2                	ld	ra,24(sp)
  203472:	6442                	ld	s0,16(sp)
  203474:	6105                	addi	sp,sp,32
  203476:	8082                	ret

0000000000203478 <PutToSliceReqQ>:
  203478:	1101                	addi	sp,sp,-32
  20347a:	ec22                	sd	s0,24(sp)
  20347c:	1000                	addi	s0,sp,32
  20347e:	87aa                	mv	a5,a0
  203480:	fef42623          	sw	a5,-20(s0)
  203484:	002107b7          	lui	a5,0x210
  203488:	f7078793          	addi	a5,a5,-144 # 20ff70 <sliceReqQ>
  20348c:	0027d783          	lhu	a5,2(a5)
  203490:	0007871b          	sext.w	a4,a5
  203494:	67c1                	lui	a5,0x10
  203496:	17fd                	addi	a5,a5,-1
  203498:	08f70763          	beq	a4,a5,203526 <PutToSliceReqQ+0xae>
  20349c:	002107b7          	lui	a5,0x210
  2034a0:	1807b683          	ld	a3,384(a5) # 210180 <reqPoolPtr>
  2034a4:	002107b7          	lui	a5,0x210
  2034a8:	f7078793          	addi	a5,a5,-144 # 20ff70 <sliceReqQ>
  2034ac:	0027d703          	lhu	a4,2(a5)
  2034b0:	fec46603          	lwu	a2,-20(s0)
  2034b4:	03400793          	li	a5,52
  2034b8:	02f607b3          	mul	a5,a2,a5
  2034bc:	97b6                	add	a5,a5,a3
  2034be:	02e79623          	sh	a4,44(a5)
  2034c2:	002107b7          	lui	a5,0x210
  2034c6:	1807b703          	ld	a4,384(a5) # 210180 <reqPoolPtr>
  2034ca:	fec46683          	lwu	a3,-20(s0)
  2034ce:	03400793          	li	a5,52
  2034d2:	02f687b3          	mul	a5,a3,a5
  2034d6:	97ba                	add	a5,a5,a4
  2034d8:	577d                	li	a4,-1
  2034da:	02e79723          	sh	a4,46(a5)
  2034de:	002107b7          	lui	a5,0x210
  2034e2:	1807b683          	ld	a3,384(a5) # 210180 <reqPoolPtr>
  2034e6:	002107b7          	lui	a5,0x210
  2034ea:	f7078793          	addi	a5,a5,-144 # 20ff70 <sliceReqQ>
  2034ee:	0027d783          	lhu	a5,2(a5)
  2034f2:	0007861b          	sext.w	a2,a5
  2034f6:	fec42783          	lw	a5,-20(s0)
  2034fa:	03079713          	slli	a4,a5,0x30
  2034fe:	9341                	srli	a4,a4,0x30
  203500:	03400793          	li	a5,52
  203504:	02f607b3          	mul	a5,a2,a5
  203508:	97b6                	add	a5,a5,a3
  20350a:	02e79723          	sh	a4,46(a5)
  20350e:	fec42783          	lw	a5,-20(s0)
  203512:	03079713          	slli	a4,a5,0x30
  203516:	9341                	srli	a4,a4,0x30
  203518:	002107b7          	lui	a5,0x210
  20351c:	f7078793          	addi	a5,a5,-144 # 20ff70 <sliceReqQ>
  203520:	00e79123          	sh	a4,2(a5)
  203524:	a08d                	j	203586 <PutToSliceReqQ+0x10e>
  203526:	002107b7          	lui	a5,0x210
  20352a:	1807b703          	ld	a4,384(a5) # 210180 <reqPoolPtr>
  20352e:	fec46683          	lwu	a3,-20(s0)
  203532:	03400793          	li	a5,52
  203536:	02f687b3          	mul	a5,a3,a5
  20353a:	97ba                	add	a5,a5,a4
  20353c:	577d                	li	a4,-1
  20353e:	02e79623          	sh	a4,44(a5)
  203542:	002107b7          	lui	a5,0x210
  203546:	1807b703          	ld	a4,384(a5) # 210180 <reqPoolPtr>
  20354a:	fec46683          	lwu	a3,-20(s0)
  20354e:	03400793          	li	a5,52
  203552:	02f687b3          	mul	a5,a3,a5
  203556:	97ba                	add	a5,a5,a4
  203558:	577d                	li	a4,-1
  20355a:	02e79723          	sh	a4,46(a5)
  20355e:	fec42783          	lw	a5,-20(s0)
  203562:	03079713          	slli	a4,a5,0x30
  203566:	9341                	srli	a4,a4,0x30
  203568:	002107b7          	lui	a5,0x210
  20356c:	f6e79823          	sh	a4,-144(a5) # 20ff70 <sliceReqQ>
  203570:	fec42783          	lw	a5,-20(s0)
  203574:	03079713          	slli	a4,a5,0x30
  203578:	9341                	srli	a4,a4,0x30
  20357a:	002107b7          	lui	a5,0x210
  20357e:	f7078793          	addi	a5,a5,-144 # 20ff70 <sliceReqQ>
  203582:	00e79123          	sh	a4,2(a5)
  203586:	002107b7          	lui	a5,0x210
  20358a:	1807b703          	ld	a4,384(a5) # 210180 <reqPoolPtr>
  20358e:	fec46683          	lwu	a3,-20(s0)
  203592:	03400793          	li	a5,52
  203596:	02f687b3          	mul	a5,a3,a5
  20359a:	97ba                	add	a5,a5,a4
  20359c:	4398                	lw	a4,0(a5)
  20359e:	f0f77713          	andi	a4,a4,-241
  2035a2:	02076713          	ori	a4,a4,32
  2035a6:	c398                	sw	a4,0(a5)
  2035a8:	002107b7          	lui	a5,0x210
  2035ac:	f7078793          	addi	a5,a5,-144 # 20ff70 <sliceReqQ>
  2035b0:	0047d783          	lhu	a5,4(a5)
  2035b4:	2785                	addiw	a5,a5,1
  2035b6:	03079713          	slli	a4,a5,0x30
  2035ba:	9341                	srli	a4,a4,0x30
  2035bc:	002107b7          	lui	a5,0x210
  2035c0:	f7078793          	addi	a5,a5,-144 # 20ff70 <sliceReqQ>
  2035c4:	00e79223          	sh	a4,4(a5)
  2035c8:	0001                	nop
  2035ca:	6462                	ld	s0,24(sp)
  2035cc:	6105                	addi	sp,sp,32
  2035ce:	8082                	ret

00000000002035d0 <GetFromSliceReqQ>:
  2035d0:	1101                	addi	sp,sp,-32
  2035d2:	ec22                	sd	s0,24(sp)
  2035d4:	1000                	addi	s0,sp,32
  2035d6:	002107b7          	lui	a5,0x210
  2035da:	f707d783          	lhu	a5,-144(a5) # 20ff70 <sliceReqQ>
  2035de:	fef42623          	sw	a5,-20(s0)
  2035e2:	fec42783          	lw	a5,-20(s0)
  2035e6:	0007871b          	sext.w	a4,a5
  2035ea:	67c1                	lui	a5,0x10
  2035ec:	17fd                	addi	a5,a5,-1
  2035ee:	00f71563          	bne	a4,a5,2035f8 <GetFromSliceReqQ+0x28>
  2035f2:	67c1                	lui	a5,0x10
  2035f4:	17fd                	addi	a5,a5,-1
  2035f6:	a8f1                	j	2036d2 <GetFromSliceReqQ+0x102>
  2035f8:	002107b7          	lui	a5,0x210
  2035fc:	1807b703          	ld	a4,384(a5) # 210180 <reqPoolPtr>
  203600:	fec46683          	lwu	a3,-20(s0)
  203604:	03400793          	li	a5,52
  203608:	02f687b3          	mul	a5,a3,a5
  20360c:	97ba                	add	a5,a5,a4
  20360e:	02e7d783          	lhu	a5,46(a5)
  203612:	0007871b          	sext.w	a4,a5
  203616:	67c1                	lui	a5,0x10
  203618:	17fd                	addi	a5,a5,-1
  20361a:	04f70f63          	beq	a4,a5,203678 <GetFromSliceReqQ+0xa8>
  20361e:	002107b7          	lui	a5,0x210
  203622:	1807b703          	ld	a4,384(a5) # 210180 <reqPoolPtr>
  203626:	fec46683          	lwu	a3,-20(s0)
  20362a:	03400793          	li	a5,52
  20362e:	02f687b3          	mul	a5,a3,a5
  203632:	97ba                	add	a5,a5,a4
  203634:	02e7d703          	lhu	a4,46(a5)
  203638:	002107b7          	lui	a5,0x210
  20363c:	f6e79823          	sh	a4,-144(a5) # 20ff70 <sliceReqQ>
  203640:	002107b7          	lui	a5,0x210
  203644:	1807b703          	ld	a4,384(a5) # 210180 <reqPoolPtr>
  203648:	002107b7          	lui	a5,0x210
  20364c:	1807b683          	ld	a3,384(a5) # 210180 <reqPoolPtr>
  203650:	fec46603          	lwu	a2,-20(s0)
  203654:	03400793          	li	a5,52
  203658:	02f607b3          	mul	a5,a2,a5
  20365c:	97b6                	add	a5,a5,a3
  20365e:	02e7d783          	lhu	a5,46(a5)
  203662:	0007869b          	sext.w	a3,a5
  203666:	03400793          	li	a5,52
  20366a:	02f687b3          	mul	a5,a3,a5
  20366e:	97ba                	add	a5,a5,a4
  203670:	577d                	li	a4,-1
  203672:	02e79623          	sh	a4,44(a5)
  203676:	a829                	j	203690 <GetFromSliceReqQ+0xc0>
  203678:	002107b7          	lui	a5,0x210
  20367c:	577d                	li	a4,-1
  20367e:	f6e79823          	sh	a4,-144(a5) # 20ff70 <sliceReqQ>
  203682:	002107b7          	lui	a5,0x210
  203686:	f7078793          	addi	a5,a5,-144 # 20ff70 <sliceReqQ>
  20368a:	577d                	li	a4,-1
  20368c:	00e79123          	sh	a4,2(a5)
  203690:	002107b7          	lui	a5,0x210
  203694:	1807b703          	ld	a4,384(a5) # 210180 <reqPoolPtr>
  203698:	fec46683          	lwu	a3,-20(s0)
  20369c:	03400793          	li	a5,52
  2036a0:	02f687b3          	mul	a5,a3,a5
  2036a4:	97ba                	add	a5,a5,a4
  2036a6:	4398                	lw	a4,0(a5)
  2036a8:	f0f77713          	andi	a4,a4,-241
  2036ac:	c398                	sw	a4,0(a5)
  2036ae:	002107b7          	lui	a5,0x210
  2036b2:	f7078793          	addi	a5,a5,-144 # 20ff70 <sliceReqQ>
  2036b6:	0047d783          	lhu	a5,4(a5)
  2036ba:	37fd                	addiw	a5,a5,-1
  2036bc:	03079713          	slli	a4,a5,0x30
  2036c0:	9341                	srli	a4,a4,0x30
  2036c2:	002107b7          	lui	a5,0x210
  2036c6:	f7078793          	addi	a5,a5,-144 # 20ff70 <sliceReqQ>
  2036ca:	00e79223          	sh	a4,4(a5)
  2036ce:	fec42783          	lw	a5,-20(s0)
  2036d2:	853e                	mv	a0,a5
  2036d4:	6462                	ld	s0,24(sp)
  2036d6:	6105                	addi	sp,sp,32
  2036d8:	8082                	ret

00000000002036da <PutToBlockedByBufDepReqQ>:
  2036da:	1101                	addi	sp,sp,-32
  2036dc:	ec22                	sd	s0,24(sp)
  2036de:	1000                	addi	s0,sp,32
  2036e0:	87aa                	mv	a5,a0
  2036e2:	fef42623          	sw	a5,-20(s0)
  2036e6:	002107b7          	lui	a5,0x210
  2036ea:	f7878793          	addi	a5,a5,-136 # 20ff78 <blockedByBufDepReqQ>
  2036ee:	0027d783          	lhu	a5,2(a5)
  2036f2:	0007871b          	sext.w	a4,a5
  2036f6:	67c1                	lui	a5,0x10
  2036f8:	17fd                	addi	a5,a5,-1
  2036fa:	08f70763          	beq	a4,a5,203788 <PutToBlockedByBufDepReqQ+0xae>
  2036fe:	002107b7          	lui	a5,0x210
  203702:	1807b683          	ld	a3,384(a5) # 210180 <reqPoolPtr>
  203706:	002107b7          	lui	a5,0x210
  20370a:	f7878793          	addi	a5,a5,-136 # 20ff78 <blockedByBufDepReqQ>
  20370e:	0027d703          	lhu	a4,2(a5)
  203712:	fec46603          	lwu	a2,-20(s0)
  203716:	03400793          	li	a5,52
  20371a:	02f607b3          	mul	a5,a2,a5
  20371e:	97b6                	add	a5,a5,a3
  203720:	02e79623          	sh	a4,44(a5)
  203724:	002107b7          	lui	a5,0x210
  203728:	1807b703          	ld	a4,384(a5) # 210180 <reqPoolPtr>
  20372c:	fec46683          	lwu	a3,-20(s0)
  203730:	03400793          	li	a5,52
  203734:	02f687b3          	mul	a5,a3,a5
  203738:	97ba                	add	a5,a5,a4
  20373a:	577d                	li	a4,-1
  20373c:	02e79723          	sh	a4,46(a5)
  203740:	002107b7          	lui	a5,0x210
  203744:	1807b683          	ld	a3,384(a5) # 210180 <reqPoolPtr>
  203748:	002107b7          	lui	a5,0x210
  20374c:	f7878793          	addi	a5,a5,-136 # 20ff78 <blockedByBufDepReqQ>
  203750:	0027d783          	lhu	a5,2(a5)
  203754:	0007861b          	sext.w	a2,a5
  203758:	fec42783          	lw	a5,-20(s0)
  20375c:	03079713          	slli	a4,a5,0x30
  203760:	9341                	srli	a4,a4,0x30
  203762:	03400793          	li	a5,52
  203766:	02f607b3          	mul	a5,a2,a5
  20376a:	97b6                	add	a5,a5,a3
  20376c:	02e79723          	sh	a4,46(a5)
  203770:	fec42783          	lw	a5,-20(s0)
  203774:	03079713          	slli	a4,a5,0x30
  203778:	9341                	srli	a4,a4,0x30
  20377a:	002107b7          	lui	a5,0x210
  20377e:	f7878793          	addi	a5,a5,-136 # 20ff78 <blockedByBufDepReqQ>
  203782:	00e79123          	sh	a4,2(a5)
  203786:	a08d                	j	2037e8 <PutToBlockedByBufDepReqQ+0x10e>
  203788:	002107b7          	lui	a5,0x210
  20378c:	1807b703          	ld	a4,384(a5) # 210180 <reqPoolPtr>
  203790:	fec46683          	lwu	a3,-20(s0)
  203794:	03400793          	li	a5,52
  203798:	02f687b3          	mul	a5,a3,a5
  20379c:	97ba                	add	a5,a5,a4
  20379e:	577d                	li	a4,-1
  2037a0:	02e79623          	sh	a4,44(a5)
  2037a4:	002107b7          	lui	a5,0x210
  2037a8:	1807b703          	ld	a4,384(a5) # 210180 <reqPoolPtr>
  2037ac:	fec46683          	lwu	a3,-20(s0)
  2037b0:	03400793          	li	a5,52
  2037b4:	02f687b3          	mul	a5,a3,a5
  2037b8:	97ba                	add	a5,a5,a4
  2037ba:	577d                	li	a4,-1
  2037bc:	02e79723          	sh	a4,46(a5)
  2037c0:	fec42783          	lw	a5,-20(s0)
  2037c4:	03079713          	slli	a4,a5,0x30
  2037c8:	9341                	srli	a4,a4,0x30
  2037ca:	002107b7          	lui	a5,0x210
  2037ce:	f6e79c23          	sh	a4,-136(a5) # 20ff78 <blockedByBufDepReqQ>
  2037d2:	fec42783          	lw	a5,-20(s0)
  2037d6:	03079713          	slli	a4,a5,0x30
  2037da:	9341                	srli	a4,a4,0x30
  2037dc:	002107b7          	lui	a5,0x210
  2037e0:	f7878793          	addi	a5,a5,-136 # 20ff78 <blockedByBufDepReqQ>
  2037e4:	00e79123          	sh	a4,2(a5)
  2037e8:	002107b7          	lui	a5,0x210
  2037ec:	1807b703          	ld	a4,384(a5) # 210180 <reqPoolPtr>
  2037f0:	fec46683          	lwu	a3,-20(s0)
  2037f4:	03400793          	li	a5,52
  2037f8:	02f687b3          	mul	a5,a3,a5
  2037fc:	97ba                	add	a5,a5,a4
  2037fe:	4398                	lw	a4,0(a5)
  203800:	f0f77713          	andi	a4,a4,-241
  203804:	03076713          	ori	a4,a4,48
  203808:	c398                	sw	a4,0(a5)
  20380a:	002107b7          	lui	a5,0x210
  20380e:	f7878793          	addi	a5,a5,-136 # 20ff78 <blockedByBufDepReqQ>
  203812:	0047d783          	lhu	a5,4(a5)
  203816:	2785                	addiw	a5,a5,1
  203818:	03079713          	slli	a4,a5,0x30
  20381c:	9341                	srli	a4,a4,0x30
  20381e:	002107b7          	lui	a5,0x210
  203822:	f7878793          	addi	a5,a5,-136 # 20ff78 <blockedByBufDepReqQ>
  203826:	00e79223          	sh	a4,4(a5)
  20382a:	002107b7          	lui	a5,0x210
  20382e:	3987a783          	lw	a5,920(a5) # 210398 <blockedReqCnt>
  203832:	2785                	addiw	a5,a5,1
  203834:	0007871b          	sext.w	a4,a5
  203838:	002107b7          	lui	a5,0x210
  20383c:	38e7ac23          	sw	a4,920(a5) # 210398 <blockedReqCnt>
  203840:	0001                	nop
  203842:	6462                	ld	s0,24(sp)
  203844:	6105                	addi	sp,sp,32
  203846:	8082                	ret

0000000000203848 <SelectiveGetFromBlockedByBufDepReqQ>:
  203848:	7179                	addi	sp,sp,-48
  20384a:	f406                	sd	ra,40(sp)
  20384c:	f022                	sd	s0,32(sp)
  20384e:	1800                	addi	s0,sp,48
  203850:	87aa                	mv	a5,a0
  203852:	fcf42e23          	sw	a5,-36(s0)
  203856:	fdc42783          	lw	a5,-36(s0)
  20385a:	0007871b          	sext.w	a4,a5
  20385e:	67c1                	lui	a5,0x10
  203860:	17fd                	addi	a5,a5,-1
  203862:	00f71863          	bne	a4,a5,203872 <SelectiveGetFromBlockedByBufDepReqQ+0x2a>
  203866:	0020f7b7          	lui	a5,0x20f
  20386a:	11878513          	addi	a0,a5,280 # 20f118 <nvme_main+0x662>
  20386e:	54b000ef          	jal	ra,2045b8 <cpl_print>
  203872:	002107b7          	lui	a5,0x210
  203876:	1807b703          	ld	a4,384(a5) # 210180 <reqPoolPtr>
  20387a:	fdc46683          	lwu	a3,-36(s0)
  20387e:	03400793          	li	a5,52
  203882:	02f687b3          	mul	a5,a3,a5
  203886:	97ba                	add	a5,a5,a4
  203888:	02c7d783          	lhu	a5,44(a5)
  20388c:	fef42623          	sw	a5,-20(s0)
  203890:	002107b7          	lui	a5,0x210
  203894:	1807b703          	ld	a4,384(a5) # 210180 <reqPoolPtr>
  203898:	fdc46683          	lwu	a3,-36(s0)
  20389c:	03400793          	li	a5,52
  2038a0:	02f687b3          	mul	a5,a3,a5
  2038a4:	97ba                	add	a5,a5,a4
  2038a6:	02e7d783          	lhu	a5,46(a5)
  2038aa:	fef42423          	sw	a5,-24(s0)
  2038ae:	fe842783          	lw	a5,-24(s0)
  2038b2:	0007871b          	sext.w	a4,a5
  2038b6:	67c1                	lui	a5,0x10
  2038b8:	17fd                	addi	a5,a5,-1
  2038ba:	04f70f63          	beq	a4,a5,203918 <SelectiveGetFromBlockedByBufDepReqQ+0xd0>
  2038be:	fec42783          	lw	a5,-20(s0)
  2038c2:	0007871b          	sext.w	a4,a5
  2038c6:	67c1                	lui	a5,0x10
  2038c8:	17fd                	addi	a5,a5,-1
  2038ca:	04f70763          	beq	a4,a5,203918 <SelectiveGetFromBlockedByBufDepReqQ+0xd0>
  2038ce:	002107b7          	lui	a5,0x210
  2038d2:	1807b683          	ld	a3,384(a5) # 210180 <reqPoolPtr>
  2038d6:	fe842783          	lw	a5,-24(s0)
  2038da:	03079713          	slli	a4,a5,0x30
  2038de:	9341                	srli	a4,a4,0x30
  2038e0:	fec46603          	lwu	a2,-20(s0)
  2038e4:	03400793          	li	a5,52
  2038e8:	02f607b3          	mul	a5,a2,a5
  2038ec:	97b6                	add	a5,a5,a3
  2038ee:	02e79723          	sh	a4,46(a5)
  2038f2:	002107b7          	lui	a5,0x210
  2038f6:	1807b683          	ld	a3,384(a5) # 210180 <reqPoolPtr>
  2038fa:	fec42783          	lw	a5,-20(s0)
  2038fe:	03079713          	slli	a4,a5,0x30
  203902:	9341                	srli	a4,a4,0x30
  203904:	fe846603          	lwu	a2,-24(s0)
  203908:	03400793          	li	a5,52
  20390c:	02f607b3          	mul	a5,a2,a5
  203910:	97b6                	add	a5,a5,a3
  203912:	02e79623          	sh	a4,44(a5)
  203916:	a87d                	j	2039d4 <SelectiveGetFromBlockedByBufDepReqQ+0x18c>
  203918:	fe842783          	lw	a5,-24(s0)
  20391c:	0007871b          	sext.w	a4,a5
  203920:	67c1                	lui	a5,0x10
  203922:	17fd                	addi	a5,a5,-1
  203924:	04f71463          	bne	a4,a5,20396c <SelectiveGetFromBlockedByBufDepReqQ+0x124>
  203928:	fec42783          	lw	a5,-20(s0)
  20392c:	0007871b          	sext.w	a4,a5
  203930:	67c1                	lui	a5,0x10
  203932:	17fd                	addi	a5,a5,-1
  203934:	02f70c63          	beq	a4,a5,20396c <SelectiveGetFromBlockedByBufDepReqQ+0x124>
  203938:	002107b7          	lui	a5,0x210
  20393c:	1807b703          	ld	a4,384(a5) # 210180 <reqPoolPtr>
  203940:	fec46683          	lwu	a3,-20(s0)
  203944:	03400793          	li	a5,52
  203948:	02f687b3          	mul	a5,a3,a5
  20394c:	97ba                	add	a5,a5,a4
  20394e:	577d                	li	a4,-1
  203950:	02e79723          	sh	a4,46(a5)
  203954:	fec42783          	lw	a5,-20(s0)
  203958:	03079713          	slli	a4,a5,0x30
  20395c:	9341                	srli	a4,a4,0x30
  20395e:	002107b7          	lui	a5,0x210
  203962:	f7878793          	addi	a5,a5,-136 # 20ff78 <blockedByBufDepReqQ>
  203966:	00e79123          	sh	a4,2(a5)
  20396a:	a0ad                	j	2039d4 <SelectiveGetFromBlockedByBufDepReqQ+0x18c>
  20396c:	fe842783          	lw	a5,-24(s0)
  203970:	0007871b          	sext.w	a4,a5
  203974:	67c1                	lui	a5,0x10
  203976:	17fd                	addi	a5,a5,-1
  203978:	04f70263          	beq	a4,a5,2039bc <SelectiveGetFromBlockedByBufDepReqQ+0x174>
  20397c:	fec42783          	lw	a5,-20(s0)
  203980:	0007871b          	sext.w	a4,a5
  203984:	67c1                	lui	a5,0x10
  203986:	17fd                	addi	a5,a5,-1
  203988:	02f71a63          	bne	a4,a5,2039bc <SelectiveGetFromBlockedByBufDepReqQ+0x174>
  20398c:	002107b7          	lui	a5,0x210
  203990:	1807b703          	ld	a4,384(a5) # 210180 <reqPoolPtr>
  203994:	fe846683          	lwu	a3,-24(s0)
  203998:	03400793          	li	a5,52
  20399c:	02f687b3          	mul	a5,a3,a5
  2039a0:	97ba                	add	a5,a5,a4
  2039a2:	577d                	li	a4,-1
  2039a4:	02e79623          	sh	a4,44(a5)
  2039a8:	fe842783          	lw	a5,-24(s0)
  2039ac:	03079713          	slli	a4,a5,0x30
  2039b0:	9341                	srli	a4,a4,0x30
  2039b2:	002107b7          	lui	a5,0x210
  2039b6:	f6e79c23          	sh	a4,-136(a5) # 20ff78 <blockedByBufDepReqQ>
  2039ba:	a829                	j	2039d4 <SelectiveGetFromBlockedByBufDepReqQ+0x18c>
  2039bc:	002107b7          	lui	a5,0x210
  2039c0:	577d                	li	a4,-1
  2039c2:	f6e79c23          	sh	a4,-136(a5) # 20ff78 <blockedByBufDepReqQ>
  2039c6:	002107b7          	lui	a5,0x210
  2039ca:	f7878793          	addi	a5,a5,-136 # 20ff78 <blockedByBufDepReqQ>
  2039ce:	577d                	li	a4,-1
  2039d0:	00e79123          	sh	a4,2(a5)
  2039d4:	002107b7          	lui	a5,0x210
  2039d8:	1807b703          	ld	a4,384(a5) # 210180 <reqPoolPtr>
  2039dc:	fdc46683          	lwu	a3,-36(s0)
  2039e0:	03400793          	li	a5,52
  2039e4:	02f687b3          	mul	a5,a3,a5
  2039e8:	97ba                	add	a5,a5,a4
  2039ea:	4398                	lw	a4,0(a5)
  2039ec:	f0f77713          	andi	a4,a4,-241
  2039f0:	c398                	sw	a4,0(a5)
  2039f2:	002107b7          	lui	a5,0x210
  2039f6:	f7878793          	addi	a5,a5,-136 # 20ff78 <blockedByBufDepReqQ>
  2039fa:	0047d783          	lhu	a5,4(a5)
  2039fe:	37fd                	addiw	a5,a5,-1
  203a00:	03079713          	slli	a4,a5,0x30
  203a04:	9341                	srli	a4,a4,0x30
  203a06:	002107b7          	lui	a5,0x210
  203a0a:	f7878793          	addi	a5,a5,-136 # 20ff78 <blockedByBufDepReqQ>
  203a0e:	00e79223          	sh	a4,4(a5)
  203a12:	002107b7          	lui	a5,0x210
  203a16:	3987a783          	lw	a5,920(a5) # 210398 <blockedReqCnt>
  203a1a:	37fd                	addiw	a5,a5,-1
  203a1c:	0007871b          	sext.w	a4,a5
  203a20:	002107b7          	lui	a5,0x210
  203a24:	38e7ac23          	sw	a4,920(a5) # 210398 <blockedReqCnt>
  203a28:	0001                	nop
  203a2a:	70a2                	ld	ra,40(sp)
  203a2c:	7402                	ld	s0,32(sp)
  203a2e:	6145                	addi	sp,sp,48
  203a30:	8082                	ret

0000000000203a32 <PutToBlockedByRowAddrDepReqQ>:
  203a32:	1101                	addi	sp,sp,-32
  203a34:	ec22                	sd	s0,24(sp)
  203a36:	1000                	addi	s0,sp,32
  203a38:	87aa                	mv	a5,a0
  203a3a:	86ae                	mv	a3,a1
  203a3c:	8732                	mv	a4,a2
  203a3e:	fef42623          	sw	a5,-20(s0)
  203a42:	87b6                	mv	a5,a3
  203a44:	fef42423          	sw	a5,-24(s0)
  203a48:	87ba                	mv	a5,a4
  203a4a:	fef42223          	sw	a5,-28(s0)
  203a4e:	002107b7          	lui	a5,0x210
  203a52:	f8078713          	addi	a4,a5,-128 # 20ff80 <blockedByRowAddrDepReqQ>
  203a56:	fe446783          	lwu	a5,-28(s0)
  203a5a:	fe846683          	lwu	a3,-24(s0)
  203a5e:	068e                	slli	a3,a3,0x3
  203a60:	97b6                	add	a5,a5,a3
  203a62:	078e                	slli	a5,a5,0x3
  203a64:	97ba                	add	a5,a5,a4
  203a66:	0027d783          	lhu	a5,2(a5)
  203a6a:	0007871b          	sext.w	a4,a5
  203a6e:	67c1                	lui	a5,0x10
  203a70:	17fd                	addi	a5,a5,-1
  203a72:	0af70f63          	beq	a4,a5,203b30 <PutToBlockedByRowAddrDepReqQ+0xfe>
  203a76:	002107b7          	lui	a5,0x210
  203a7a:	1807b683          	ld	a3,384(a5) # 210180 <reqPoolPtr>
  203a7e:	002107b7          	lui	a5,0x210
  203a82:	f8078713          	addi	a4,a5,-128 # 20ff80 <blockedByRowAddrDepReqQ>
  203a86:	fe446783          	lwu	a5,-28(s0)
  203a8a:	fe846603          	lwu	a2,-24(s0)
  203a8e:	060e                	slli	a2,a2,0x3
  203a90:	97b2                	add	a5,a5,a2
  203a92:	078e                	slli	a5,a5,0x3
  203a94:	97ba                	add	a5,a5,a4
  203a96:	0027d703          	lhu	a4,2(a5)
  203a9a:	fec46603          	lwu	a2,-20(s0)
  203a9e:	03400793          	li	a5,52
  203aa2:	02f607b3          	mul	a5,a2,a5
  203aa6:	97b6                	add	a5,a5,a3
  203aa8:	02e79623          	sh	a4,44(a5)
  203aac:	002107b7          	lui	a5,0x210
  203ab0:	1807b703          	ld	a4,384(a5) # 210180 <reqPoolPtr>
  203ab4:	fec46683          	lwu	a3,-20(s0)
  203ab8:	03400793          	li	a5,52
  203abc:	02f687b3          	mul	a5,a3,a5
  203ac0:	97ba                	add	a5,a5,a4
  203ac2:	577d                	li	a4,-1
  203ac4:	02e79723          	sh	a4,46(a5)
  203ac8:	002107b7          	lui	a5,0x210
  203acc:	1807b683          	ld	a3,384(a5) # 210180 <reqPoolPtr>
  203ad0:	002107b7          	lui	a5,0x210
  203ad4:	f8078713          	addi	a4,a5,-128 # 20ff80 <blockedByRowAddrDepReqQ>
  203ad8:	fe446783          	lwu	a5,-28(s0)
  203adc:	fe846603          	lwu	a2,-24(s0)
  203ae0:	060e                	slli	a2,a2,0x3
  203ae2:	97b2                	add	a5,a5,a2
  203ae4:	078e                	slli	a5,a5,0x3
  203ae6:	97ba                	add	a5,a5,a4
  203ae8:	0027d783          	lhu	a5,2(a5)
  203aec:	0007861b          	sext.w	a2,a5
  203af0:	fec42783          	lw	a5,-20(s0)
  203af4:	03079713          	slli	a4,a5,0x30
  203af8:	9341                	srli	a4,a4,0x30
  203afa:	03400793          	li	a5,52
  203afe:	02f607b3          	mul	a5,a2,a5
  203b02:	97b6                	add	a5,a5,a3
  203b04:	02e79723          	sh	a4,46(a5)
  203b08:	fec42783          	lw	a5,-20(s0)
  203b0c:	03079713          	slli	a4,a5,0x30
  203b10:	9341                	srli	a4,a4,0x30
  203b12:	002107b7          	lui	a5,0x210
  203b16:	f8078693          	addi	a3,a5,-128 # 20ff80 <blockedByRowAddrDepReqQ>
  203b1a:	fe446783          	lwu	a5,-28(s0)
  203b1e:	fe846603          	lwu	a2,-24(s0)
  203b22:	060e                	slli	a2,a2,0x3
  203b24:	97b2                	add	a5,a5,a2
  203b26:	078e                	slli	a5,a5,0x3
  203b28:	97b6                	add	a5,a5,a3
  203b2a:	00e79123          	sh	a4,2(a5)
  203b2e:	a059                	j	203bb4 <PutToBlockedByRowAddrDepReqQ+0x182>
  203b30:	002107b7          	lui	a5,0x210
  203b34:	1807b703          	ld	a4,384(a5) # 210180 <reqPoolPtr>
  203b38:	fec46683          	lwu	a3,-20(s0)
  203b3c:	03400793          	li	a5,52
  203b40:	02f687b3          	mul	a5,a3,a5
  203b44:	97ba                	add	a5,a5,a4
  203b46:	577d                	li	a4,-1
  203b48:	02e79623          	sh	a4,44(a5)
  203b4c:	002107b7          	lui	a5,0x210
  203b50:	1807b703          	ld	a4,384(a5) # 210180 <reqPoolPtr>
  203b54:	fec46683          	lwu	a3,-20(s0)
  203b58:	03400793          	li	a5,52
  203b5c:	02f687b3          	mul	a5,a3,a5
  203b60:	97ba                	add	a5,a5,a4
  203b62:	577d                	li	a4,-1
  203b64:	02e79723          	sh	a4,46(a5)
  203b68:	fec42783          	lw	a5,-20(s0)
  203b6c:	03079713          	slli	a4,a5,0x30
  203b70:	9341                	srli	a4,a4,0x30
  203b72:	002107b7          	lui	a5,0x210
  203b76:	f8078693          	addi	a3,a5,-128 # 20ff80 <blockedByRowAddrDepReqQ>
  203b7a:	fe446783          	lwu	a5,-28(s0)
  203b7e:	fe846603          	lwu	a2,-24(s0)
  203b82:	060e                	slli	a2,a2,0x3
  203b84:	97b2                	add	a5,a5,a2
  203b86:	078e                	slli	a5,a5,0x3
  203b88:	97b6                	add	a5,a5,a3
  203b8a:	00e79023          	sh	a4,0(a5)
  203b8e:	fec42783          	lw	a5,-20(s0)
  203b92:	03079713          	slli	a4,a5,0x30
  203b96:	9341                	srli	a4,a4,0x30
  203b98:	002107b7          	lui	a5,0x210
  203b9c:	f8078693          	addi	a3,a5,-128 # 20ff80 <blockedByRowAddrDepReqQ>
  203ba0:	fe446783          	lwu	a5,-28(s0)
  203ba4:	fe846603          	lwu	a2,-24(s0)
  203ba8:	060e                	slli	a2,a2,0x3
  203baa:	97b2                	add	a5,a5,a2
  203bac:	078e                	slli	a5,a5,0x3
  203bae:	97b6                	add	a5,a5,a3
  203bb0:	00e79123          	sh	a4,2(a5)
  203bb4:	002107b7          	lui	a5,0x210
  203bb8:	1807b703          	ld	a4,384(a5) # 210180 <reqPoolPtr>
  203bbc:	fec46683          	lwu	a3,-20(s0)
  203bc0:	03400793          	li	a5,52
  203bc4:	02f687b3          	mul	a5,a3,a5
  203bc8:	97ba                	add	a5,a5,a4
  203bca:	4398                	lw	a4,0(a5)
  203bcc:	f0f77713          	andi	a4,a4,-241
  203bd0:	04076713          	ori	a4,a4,64
  203bd4:	c398                	sw	a4,0(a5)
  203bd6:	002107b7          	lui	a5,0x210
  203bda:	f8078713          	addi	a4,a5,-128 # 20ff80 <blockedByRowAddrDepReqQ>
  203bde:	fe446783          	lwu	a5,-28(s0)
  203be2:	fe846683          	lwu	a3,-24(s0)
  203be6:	068e                	slli	a3,a3,0x3
  203be8:	97b6                	add	a5,a5,a3
  203bea:	078e                	slli	a5,a5,0x3
  203bec:	97ba                	add	a5,a5,a4
  203bee:	0047d783          	lhu	a5,4(a5)
  203bf2:	2785                	addiw	a5,a5,1
  203bf4:	03079713          	slli	a4,a5,0x30
  203bf8:	9341                	srli	a4,a4,0x30
  203bfa:	002107b7          	lui	a5,0x210
  203bfe:	f8078693          	addi	a3,a5,-128 # 20ff80 <blockedByRowAddrDepReqQ>
  203c02:	fe446783          	lwu	a5,-28(s0)
  203c06:	fe846603          	lwu	a2,-24(s0)
  203c0a:	060e                	slli	a2,a2,0x3
  203c0c:	97b2                	add	a5,a5,a2
  203c0e:	078e                	slli	a5,a5,0x3
  203c10:	97b6                	add	a5,a5,a3
  203c12:	00e79223          	sh	a4,4(a5)
  203c16:	002107b7          	lui	a5,0x210
  203c1a:	3987a783          	lw	a5,920(a5) # 210398 <blockedReqCnt>
  203c1e:	2785                	addiw	a5,a5,1
  203c20:	0007871b          	sext.w	a4,a5
  203c24:	002107b7          	lui	a5,0x210
  203c28:	38e7ac23          	sw	a4,920(a5) # 210398 <blockedReqCnt>
  203c2c:	0001                	nop
  203c2e:	6462                	ld	s0,24(sp)
  203c30:	6105                	addi	sp,sp,32
  203c32:	8082                	ret

0000000000203c34 <SelectiveGetFromBlockedByRowAddrDepReqQ>:
  203c34:	7179                	addi	sp,sp,-48
  203c36:	f406                	sd	ra,40(sp)
  203c38:	f022                	sd	s0,32(sp)
  203c3a:	1800                	addi	s0,sp,48
  203c3c:	87aa                	mv	a5,a0
  203c3e:	86ae                	mv	a3,a1
  203c40:	8732                	mv	a4,a2
  203c42:	fcf42e23          	sw	a5,-36(s0)
  203c46:	87b6                	mv	a5,a3
  203c48:	fcf42c23          	sw	a5,-40(s0)
  203c4c:	87ba                	mv	a5,a4
  203c4e:	fcf42a23          	sw	a5,-44(s0)
  203c52:	fdc42783          	lw	a5,-36(s0)
  203c56:	0007871b          	sext.w	a4,a5
  203c5a:	67c1                	lui	a5,0x10
  203c5c:	17fd                	addi	a5,a5,-1
  203c5e:	00f71863          	bne	a4,a5,203c6e <SelectiveGetFromBlockedByRowAddrDepReqQ+0x3a>
  203c62:	0020f7b7          	lui	a5,0x20f
  203c66:	11878513          	addi	a0,a5,280 # 20f118 <nvme_main+0x662>
  203c6a:	14f000ef          	jal	ra,2045b8 <cpl_print>
  203c6e:	002107b7          	lui	a5,0x210
  203c72:	1807b703          	ld	a4,384(a5) # 210180 <reqPoolPtr>
  203c76:	fdc46683          	lwu	a3,-36(s0)
  203c7a:	03400793          	li	a5,52
  203c7e:	02f687b3          	mul	a5,a3,a5
  203c82:	97ba                	add	a5,a5,a4
  203c84:	02c7d783          	lhu	a5,44(a5)
  203c88:	fef42623          	sw	a5,-20(s0)
  203c8c:	002107b7          	lui	a5,0x210
  203c90:	1807b703          	ld	a4,384(a5) # 210180 <reqPoolPtr>
  203c94:	fdc46683          	lwu	a3,-36(s0)
  203c98:	03400793          	li	a5,52
  203c9c:	02f687b3          	mul	a5,a3,a5
  203ca0:	97ba                	add	a5,a5,a4
  203ca2:	02e7d783          	lhu	a5,46(a5)
  203ca6:	fef42423          	sw	a5,-24(s0)
  203caa:	fe842783          	lw	a5,-24(s0)
  203cae:	0007871b          	sext.w	a4,a5
  203cb2:	67c1                	lui	a5,0x10
  203cb4:	17fd                	addi	a5,a5,-1
  203cb6:	04f70f63          	beq	a4,a5,203d14 <SelectiveGetFromBlockedByRowAddrDepReqQ+0xe0>
  203cba:	fec42783          	lw	a5,-20(s0)
  203cbe:	0007871b          	sext.w	a4,a5
  203cc2:	67c1                	lui	a5,0x10
  203cc4:	17fd                	addi	a5,a5,-1
  203cc6:	04f70763          	beq	a4,a5,203d14 <SelectiveGetFromBlockedByRowAddrDepReqQ+0xe0>
  203cca:	002107b7          	lui	a5,0x210
  203cce:	1807b683          	ld	a3,384(a5) # 210180 <reqPoolPtr>
  203cd2:	fe842783          	lw	a5,-24(s0)
  203cd6:	03079713          	slli	a4,a5,0x30
  203cda:	9341                	srli	a4,a4,0x30
  203cdc:	fec46603          	lwu	a2,-20(s0)
  203ce0:	03400793          	li	a5,52
  203ce4:	02f607b3          	mul	a5,a2,a5
  203ce8:	97b6                	add	a5,a5,a3
  203cea:	02e79723          	sh	a4,46(a5)
  203cee:	002107b7          	lui	a5,0x210
  203cf2:	1807b683          	ld	a3,384(a5) # 210180 <reqPoolPtr>
  203cf6:	fec42783          	lw	a5,-20(s0)
  203cfa:	03079713          	slli	a4,a5,0x30
  203cfe:	9341                	srli	a4,a4,0x30
  203d00:	fe846603          	lwu	a2,-24(s0)
  203d04:	03400793          	li	a5,52
  203d08:	02f607b3          	mul	a5,a2,a5
  203d0c:	97b6                	add	a5,a5,a3
  203d0e:	02e79623          	sh	a4,44(a5)
  203d12:	a219                	j	203e18 <SelectiveGetFromBlockedByRowAddrDepReqQ+0x1e4>
  203d14:	fe842783          	lw	a5,-24(s0)
  203d18:	0007871b          	sext.w	a4,a5
  203d1c:	67c1                	lui	a5,0x10
  203d1e:	17fd                	addi	a5,a5,-1
  203d20:	04f71c63          	bne	a4,a5,203d78 <SelectiveGetFromBlockedByRowAddrDepReqQ+0x144>
  203d24:	fec42783          	lw	a5,-20(s0)
  203d28:	0007871b          	sext.w	a4,a5
  203d2c:	67c1                	lui	a5,0x10
  203d2e:	17fd                	addi	a5,a5,-1
  203d30:	04f70463          	beq	a4,a5,203d78 <SelectiveGetFromBlockedByRowAddrDepReqQ+0x144>
  203d34:	002107b7          	lui	a5,0x210
  203d38:	1807b703          	ld	a4,384(a5) # 210180 <reqPoolPtr>
  203d3c:	fec46683          	lwu	a3,-20(s0)
  203d40:	03400793          	li	a5,52
  203d44:	02f687b3          	mul	a5,a3,a5
  203d48:	97ba                	add	a5,a5,a4
  203d4a:	577d                	li	a4,-1
  203d4c:	02e79723          	sh	a4,46(a5)
  203d50:	fec42783          	lw	a5,-20(s0)
  203d54:	03079713          	slli	a4,a5,0x30
  203d58:	9341                	srli	a4,a4,0x30
  203d5a:	002107b7          	lui	a5,0x210
  203d5e:	f8078693          	addi	a3,a5,-128 # 20ff80 <blockedByRowAddrDepReqQ>
  203d62:	fd446783          	lwu	a5,-44(s0)
  203d66:	fd846603          	lwu	a2,-40(s0)
  203d6a:	060e                	slli	a2,a2,0x3
  203d6c:	97b2                	add	a5,a5,a2
  203d6e:	078e                	slli	a5,a5,0x3
  203d70:	97b6                	add	a5,a5,a3
  203d72:	00e79123          	sh	a4,2(a5)
  203d76:	a04d                	j	203e18 <SelectiveGetFromBlockedByRowAddrDepReqQ+0x1e4>
  203d78:	fe842783          	lw	a5,-24(s0)
  203d7c:	0007871b          	sext.w	a4,a5
  203d80:	67c1                	lui	a5,0x10
  203d82:	17fd                	addi	a5,a5,-1
  203d84:	04f70c63          	beq	a4,a5,203ddc <SelectiveGetFromBlockedByRowAddrDepReqQ+0x1a8>
  203d88:	fec42783          	lw	a5,-20(s0)
  203d8c:	0007871b          	sext.w	a4,a5
  203d90:	67c1                	lui	a5,0x10
  203d92:	17fd                	addi	a5,a5,-1
  203d94:	04f71463          	bne	a4,a5,203ddc <SelectiveGetFromBlockedByRowAddrDepReqQ+0x1a8>
  203d98:	002107b7          	lui	a5,0x210
  203d9c:	1807b703          	ld	a4,384(a5) # 210180 <reqPoolPtr>
  203da0:	fe846683          	lwu	a3,-24(s0)
  203da4:	03400793          	li	a5,52
  203da8:	02f687b3          	mul	a5,a3,a5
  203dac:	97ba                	add	a5,a5,a4
  203dae:	577d                	li	a4,-1
  203db0:	02e79623          	sh	a4,44(a5)
  203db4:	fe842783          	lw	a5,-24(s0)
  203db8:	03079713          	slli	a4,a5,0x30
  203dbc:	9341                	srli	a4,a4,0x30
  203dbe:	002107b7          	lui	a5,0x210
  203dc2:	f8078693          	addi	a3,a5,-128 # 20ff80 <blockedByRowAddrDepReqQ>
  203dc6:	fd446783          	lwu	a5,-44(s0)
  203dca:	fd846603          	lwu	a2,-40(s0)
  203dce:	060e                	slli	a2,a2,0x3
  203dd0:	97b2                	add	a5,a5,a2
  203dd2:	078e                	slli	a5,a5,0x3
  203dd4:	97b6                	add	a5,a5,a3
  203dd6:	00e79023          	sh	a4,0(a5)
  203dda:	a83d                	j	203e18 <SelectiveGetFromBlockedByRowAddrDepReqQ+0x1e4>
  203ddc:	002107b7          	lui	a5,0x210
  203de0:	f8078713          	addi	a4,a5,-128 # 20ff80 <blockedByRowAddrDepReqQ>
  203de4:	fd446783          	lwu	a5,-44(s0)
  203de8:	fd846683          	lwu	a3,-40(s0)
  203dec:	068e                	slli	a3,a3,0x3
  203dee:	97b6                	add	a5,a5,a3
  203df0:	078e                	slli	a5,a5,0x3
  203df2:	97ba                	add	a5,a5,a4
  203df4:	577d                	li	a4,-1
  203df6:	00e79023          	sh	a4,0(a5)
  203dfa:	002107b7          	lui	a5,0x210
  203dfe:	f8078713          	addi	a4,a5,-128 # 20ff80 <blockedByRowAddrDepReqQ>
  203e02:	fd446783          	lwu	a5,-44(s0)
  203e06:	fd846683          	lwu	a3,-40(s0)
  203e0a:	068e                	slli	a3,a3,0x3
  203e0c:	97b6                	add	a5,a5,a3
  203e0e:	078e                	slli	a5,a5,0x3
  203e10:	97ba                	add	a5,a5,a4
  203e12:	577d                	li	a4,-1
  203e14:	00e79123          	sh	a4,2(a5)
  203e18:	002107b7          	lui	a5,0x210
  203e1c:	1807b703          	ld	a4,384(a5) # 210180 <reqPoolPtr>
  203e20:	fdc46683          	lwu	a3,-36(s0)
  203e24:	03400793          	li	a5,52
  203e28:	02f687b3          	mul	a5,a3,a5
  203e2c:	97ba                	add	a5,a5,a4
  203e2e:	4398                	lw	a4,0(a5)
  203e30:	f0f77713          	andi	a4,a4,-241
  203e34:	c398                	sw	a4,0(a5)
  203e36:	002107b7          	lui	a5,0x210
  203e3a:	f8078713          	addi	a4,a5,-128 # 20ff80 <blockedByRowAddrDepReqQ>
  203e3e:	fd446783          	lwu	a5,-44(s0)
  203e42:	fd846683          	lwu	a3,-40(s0)
  203e46:	068e                	slli	a3,a3,0x3
  203e48:	97b6                	add	a5,a5,a3
  203e4a:	078e                	slli	a5,a5,0x3
  203e4c:	97ba                	add	a5,a5,a4
  203e4e:	0047d783          	lhu	a5,4(a5)
  203e52:	37fd                	addiw	a5,a5,-1
  203e54:	03079713          	slli	a4,a5,0x30
  203e58:	9341                	srli	a4,a4,0x30
  203e5a:	002107b7          	lui	a5,0x210
  203e5e:	f8078693          	addi	a3,a5,-128 # 20ff80 <blockedByRowAddrDepReqQ>
  203e62:	fd446783          	lwu	a5,-44(s0)
  203e66:	fd846603          	lwu	a2,-40(s0)
  203e6a:	060e                	slli	a2,a2,0x3
  203e6c:	97b2                	add	a5,a5,a2
  203e6e:	078e                	slli	a5,a5,0x3
  203e70:	97b6                	add	a5,a5,a3
  203e72:	00e79223          	sh	a4,4(a5)
  203e76:	002107b7          	lui	a5,0x210
  203e7a:	3987a783          	lw	a5,920(a5) # 210398 <blockedReqCnt>
  203e7e:	37fd                	addiw	a5,a5,-1
  203e80:	0007871b          	sext.w	a4,a5
  203e84:	002107b7          	lui	a5,0x210
  203e88:	38e7ac23          	sw	a4,920(a5) # 210398 <blockedReqCnt>
  203e8c:	0001                	nop
  203e8e:	70a2                	ld	ra,40(sp)
  203e90:	7402                	ld	s0,32(sp)
  203e92:	6145                	addi	sp,sp,48
  203e94:	8082                	ret

0000000000203e96 <PutToNvmeDmaReqQ>:
  203e96:	1101                	addi	sp,sp,-32
  203e98:	ec22                	sd	s0,24(sp)
  203e9a:	1000                	addi	s0,sp,32
  203e9c:	87aa                	mv	a5,a0
  203e9e:	fef42623          	sw	a5,-20(s0)
  203ea2:	002107b7          	lui	a5,0x210
  203ea6:	19078793          	addi	a5,a5,400 # 210190 <nvmeDmaReqQ>
  203eaa:	0027d783          	lhu	a5,2(a5)
  203eae:	0007871b          	sext.w	a4,a5
  203eb2:	67c1                	lui	a5,0x10
  203eb4:	17fd                	addi	a5,a5,-1
  203eb6:	08f70763          	beq	a4,a5,203f44 <PutToNvmeDmaReqQ+0xae>
  203eba:	002107b7          	lui	a5,0x210
  203ebe:	1807b683          	ld	a3,384(a5) # 210180 <reqPoolPtr>
  203ec2:	002107b7          	lui	a5,0x210
  203ec6:	19078793          	addi	a5,a5,400 # 210190 <nvmeDmaReqQ>
  203eca:	0027d703          	lhu	a4,2(a5)
  203ece:	fec46603          	lwu	a2,-20(s0)
  203ed2:	03400793          	li	a5,52
  203ed6:	02f607b3          	mul	a5,a2,a5
  203eda:	97b6                	add	a5,a5,a3
  203edc:	02e79623          	sh	a4,44(a5)
  203ee0:	002107b7          	lui	a5,0x210
  203ee4:	1807b703          	ld	a4,384(a5) # 210180 <reqPoolPtr>
  203ee8:	fec46683          	lwu	a3,-20(s0)
  203eec:	03400793          	li	a5,52
  203ef0:	02f687b3          	mul	a5,a3,a5
  203ef4:	97ba                	add	a5,a5,a4
  203ef6:	577d                	li	a4,-1
  203ef8:	02e79723          	sh	a4,46(a5)
  203efc:	002107b7          	lui	a5,0x210
  203f00:	1807b683          	ld	a3,384(a5) # 210180 <reqPoolPtr>
  203f04:	002107b7          	lui	a5,0x210
  203f08:	19078793          	addi	a5,a5,400 # 210190 <nvmeDmaReqQ>
  203f0c:	0027d783          	lhu	a5,2(a5)
  203f10:	0007861b          	sext.w	a2,a5
  203f14:	fec42783          	lw	a5,-20(s0)
  203f18:	03079713          	slli	a4,a5,0x30
  203f1c:	9341                	srli	a4,a4,0x30
  203f1e:	03400793          	li	a5,52
  203f22:	02f607b3          	mul	a5,a2,a5
  203f26:	97b6                	add	a5,a5,a3
  203f28:	02e79723          	sh	a4,46(a5)
  203f2c:	fec42783          	lw	a5,-20(s0)
  203f30:	03079713          	slli	a4,a5,0x30
  203f34:	9341                	srli	a4,a4,0x30
  203f36:	002107b7          	lui	a5,0x210
  203f3a:	19078793          	addi	a5,a5,400 # 210190 <nvmeDmaReqQ>
  203f3e:	00e79123          	sh	a4,2(a5)
  203f42:	a08d                	j	203fa4 <PutToNvmeDmaReqQ+0x10e>
  203f44:	002107b7          	lui	a5,0x210
  203f48:	1807b703          	ld	a4,384(a5) # 210180 <reqPoolPtr>
  203f4c:	fec46683          	lwu	a3,-20(s0)
  203f50:	03400793          	li	a5,52
  203f54:	02f687b3          	mul	a5,a3,a5
  203f58:	97ba                	add	a5,a5,a4
  203f5a:	577d                	li	a4,-1
  203f5c:	02e79623          	sh	a4,44(a5)
  203f60:	002107b7          	lui	a5,0x210
  203f64:	1807b703          	ld	a4,384(a5) # 210180 <reqPoolPtr>
  203f68:	fec46683          	lwu	a3,-20(s0)
  203f6c:	03400793          	li	a5,52
  203f70:	02f687b3          	mul	a5,a3,a5
  203f74:	97ba                	add	a5,a5,a4
  203f76:	577d                	li	a4,-1
  203f78:	02e79723          	sh	a4,46(a5)
  203f7c:	fec42783          	lw	a5,-20(s0)
  203f80:	03079713          	slli	a4,a5,0x30
  203f84:	9341                	srli	a4,a4,0x30
  203f86:	002107b7          	lui	a5,0x210
  203f8a:	18e79823          	sh	a4,400(a5) # 210190 <nvmeDmaReqQ>
  203f8e:	fec42783          	lw	a5,-20(s0)
  203f92:	03079713          	slli	a4,a5,0x30
  203f96:	9341                	srli	a4,a4,0x30
  203f98:	002107b7          	lui	a5,0x210
  203f9c:	19078793          	addi	a5,a5,400 # 210190 <nvmeDmaReqQ>
  203fa0:	00e79123          	sh	a4,2(a5)
  203fa4:	002107b7          	lui	a5,0x210
  203fa8:	1807b703          	ld	a4,384(a5) # 210180 <reqPoolPtr>
  203fac:	fec46683          	lwu	a3,-20(s0)
  203fb0:	03400793          	li	a5,52
  203fb4:	02f687b3          	mul	a5,a3,a5
  203fb8:	97ba                	add	a5,a5,a4
  203fba:	4398                	lw	a4,0(a5)
  203fbc:	f0f77713          	andi	a4,a4,-241
  203fc0:	05076713          	ori	a4,a4,80
  203fc4:	c398                	sw	a4,0(a5)
  203fc6:	002107b7          	lui	a5,0x210
  203fca:	19078793          	addi	a5,a5,400 # 210190 <nvmeDmaReqQ>
  203fce:	0047d783          	lhu	a5,4(a5)
  203fd2:	2785                	addiw	a5,a5,1
  203fd4:	03079713          	slli	a4,a5,0x30
  203fd8:	9341                	srli	a4,a4,0x30
  203fda:	002107b7          	lui	a5,0x210
  203fde:	19078793          	addi	a5,a5,400 # 210190 <nvmeDmaReqQ>
  203fe2:	00e79223          	sh	a4,4(a5)
  203fe6:	0001                	nop
  203fe8:	6462                	ld	s0,24(sp)
  203fea:	6105                	addi	sp,sp,32
  203fec:	8082                	ret

0000000000203fee <SelectiveGetFromNvmeDmaReqQ>:
  203fee:	7179                	addi	sp,sp,-48
  203ff0:	f406                	sd	ra,40(sp)
  203ff2:	f022                	sd	s0,32(sp)
  203ff4:	1800                	addi	s0,sp,48
  203ff6:	87aa                	mv	a5,a0
  203ff8:	fcf42e23          	sw	a5,-36(s0)
  203ffc:	002107b7          	lui	a5,0x210
  204000:	1807b703          	ld	a4,384(a5) # 210180 <reqPoolPtr>
  204004:	fdc46683          	lwu	a3,-36(s0)
  204008:	03400793          	li	a5,52
  20400c:	02f687b3          	mul	a5,a3,a5
  204010:	97ba                	add	a5,a5,a4
  204012:	02c7d783          	lhu	a5,44(a5)
  204016:	fef42623          	sw	a5,-20(s0)
  20401a:	002107b7          	lui	a5,0x210
  20401e:	1807b703          	ld	a4,384(a5) # 210180 <reqPoolPtr>
  204022:	fdc46683          	lwu	a3,-36(s0)
  204026:	03400793          	li	a5,52
  20402a:	02f687b3          	mul	a5,a3,a5
  20402e:	97ba                	add	a5,a5,a4
  204030:	02e7d783          	lhu	a5,46(a5)
  204034:	fef42423          	sw	a5,-24(s0)
  204038:	fe842783          	lw	a5,-24(s0)
  20403c:	0007871b          	sext.w	a4,a5
  204040:	67c1                	lui	a5,0x10
  204042:	17fd                	addi	a5,a5,-1
  204044:	04f70f63          	beq	a4,a5,2040a2 <SelectiveGetFromNvmeDmaReqQ+0xb4>
  204048:	fec42783          	lw	a5,-20(s0)
  20404c:	0007871b          	sext.w	a4,a5
  204050:	67c1                	lui	a5,0x10
  204052:	17fd                	addi	a5,a5,-1
  204054:	04f70763          	beq	a4,a5,2040a2 <SelectiveGetFromNvmeDmaReqQ+0xb4>
  204058:	002107b7          	lui	a5,0x210
  20405c:	1807b683          	ld	a3,384(a5) # 210180 <reqPoolPtr>
  204060:	fe842783          	lw	a5,-24(s0)
  204064:	03079713          	slli	a4,a5,0x30
  204068:	9341                	srli	a4,a4,0x30
  20406a:	fec46603          	lwu	a2,-20(s0)
  20406e:	03400793          	li	a5,52
  204072:	02f607b3          	mul	a5,a2,a5
  204076:	97b6                	add	a5,a5,a3
  204078:	02e79723          	sh	a4,46(a5)
  20407c:	002107b7          	lui	a5,0x210
  204080:	1807b683          	ld	a3,384(a5) # 210180 <reqPoolPtr>
  204084:	fec42783          	lw	a5,-20(s0)
  204088:	03079713          	slli	a4,a5,0x30
  20408c:	9341                	srli	a4,a4,0x30
  20408e:	fe846603          	lwu	a2,-24(s0)
  204092:	03400793          	li	a5,52
  204096:	02f607b3          	mul	a5,a2,a5
  20409a:	97b6                	add	a5,a5,a3
  20409c:	02e79623          	sh	a4,44(a5)
  2040a0:	a87d                	j	20415e <SelectiveGetFromNvmeDmaReqQ+0x170>
  2040a2:	fe842783          	lw	a5,-24(s0)
  2040a6:	0007871b          	sext.w	a4,a5
  2040aa:	67c1                	lui	a5,0x10
  2040ac:	17fd                	addi	a5,a5,-1
  2040ae:	04f71463          	bne	a4,a5,2040f6 <SelectiveGetFromNvmeDmaReqQ+0x108>
  2040b2:	fec42783          	lw	a5,-20(s0)
  2040b6:	0007871b          	sext.w	a4,a5
  2040ba:	67c1                	lui	a5,0x10
  2040bc:	17fd                	addi	a5,a5,-1
  2040be:	02f70c63          	beq	a4,a5,2040f6 <SelectiveGetFromNvmeDmaReqQ+0x108>
  2040c2:	002107b7          	lui	a5,0x210
  2040c6:	1807b703          	ld	a4,384(a5) # 210180 <reqPoolPtr>
  2040ca:	fec46683          	lwu	a3,-20(s0)
  2040ce:	03400793          	li	a5,52
  2040d2:	02f687b3          	mul	a5,a3,a5
  2040d6:	97ba                	add	a5,a5,a4
  2040d8:	577d                	li	a4,-1
  2040da:	02e79723          	sh	a4,46(a5)
  2040de:	fec42783          	lw	a5,-20(s0)
  2040e2:	03079713          	slli	a4,a5,0x30
  2040e6:	9341                	srli	a4,a4,0x30
  2040e8:	002107b7          	lui	a5,0x210
  2040ec:	19078793          	addi	a5,a5,400 # 210190 <nvmeDmaReqQ>
  2040f0:	00e79123          	sh	a4,2(a5)
  2040f4:	a0ad                	j	20415e <SelectiveGetFromNvmeDmaReqQ+0x170>
  2040f6:	fe842783          	lw	a5,-24(s0)
  2040fa:	0007871b          	sext.w	a4,a5
  2040fe:	67c1                	lui	a5,0x10
  204100:	17fd                	addi	a5,a5,-1
  204102:	04f70263          	beq	a4,a5,204146 <SelectiveGetFromNvmeDmaReqQ+0x158>
  204106:	fec42783          	lw	a5,-20(s0)
  20410a:	0007871b          	sext.w	a4,a5
  20410e:	67c1                	lui	a5,0x10
  204110:	17fd                	addi	a5,a5,-1
  204112:	02f71a63          	bne	a4,a5,204146 <SelectiveGetFromNvmeDmaReqQ+0x158>
  204116:	002107b7          	lui	a5,0x210
