
ftl_ariane.elf:     file format elf64-littleriscv


Disassembly of section .text:

0000000000200000 <start>:
  200000:	0000d297          	auipc	t0,0xd
  200004:	a7c28293          	addi	t0,t0,-1412 # 20ca7c <dev_irq_handler>
  200008:	30529073          	csrw	mtvec,t0
  20000c:	00000297          	auipc	t0,0x0
  200010:	00c28293          	addi	t0,t0,12 # 200018 <_main>
  200014:	34129073          	csrw	mepc,t0

0000000000200018 <_main>:
  200018:	304022f3          	csrr	t0,mie
  20001c:	00001137          	lui	sp,0x1
  200020:	8001011b          	addiw	sp,sp,-2048
  200024:	0022e2b3          	or	t0,t0,sp
  200028:	30429073          	csrw	mie,t0
  20002c:	300462f3          	csrrsi	t0,mstatus,8
  200030:	00300137          	lui	sp,0x300
  200034:	00c00093          	li	ra,12
  200038:	00a0006f          	j	200042 <main>
  20003c:	0040006f          	j	200040 <end>

0000000000200040 <end>:
  200040:	0001                	nop

0000000000200042 <main>:
  200042:	1141                	addi	sp,sp,-16
  200044:	e0001537          	lui	a0,0xe0001
  200048:	e406                	sd	ra,8(sp)
  20004a:	e022                	sd	s0,0(sp)
  20004c:	772040ef          	jal	ra,2047be <Uart_ResetTxFifo>
  200050:	0020f537          	lui	a0,0x20f
  200054:	7f850513          	addi	a0,a0,2040 # 20f7f8 <nvme_main+0xe80>
  200058:	5c0040ef          	jal	ra,204618 <cpl_print>
  20005c:	18000437          	lui	s0,0x18000
  200060:	ff040513          	addi	a0,s0,-16 # 17fffff0 <g_nvmeTask+0x17defea8>
  200064:	754040ef          	jal	ra,2047b8 <cpl_In32>
  200068:	67d5                	lui	a5,0x15
  20006a:	2501                	sext.w	a0,a0
  20006c:	dd978793          	addi	a5,a5,-551 # 14dd9 <start-0x1eb227>
  200070:	04f50f63          	beq	a0,a5,2000ce <main+0x8c>
  200074:	00210537          	lui	a0,0x210
  200078:	64800613          	li	a2,1608
  20007c:	4581                	li	a1,0
  20007e:	bf050513          	addi	a0,a0,-1040 # 20fbf0 <__bss_end>
  200082:	5620e0ef          	jal	ra,20e5e4 <cpl_memset>
  200086:	4611                	li	a2,4
  200088:	4581                	li	a1,0
  20008a:	ff040513          	addi	a0,s0,-16
  20008e:	5560e0ef          	jal	ra,20e5e4 <cpl_memset>
  200092:	4611                	li	a2,4
  200094:	4581                	li	a1,0
  200096:	ff440513          	addi	a0,s0,-12
  20009a:	54a0e0ef          	jal	ra,20e5e4 <cpl_memset>
  20009e:	17fe0437          	lui	s0,0x17fe0
  2000a2:	00020637          	lui	a2,0x20
  2000a6:	4581                	li	a1,0
  2000a8:	f0040513          	addi	a0,s0,-256 # 17fdff00 <g_nvmeTask+0x17dcfdb8>
  2000ac:	5380e0ef          	jal	ra,20e5e4 <cpl_memset>
  2000b0:	10000613          	li	a2,256
  2000b4:	4581                	li	a1,0
  2000b6:	e0040513          	addi	a0,s0,-512
  2000ba:	52a0e0ef          	jal	ra,20e5e4 <cpl_memset>
  2000be:	17fc0537          	lui	a0,0x17fc0
  2000c2:	6641                	lui	a2,0x10
  2000c4:	4581                	li	a1,0
  2000c6:	e0050513          	addi	a0,a0,-512 # 17fbfe00 <g_nvmeTask+0x17dafcb8>
  2000ca:	51a0e0ef          	jal	ra,20e5e4 <cpl_memset>
  2000ce:	00210537          	lui	a0,0x210
  2000d2:	80050513          	addi	a0,a0,-2048 # 20f800 <nvme_main+0xe88>
  2000d6:	542040ef          	jal	ra,204618 <cpl_print>
  2000da:	18000537          	lui	a0,0x18000
  2000de:	1541                	addi	a0,a0,-16
  2000e0:	6d8040ef          	jal	ra,2047b8 <cpl_In32>
  2000e4:	67d5                	lui	a5,0x15
  2000e6:	2501                	sext.w	a0,a0
  2000e8:	dd978793          	addi	a5,a5,-551 # 14dd9 <start-0x1eb227>
  2000ec:	00f50463          	beq	a0,a5,2000f4 <main+0xb2>
  2000f0:	0e50c0ef          	jal	ra,20c9d4 <dev_irq_init>
  2000f4:	0850e0ef          	jal	ra,20e978 <nvme_main>
  2000f8:	00210537          	lui	a0,0x210
  2000fc:	82050513          	addi	a0,a0,-2016 # 20f820 <nvme_main+0xea8>
  200100:	518040ef          	jal	ra,204618 <cpl_print>
  200104:	60a2                	ld	ra,8(sp)
  200106:	6402                	ld	s0,0(sp)
  200108:	4501                	li	a0,0
  20010a:	0141                	addi	sp,sp,16
  20010c:	8082                	ret

000000000020010e <InitAddressMap>:
  20010e:	1101                	addi	sp,sp,-32
  200110:	ec06                	sd	ra,24(sp)
  200112:	e822                	sd	s0,16(sp)
  200114:	1000                	addi	s0,sp,32
  200116:	002107b7          	lui	a5,0x210
  20011a:	18005737          	lui	a4,0x18005
  20011e:	10070713          	addi	a4,a4,256 # 18005100 <g_nvmeTask+0x17df4fb8>
  200122:	c0e7b023          	sd	a4,-1024(a5) # 20fc00 <logicalSliceMapPtr>
  200126:	002107b7          	lui	a5,0x210
  20012a:	28005737          	lui	a4,0x28005
  20012e:	10070713          	addi	a4,a4,256 # 28005100 <g_nvmeTask+0x27df4fb8>
  200132:	c0e7bc23          	sd	a4,-1000(a5) # 20fc18 <virtualSliceMapPtr>
  200136:	002107b7          	lui	a5,0x210
  20013a:	38005737          	lui	a4,0x38005
  20013e:	10070713          	addi	a4,a4,256 # 38005100 <g_nvmeTask+0x37df4fb8>
  200142:	c0e7b823          	sd	a4,-1008(a5) # 20fc10 <virtualBlockMapPtr>
  200146:	002107b7          	lui	a5,0x210
  20014a:	38810737          	lui	a4,0x38810
  20014e:	20070713          	addi	a4,a4,512 # 38810200 <g_nvmeTask+0x386000b8>
  200152:	c0e7b423          	sd	a4,-1016(a5) # 20fc08 <virtualDieMapPtr>
  200156:	002107b7          	lui	a5,0x210
  20015a:	38605737          	lui	a4,0x38605
  20015e:	10070713          	addi	a4,a4,256 # 38605100 <g_nvmeTask+0x383f4fb8>
  200162:	c2e7b823          	sd	a4,-976(a5) # 20fc30 <phyBlockMapPtr>
  200166:	002107b7          	lui	a5,0x210
  20016a:	38810737          	lui	a4,0x38810
  20016e:	10070713          	addi	a4,a4,256 # 38810100 <g_nvmeTask+0x385fffb8>
  200172:	c2e7b423          	sd	a4,-984(a5) # 20fc28 <bbtInfoMapPtr>
  200176:	fe042423          	sw	zero,-24(s0)
  20017a:	a069                	j	200204 <InitAddressMap+0xf6>
  20017c:	fe042623          	sw	zero,-20(s0)
  200180:	a82d                	j	2001ba <InitAddressMap+0xac>
  200182:	002107b7          	lui	a5,0x210
  200186:	c307b683          	ld	a3,-976(a5) # 20fc30 <phyBlockMapPtr>
  20018a:	fec42783          	lw	a5,-20(s0)
  20018e:	03079713          	slli	a4,a5,0x30
  200192:	9341                	srli	a4,a4,0x30
  200194:	fec46783          	lwu	a5,-20(s0)
  200198:	fe846583          	lwu	a1,-24(s0)
  20019c:	6609                	lui	a2,0x2
  20019e:	0b060613          	addi	a2,a2,176 # 20b0 <start-0x1fdf50>
  2001a2:	02c58633          	mul	a2,a1,a2
  2001a6:	97b2                	add	a5,a5,a2
  2001a8:	078a                	slli	a5,a5,0x2
  2001aa:	97b6                	add	a5,a5,a3
  2001ac:	00e79023          	sh	a4,0(a5)
  2001b0:	fec42783          	lw	a5,-20(s0)
  2001b4:	2785                	addiw	a5,a5,1
  2001b6:	fef42623          	sw	a5,-20(s0)
  2001ba:	fec42783          	lw	a5,-20(s0)
  2001be:	0007871b          	sext.w	a4,a5
  2001c2:	6789                	lui	a5,0x2
  2001c4:	0af78793          	addi	a5,a5,175 # 20af <start-0x1fdf51>
  2001c8:	fae7fde3          	bgeu	a5,a4,200182 <InitAddressMap+0x74>
  2001cc:	002107b7          	lui	a5,0x210
  2001d0:	c287b703          	ld	a4,-984(a5) # 20fc28 <bbtInfoMapPtr>
  2001d4:	fe846783          	lwu	a5,-24(s0)
  2001d8:	078a                	slli	a5,a5,0x2
  2001da:	97ba                	add	a5,a5,a4
  2001dc:	00079023          	sh	zero,0(a5)
  2001e0:	002107b7          	lui	a5,0x210
  2001e4:	c287b703          	ld	a4,-984(a5) # 20fc28 <bbtInfoMapPtr>
  2001e8:	fe846783          	lwu	a5,-24(s0)
  2001ec:	078a                	slli	a5,a5,0x2
  2001ee:	97ba                	add	a5,a5,a4
  2001f0:	4394                	lw	a3,0(a5)
  2001f2:	7741                	lui	a4,0xffff0
  2001f4:	177d                	addi	a4,a4,-1
  2001f6:	8f75                	and	a4,a4,a3
  2001f8:	c398                	sw	a4,0(a5)
  2001fa:	fe842783          	lw	a5,-24(s0)
  2001fe:	2785                	addiw	a5,a5,1
  200200:	fef42423          	sw	a5,-24(s0)
  200204:	fe842783          	lw	a5,-24(s0)
  200208:	0007871b          	sext.w	a4,a5
  20020c:	03f00793          	li	a5,63
  200210:	f6e7f6e3          	bgeu	a5,a4,20017c <InitAddressMap+0x6e>
  200214:	2ba020ef          	jal	ra,2024ce <FindDieForFreeSliceAllocation>
  200218:	87aa                	mv	a5,a0
  20021a:	2781                	sext.w	a5,a5
  20021c:	0ff7f713          	andi	a4,a5,255
  200220:	002107b7          	lui	a5,0x210
  200224:	bee78823          	sb	a4,-1040(a5) # 20fbf0 <__bss_end>
  200228:	012000ef          	jal	ra,20023a <InitSliceMap>
  20022c:	40d010ef          	jal	ra,201e38 <InitBlockDieMap>
  200230:	0001                	nop
  200232:	60e2                	ld	ra,24(sp)
  200234:	6442                	ld	s0,16(sp)
  200236:	6105                	addi	sp,sp,32
  200238:	8082                	ret

000000000020023a <InitSliceMap>:
  20023a:	1101                	addi	sp,sp,-32
  20023c:	ec22                	sd	s0,24(sp)
  20023e:	1000                	addi	s0,sp,32
  200240:	fe042623          	sw	zero,-20(s0)
  200244:	a815                	j	200278 <InitSliceMap+0x3e>
  200246:	002107b7          	lui	a5,0x210
  20024a:	c007b703          	ld	a4,-1024(a5) # 20fc00 <logicalSliceMapPtr>
  20024e:	fec42783          	lw	a5,-20(s0)
  200252:	078a                	slli	a5,a5,0x2
  200254:	97ba                	add	a5,a5,a4
  200256:	577d                	li	a4,-1
  200258:	c398                	sw	a4,0(a5)
  20025a:	002107b7          	lui	a5,0x210
  20025e:	c187b703          	ld	a4,-1000(a5) # 20fc18 <virtualSliceMapPtr>
  200262:	fec42783          	lw	a5,-20(s0)
  200266:	078a                	slli	a5,a5,0x2
  200268:	97ba                	add	a5,a5,a4
  20026a:	577d                	li	a4,-1
  20026c:	c398                	sw	a4,0(a5)
  20026e:	fec42783          	lw	a5,-20(s0)
  200272:	2785                	addiw	a5,a5,1
  200274:	fef42623          	sw	a5,-20(s0)
  200278:	fec42783          	lw	a5,-20(s0)
  20027c:	0007871b          	sext.w	a4,a5
  200280:	040007b7          	lui	a5,0x4000
  200284:	fcf741e3          	blt	a4,a5,200246 <InitSliceMap+0xc>
  200288:	0001                	nop
  20028a:	0001                	nop
  20028c:	6462                	ld	s0,24(sp)
  20028e:	6105                	addi	sp,sp,32
  200290:	8082                	ret

0000000000200292 <RemapBadBlock>:
  200292:	ce010113          	addi	sp,sp,-800 # 2ffce0 <g_nvmeTask+0xefb98>
  200296:	30113c23          	sd	ra,792(sp)
  20029a:	30813823          	sd	s0,784(sp)
  20029e:	1600                	addi	s0,sp,800
  2002a0:	0020f7b7          	lui	a5,0x20f
  2002a4:	dd078513          	addi	a0,a5,-560 # 20edd0 <nvme_main+0x458>
  2002a8:	370040ef          	jal	ra,204618 <cpl_print>
  2002ac:	fe042423          	sw	zero,-24(s0)
  2002b0:	a091                	j	2002f4 <RemapBadBlock+0x62>
  2002b2:	fe846783          	lwu	a5,-24(s0)
  2002b6:	078a                	slli	a5,a5,0x2
  2002b8:	ff040713          	addi	a4,s0,-16
  2002bc:	97ba                	add	a5,a5,a4
  2002be:	6705                	lui	a4,0x1
  2002c0:	eee7a823          	sw	a4,-272(a5)
  2002c4:	fe846783          	lwu	a5,-24(s0)
  2002c8:	078a                	slli	a5,a5,0x2
  2002ca:	ff040713          	addi	a4,s0,-16
  2002ce:	97ba                	add	a5,a5,a4
  2002d0:	6709                	lui	a4,0x2
  2002d2:	05870713          	addi	a4,a4,88 # 2058 <start-0x1fdfa8>
  2002d6:	dee7a823          	sw	a4,-528(a5)
  2002da:	fe846783          	lwu	a5,-24(s0)
  2002de:	078a                	slli	a5,a5,0x2
  2002e0:	ff040713          	addi	a4,s0,-16
  2002e4:	97ba                	add	a5,a5,a4
  2002e6:	ce07a823          	sw	zero,-784(a5)
  2002ea:	fe842783          	lw	a5,-24(s0)
  2002ee:	2785                	addiw	a5,a5,1
  2002f0:	fef42423          	sw	a5,-24(s0)
  2002f4:	fe842783          	lw	a5,-24(s0)
  2002f8:	0007871b          	sext.w	a4,a5
  2002fc:	03f00793          	li	a5,63
  200300:	fae7f9e3          	bgeu	a5,a4,2002b2 <RemapBadBlock+0x20>
  200304:	fe042623          	sw	zero,-20(s0)
  200308:	a6bd                	j	200676 <RemapBadBlock+0x3e4>
  20030a:	fe042423          	sw	zero,-24(s0)
  20030e:	a6b9                	j	20065c <RemapBadBlock+0x3ca>
  200310:	002107b7          	lui	a5,0x210
  200314:	c307b703          	ld	a4,-976(a5) # 20fc30 <phyBlockMapPtr>
  200318:	fec46783          	lwu	a5,-20(s0)
  20031c:	fe846603          	lwu	a2,-24(s0)
  200320:	6689                	lui	a3,0x2
  200322:	0b068693          	addi	a3,a3,176 # 20b0 <start-0x1fdf50>
  200326:	02d606b3          	mul	a3,a2,a3
  20032a:	97b6                	add	a5,a5,a3
  20032c:	078a                	slli	a5,a5,0x2
  20032e:	97ba                	add	a5,a5,a4
  200330:	439c                	lw	a5,0(a5)
  200332:	0107d79b          	srliw	a5,a5,0x10
  200336:	8b85                	andi	a5,a5,1
  200338:	0ff7f793          	andi	a5,a5,255
  20033c:	16078463          	beqz	a5,2004a4 <RemapBadBlock+0x212>
  200340:	fe846783          	lwu	a5,-24(s0)
  200344:	078a                	slli	a5,a5,0x2
  200346:	ff040713          	addi	a4,s0,-16
  20034a:	97ba                	add	a5,a5,a4
  20034c:	ef07a783          	lw	a5,-272(a5)
  200350:	873e                	mv	a4,a5
  200352:	6785                	lui	a5,0x1
  200354:	05778793          	addi	a5,a5,87 # 1057 <start-0x1fefa9>
  200358:	12e7e363          	bltu	a5,a4,20047e <RemapBadBlock+0x1ec>
  20035c:	4785                	li	a5,1
  20035e:	fef42223          	sw	a5,-28(s0)
  200362:	a0a9                	j	2003ac <RemapBadBlock+0x11a>
  200364:	fe846783          	lwu	a5,-24(s0)
  200368:	078a                	slli	a5,a5,0x2
  20036a:	ff040713          	addi	a4,s0,-16
  20036e:	97ba                	add	a5,a5,a4
  200370:	ef07a783          	lw	a5,-272(a5)
  200374:	2785                	addiw	a5,a5,1
  200376:	0007871b          	sext.w	a4,a5
  20037a:	fe846783          	lwu	a5,-24(s0)
  20037e:	078a                	slli	a5,a5,0x2
  200380:	ff040693          	addi	a3,s0,-16
  200384:	97b6                	add	a5,a5,a3
  200386:	eee7a823          	sw	a4,-272(a5)
  20038a:	fe846783          	lwu	a5,-24(s0)
  20038e:	078a                	slli	a5,a5,0x2
  200390:	ff040713          	addi	a4,s0,-16
  200394:	97ba                	add	a5,a5,a4
  200396:	ef07a783          	lw	a5,-272(a5)
  20039a:	873e                	mv	a4,a5
  20039c:	6785                	lui	a5,0x1
  20039e:	05778793          	addi	a5,a5,87 # 1057 <start-0x1fefa9>
  2003a2:	00e7f563          	bgeu	a5,a4,2003ac <RemapBadBlock+0x11a>
  2003a6:	fe042223          	sw	zero,-28(s0)
  2003aa:	a081                	j	2003ea <RemapBadBlock+0x158>
  2003ac:	002107b7          	lui	a5,0x210
  2003b0:	c307b703          	ld	a4,-976(a5) # 20fc30 <phyBlockMapPtr>
  2003b4:	fe846783          	lwu	a5,-24(s0)
  2003b8:	078a                	slli	a5,a5,0x2
  2003ba:	ff040693          	addi	a3,s0,-16
  2003be:	97b6                	add	a5,a5,a3
  2003c0:	ef07a783          	lw	a5,-272(a5)
  2003c4:	1782                	slli	a5,a5,0x20
  2003c6:	9381                	srli	a5,a5,0x20
  2003c8:	fe846603          	lwu	a2,-24(s0)
  2003cc:	6689                	lui	a3,0x2
  2003ce:	0b068693          	addi	a3,a3,176 # 20b0 <start-0x1fdf50>
  2003d2:	02d606b3          	mul	a3,a2,a3
  2003d6:	97b6                	add	a5,a5,a3
  2003d8:	078a                	slli	a5,a5,0x2
  2003da:	97ba                	add	a5,a5,a4
  2003dc:	439c                	lw	a5,0(a5)
  2003de:	0107d79b          	srliw	a5,a5,0x10
  2003e2:	8b85                	andi	a5,a5,1
  2003e4:	0ff7f793          	andi	a5,a5,255
  2003e8:	ffb5                	bnez	a5,200364 <RemapBadBlock+0xd2>
  2003ea:	fe442783          	lw	a5,-28(s0)
  2003ee:	2781                	sext.w	a5,a5
  2003f0:	c3bd                	beqz	a5,200456 <RemapBadBlock+0x1c4>
  2003f2:	fe846783          	lwu	a5,-24(s0)
  2003f6:	078a                	slli	a5,a5,0x2
  2003f8:	ff040713          	addi	a4,s0,-16
  2003fc:	97ba                	add	a5,a5,a4
  2003fe:	ef07a703          	lw	a4,-272(a5)
  200402:	002107b7          	lui	a5,0x210
  200406:	c307b683          	ld	a3,-976(a5) # 20fc30 <phyBlockMapPtr>
  20040a:	87ba                	mv	a5,a4
  20040c:	03079713          	slli	a4,a5,0x30
  200410:	9341                	srli	a4,a4,0x30
  200412:	fec46783          	lwu	a5,-20(s0)
  200416:	fe846583          	lwu	a1,-24(s0)
  20041a:	6609                	lui	a2,0x2
  20041c:	0b060613          	addi	a2,a2,176 # 20b0 <start-0x1fdf50>
  200420:	02c58633          	mul	a2,a1,a2
  200424:	97b2                	add	a5,a5,a2
  200426:	078a                	slli	a5,a5,0x2
  200428:	97b6                	add	a5,a5,a3
  20042a:	00e79023          	sh	a4,0(a5)
  20042e:	fe846783          	lwu	a5,-24(s0)
  200432:	078a                	slli	a5,a5,0x2
  200434:	ff040713          	addi	a4,s0,-16
  200438:	97ba                	add	a5,a5,a4
  20043a:	ef07a783          	lw	a5,-272(a5)
  20043e:	2785                	addiw	a5,a5,1
  200440:	0007871b          	sext.w	a4,a5
  200444:	fe846783          	lwu	a5,-24(s0)
  200448:	078a                	slli	a5,a5,0x2
  20044a:	ff040693          	addi	a3,s0,-16
  20044e:	97b6                	add	a5,a5,a3
  200450:	eee7a823          	sw	a4,-272(a5)
  200454:	a881                	j	2004a4 <RemapBadBlock+0x212>
  200456:	fe846783          	lwu	a5,-24(s0)
  20045a:	078a                	slli	a5,a5,0x2
  20045c:	ff040713          	addi	a4,s0,-16
  200460:	97ba                	add	a5,a5,a4
  200462:	cf07a783          	lw	a5,-784(a5)
  200466:	2785                	addiw	a5,a5,1
  200468:	0007871b          	sext.w	a4,a5
  20046c:	fe846783          	lwu	a5,-24(s0)
  200470:	078a                	slli	a5,a5,0x2
  200472:	ff040693          	addi	a3,s0,-16
  200476:	97b6                	add	a5,a5,a3
  200478:	cee7a823          	sw	a4,-784(a5)
  20047c:	a025                	j	2004a4 <RemapBadBlock+0x212>
  20047e:	fe846783          	lwu	a5,-24(s0)
  200482:	078a                	slli	a5,a5,0x2
  200484:	ff040713          	addi	a4,s0,-16
  200488:	97ba                	add	a5,a5,a4
  20048a:	cf07a783          	lw	a5,-784(a5)
  20048e:	2785                	addiw	a5,a5,1
  200490:	0007871b          	sext.w	a4,a5
  200494:	fe846783          	lwu	a5,-24(s0)
  200498:	078a                	slli	a5,a5,0x2
  20049a:	ff040693          	addi	a3,s0,-16
  20049e:	97b6                	add	a5,a5,a3
  2004a0:	cee7a823          	sw	a4,-784(a5)
  2004a4:	002107b7          	lui	a5,0x210
  2004a8:	c307b703          	ld	a4,-976(a5) # 20fc30 <phyBlockMapPtr>
  2004ac:	fec42683          	lw	a3,-20(s0)
  2004b0:	6785                	lui	a5,0x1
  2004b2:	0587879b          	addiw	a5,a5,88
  2004b6:	9fb5                	addw	a5,a5,a3
  2004b8:	2781                	sext.w	a5,a5
  2004ba:	1782                	slli	a5,a5,0x20
  2004bc:	9381                	srli	a5,a5,0x20
  2004be:	fe846603          	lwu	a2,-24(s0)
  2004c2:	6689                	lui	a3,0x2
  2004c4:	0b068693          	addi	a3,a3,176 # 20b0 <start-0x1fdf50>
  2004c8:	02d606b3          	mul	a3,a2,a3
  2004cc:	97b6                	add	a5,a5,a3
  2004ce:	078a                	slli	a5,a5,0x2
  2004d0:	97ba                	add	a5,a5,a4
  2004d2:	439c                	lw	a5,0(a5)
  2004d4:	0107d79b          	srliw	a5,a5,0x10
  2004d8:	8b85                	andi	a5,a5,1
  2004da:	0ff7f793          	andi	a5,a5,255
  2004de:	16078a63          	beqz	a5,200652 <RemapBadBlock+0x3c0>
  2004e2:	fe846783          	lwu	a5,-24(s0)
  2004e6:	078a                	slli	a5,a5,0x2
  2004e8:	ff040713          	addi	a4,s0,-16
  2004ec:	97ba                	add	a5,a5,a4
  2004ee:	df07a783          	lw	a5,-528(a5) # df0 <start-0x1ff210>
  2004f2:	873e                	mv	a4,a5
  2004f4:	6789                	lui	a5,0x2
  2004f6:	0af78793          	addi	a5,a5,175 # 20af <start-0x1fdf51>
  2004fa:	12e7e963          	bltu	a5,a4,20062c <RemapBadBlock+0x39a>
  2004fe:	4785                	li	a5,1
  200500:	fef42223          	sw	a5,-28(s0)
  200504:	a0a9                	j	20054e <RemapBadBlock+0x2bc>
  200506:	fe846783          	lwu	a5,-24(s0)
  20050a:	078a                	slli	a5,a5,0x2
  20050c:	ff040713          	addi	a4,s0,-16
  200510:	97ba                	add	a5,a5,a4
  200512:	df07a783          	lw	a5,-528(a5)
  200516:	2785                	addiw	a5,a5,1
  200518:	0007871b          	sext.w	a4,a5
  20051c:	fe846783          	lwu	a5,-24(s0)
  200520:	078a                	slli	a5,a5,0x2
  200522:	ff040693          	addi	a3,s0,-16
  200526:	97b6                	add	a5,a5,a3
  200528:	dee7a823          	sw	a4,-528(a5)
  20052c:	fe846783          	lwu	a5,-24(s0)
  200530:	078a                	slli	a5,a5,0x2
  200532:	ff040713          	addi	a4,s0,-16
  200536:	97ba                	add	a5,a5,a4
  200538:	df07a783          	lw	a5,-528(a5)
  20053c:	873e                	mv	a4,a5
  20053e:	6789                	lui	a5,0x2
  200540:	0af78793          	addi	a5,a5,175 # 20af <start-0x1fdf51>
  200544:	00e7f563          	bgeu	a5,a4,20054e <RemapBadBlock+0x2bc>
  200548:	fe042223          	sw	zero,-28(s0)
  20054c:	a081                	j	20058c <RemapBadBlock+0x2fa>
  20054e:	002107b7          	lui	a5,0x210
  200552:	c307b703          	ld	a4,-976(a5) # 20fc30 <phyBlockMapPtr>
  200556:	fe846783          	lwu	a5,-24(s0)
  20055a:	078a                	slli	a5,a5,0x2
  20055c:	ff040693          	addi	a3,s0,-16
  200560:	97b6                	add	a5,a5,a3
  200562:	df07a783          	lw	a5,-528(a5)
  200566:	1782                	slli	a5,a5,0x20
  200568:	9381                	srli	a5,a5,0x20
  20056a:	fe846603          	lwu	a2,-24(s0)
  20056e:	6689                	lui	a3,0x2
  200570:	0b068693          	addi	a3,a3,176 # 20b0 <start-0x1fdf50>
  200574:	02d606b3          	mul	a3,a2,a3
  200578:	97b6                	add	a5,a5,a3
  20057a:	078a                	slli	a5,a5,0x2
  20057c:	97ba                	add	a5,a5,a4
  20057e:	439c                	lw	a5,0(a5)
  200580:	0107d79b          	srliw	a5,a5,0x10
  200584:	8b85                	andi	a5,a5,1
  200586:	0ff7f793          	andi	a5,a5,255
  20058a:	ffb5                	bnez	a5,200506 <RemapBadBlock+0x274>
  20058c:	fe442783          	lw	a5,-28(s0)
  200590:	2781                	sext.w	a5,a5
  200592:	cbad                	beqz	a5,200604 <RemapBadBlock+0x372>
  200594:	fe846783          	lwu	a5,-24(s0)
  200598:	078a                	slli	a5,a5,0x2
  20059a:	ff040713          	addi	a4,s0,-16
  20059e:	97ba                	add	a5,a5,a4
  2005a0:	df07a603          	lw	a2,-528(a5)
  2005a4:	002107b7          	lui	a5,0x210
  2005a8:	c307b683          	ld	a3,-976(a5) # 20fc30 <phyBlockMapPtr>
  2005ac:	fec42703          	lw	a4,-20(s0)
  2005b0:	6785                	lui	a5,0x1
  2005b2:	0587879b          	addiw	a5,a5,88
  2005b6:	9fb9                	addw	a5,a5,a4
  2005b8:	2781                	sext.w	a5,a5
  2005ba:	8732                	mv	a4,a2
  2005bc:	1742                	slli	a4,a4,0x30
  2005be:	9341                	srli	a4,a4,0x30
  2005c0:	1782                	slli	a5,a5,0x20
  2005c2:	9381                	srli	a5,a5,0x20
  2005c4:	fe846583          	lwu	a1,-24(s0)
  2005c8:	6609                	lui	a2,0x2
  2005ca:	0b060613          	addi	a2,a2,176 # 20b0 <start-0x1fdf50>
  2005ce:	02c58633          	mul	a2,a1,a2
  2005d2:	97b2                	add	a5,a5,a2
  2005d4:	078a                	slli	a5,a5,0x2
  2005d6:	97b6                	add	a5,a5,a3
  2005d8:	00e79023          	sh	a4,0(a5) # 1000 <start-0x1ff000>
  2005dc:	fe846783          	lwu	a5,-24(s0)
  2005e0:	078a                	slli	a5,a5,0x2
  2005e2:	ff040713          	addi	a4,s0,-16
  2005e6:	97ba                	add	a5,a5,a4
  2005e8:	df07a783          	lw	a5,-528(a5)
  2005ec:	2785                	addiw	a5,a5,1
  2005ee:	0007871b          	sext.w	a4,a5
  2005f2:	fe846783          	lwu	a5,-24(s0)
  2005f6:	078a                	slli	a5,a5,0x2
  2005f8:	ff040693          	addi	a3,s0,-16
  2005fc:	97b6                	add	a5,a5,a3
  2005fe:	dee7a823          	sw	a4,-528(a5)
  200602:	a881                	j	200652 <RemapBadBlock+0x3c0>
  200604:	fe846783          	lwu	a5,-24(s0)
  200608:	078a                	slli	a5,a5,0x2
  20060a:	ff040713          	addi	a4,s0,-16
  20060e:	97ba                	add	a5,a5,a4
  200610:	cf07a783          	lw	a5,-784(a5)
  200614:	2785                	addiw	a5,a5,1
  200616:	0007871b          	sext.w	a4,a5
  20061a:	fe846783          	lwu	a5,-24(s0)
  20061e:	078a                	slli	a5,a5,0x2
  200620:	ff040693          	addi	a3,s0,-16
  200624:	97b6                	add	a5,a5,a3
  200626:	cee7a823          	sw	a4,-784(a5)
  20062a:	a025                	j	200652 <RemapBadBlock+0x3c0>
  20062c:	fe846783          	lwu	a5,-24(s0)
  200630:	078a                	slli	a5,a5,0x2
  200632:	ff040713          	addi	a4,s0,-16
  200636:	97ba                	add	a5,a5,a4
  200638:	cf07a783          	lw	a5,-784(a5)
  20063c:	2785                	addiw	a5,a5,1
  20063e:	0007871b          	sext.w	a4,a5
  200642:	fe846783          	lwu	a5,-24(s0)
  200646:	078a                	slli	a5,a5,0x2
  200648:	ff040693          	addi	a3,s0,-16
  20064c:	97b6                	add	a5,a5,a3
  20064e:	cee7a823          	sw	a4,-784(a5)
  200652:	fe842783          	lw	a5,-24(s0)
  200656:	2785                	addiw	a5,a5,1
  200658:	fef42423          	sw	a5,-24(s0)
  20065c:	fe842783          	lw	a5,-24(s0)
  200660:	0007871b          	sext.w	a4,a5
  200664:	03f00793          	li	a5,63
  200668:	cae7f4e3          	bgeu	a5,a4,200310 <RemapBadBlock+0x7e>
  20066c:	fec42783          	lw	a5,-20(s0)
  200670:	2785                	addiw	a5,a5,1
  200672:	fef42623          	sw	a5,-20(s0)
  200676:	fec42783          	lw	a5,-20(s0)
  20067a:	0007871b          	sext.w	a4,a5
  20067e:	6785                	lui	a5,0x1
  200680:	c8f765e3          	bltu	a4,a5,20030a <RemapBadBlock+0x78>
  200684:	0020f7b7          	lui	a5,0x20f
  200688:	df078513          	addi	a0,a5,-528 # 20edf0 <nvme_main+0x478>
  20068c:	78d030ef          	jal	ra,204618 <cpl_print>
  200690:	fe042023          	sw	zero,-32(s0)
  200694:	fe042423          	sw	zero,-24(s0)
  200698:	a82d                	j	2006d2 <RemapBadBlock+0x440>
  20069a:	fe846783          	lwu	a5,-24(s0)
  20069e:	078a                	slli	a5,a5,0x2
  2006a0:	ff040713          	addi	a4,s0,-16
  2006a4:	97ba                	add	a5,a5,a4
  2006a6:	cf07a703          	lw	a4,-784(a5)
  2006aa:	fe042783          	lw	a5,-32(s0)
  2006ae:	2781                	sext.w	a5,a5
  2006b0:	00e7fc63          	bgeu	a5,a4,2006c8 <RemapBadBlock+0x436>
  2006b4:	fe846783          	lwu	a5,-24(s0)
  2006b8:	078a                	slli	a5,a5,0x2
  2006ba:	ff040713          	addi	a4,s0,-16
  2006be:	97ba                	add	a5,a5,a4
  2006c0:	cf07a783          	lw	a5,-784(a5)
  2006c4:	fef42023          	sw	a5,-32(s0)
  2006c8:	fe842783          	lw	a5,-24(s0)
  2006cc:	2785                	addiw	a5,a5,1
  2006ce:	fef42423          	sw	a5,-24(s0)
  2006d2:	fe842783          	lw	a5,-24(s0)
  2006d6:	0007871b          	sext.w	a4,a5
  2006da:	03f00793          	li	a5,63
  2006de:	fae7fee3          	bgeu	a5,a4,20069a <RemapBadBlock+0x408>
  2006e2:	fe042783          	lw	a5,-32(s0)
  2006e6:	0077979b          	slliw	a5,a5,0x7
  2006ea:	0007871b          	sext.w	a4,a5
  2006ee:	002107b7          	lui	a5,0x210
  2006f2:	bee7aa23          	sw	a4,-1036(a5) # 20fbf4 <mbPerbadBlockSpace>
  2006f6:	0001                	nop
  2006f8:	31813083          	ld	ra,792(sp)
  2006fc:	31013403          	ld	s0,784(sp)
  200700:	32010113          	addi	sp,sp,800
  200704:	8082                	ret

0000000000200706 <InitDieMap>:
  200706:	1101                	addi	sp,sp,-32
  200708:	ec22                	sd	s0,24(sp)
  20070a:	1000                	addi	s0,sp,32
  20070c:	fe042623          	sw	zero,-20(s0)
  200710:	a8b9                	j	20076e <InitDieMap+0x68>
  200712:	002107b7          	lui	a5,0x210
  200716:	c087b683          	ld	a3,-1016(a5) # 20fc08 <virtualDieMapPtr>
  20071a:	fec46703          	lwu	a4,-20(s0)
  20071e:	87ba                	mv	a5,a4
  200720:	0786                	slli	a5,a5,0x1
  200722:	97ba                	add	a5,a5,a4
  200724:	078a                	slli	a5,a5,0x2
  200726:	97b6                	add	a5,a5,a3
  200728:	577d                	li	a4,-1
  20072a:	00e79123          	sh	a4,2(a5)
  20072e:	002107b7          	lui	a5,0x210
  200732:	c087b683          	ld	a3,-1016(a5) # 20fc08 <virtualDieMapPtr>
  200736:	fec46703          	lwu	a4,-20(s0)
  20073a:	87ba                	mv	a5,a4
  20073c:	0786                	slli	a5,a5,0x1
  20073e:	97ba                	add	a5,a5,a4
  200740:	078a                	slli	a5,a5,0x2
  200742:	97b6                	add	a5,a5,a3
  200744:	577d                	li	a4,-1
  200746:	00e79223          	sh	a4,4(a5)
  20074a:	002107b7          	lui	a5,0x210
  20074e:	c087b683          	ld	a3,-1016(a5) # 20fc08 <virtualDieMapPtr>
  200752:	fec46703          	lwu	a4,-20(s0)
  200756:	87ba                	mv	a5,a4
  200758:	0786                	slli	a5,a5,0x1
  20075a:	97ba                	add	a5,a5,a4
  20075c:	078a                	slli	a5,a5,0x2
  20075e:	97b6                	add	a5,a5,a3
  200760:	00079323          	sh	zero,6(a5)
  200764:	fec42783          	lw	a5,-20(s0)
  200768:	2785                	addiw	a5,a5,1
  20076a:	fef42623          	sw	a5,-20(s0)
  20076e:	fec42783          	lw	a5,-20(s0)
  200772:	0007871b          	sext.w	a4,a5
  200776:	03f00793          	li	a5,63
  20077a:	f8e7fce3          	bgeu	a5,a4,200712 <InitDieMap+0xc>
  20077e:	0001                	nop
  200780:	0001                	nop
  200782:	6462                	ld	s0,24(sp)
  200784:	6105                	addi	sp,sp,32
  200786:	8082                	ret

0000000000200788 <InitBlockMap>:
  200788:	1101                	addi	sp,sp,-32
  20078a:	ec06                	sd	ra,24(sp)
  20078c:	e822                	sd	s0,16(sp)
  20078e:	1000                	addi	s0,sp,32
  200790:	fe042623          	sw	zero,-20(s0)
  200794:	a481                	j	2009d4 <InitBlockMap+0x24c>
  200796:	fe042423          	sw	zero,-24(s0)
  20079a:	a40d                	j	2009bc <InitBlockMap+0x234>
  20079c:	fe842783          	lw	a5,-24(s0)
  2007a0:	00c7d79b          	srliw	a5,a5,0xc
  2007a4:	0007871b          	sext.w	a4,a5
  2007a8:	6785                	lui	a5,0x1
  2007aa:	0587879b          	addiw	a5,a5,88
  2007ae:	02f707bb          	mulw	a5,a4,a5
  2007b2:	0007871b          	sext.w	a4,a5
  2007b6:	fe842683          	lw	a3,-24(s0)
  2007ba:	6785                	lui	a5,0x1
  2007bc:	17fd                	addi	a5,a5,-1
  2007be:	8ff5                	and	a5,a5,a3
  2007c0:	2781                	sext.w	a5,a5
  2007c2:	9fb9                	addw	a5,a5,a4
  2007c4:	fef42223          	sw	a5,-28(s0)
  2007c8:	002107b7          	lui	a5,0x210
  2007cc:	c307b703          	ld	a4,-976(a5) # 20fc30 <phyBlockMapPtr>
  2007d0:	fe446783          	lwu	a5,-28(s0)
  2007d4:	fec46603          	lwu	a2,-20(s0)
  2007d8:	6689                	lui	a3,0x2
  2007da:	0b068693          	addi	a3,a3,176 # 20b0 <start-0x1fdf50>
  2007de:	02d606b3          	mul	a3,a2,a3
  2007e2:	97b6                	add	a5,a5,a3
  2007e4:	078a                	slli	a5,a5,0x2
  2007e6:	97ba                	add	a5,a5,a4
  2007e8:	0007d783          	lhu	a5,0(a5)
  2007ec:	fef42023          	sw	a5,-32(s0)
  2007f0:	002107b7          	lui	a5,0x210
  2007f4:	c307b703          	ld	a4,-976(a5) # 20fc30 <phyBlockMapPtr>
  2007f8:	002107b7          	lui	a5,0x210
  2007fc:	c107b603          	ld	a2,-1008(a5) # 20fc10 <virtualBlockMapPtr>
  200800:	fe046783          	lwu	a5,-32(s0)
  200804:	fec46583          	lwu	a1,-20(s0)
  200808:	6689                	lui	a3,0x2
  20080a:	0b068693          	addi	a3,a3,176 # 20b0 <start-0x1fdf50>
  20080e:	02d586b3          	mul	a3,a1,a3
  200812:	97b6                	add	a5,a5,a3
  200814:	078a                	slli	a5,a5,0x2
  200816:	97ba                	add	a5,a5,a4
  200818:	439c                	lw	a5,0(a5)
  20081a:	0107d79b          	srliw	a5,a5,0x10
  20081e:	8b85                	andi	a5,a5,1
  200820:	0ff7f593          	andi	a1,a5,255
  200824:	fe846783          	lwu	a5,-24(s0)
  200828:	fec46683          	lwu	a3,-20(s0)
  20082c:	873e                	mv	a4,a5
  20082e:	0706                	slli	a4,a4,0x1
  200830:	973e                	add	a4,a4,a5
  200832:	00271793          	slli	a5,a4,0x2
  200836:	873e                	mv	a4,a5
  200838:	87b6                	mv	a5,a3
  20083a:	0786                	slli	a5,a5,0x1
  20083c:	97b6                	add	a5,a5,a3
  20083e:	07be                	slli	a5,a5,0xf
  200840:	97ba                	add	a5,a5,a4
  200842:	97b2                	add	a5,a5,a2
  200844:	872e                	mv	a4,a1
  200846:	00177613          	andi	a2,a4,1
  20084a:	4398                	lw	a4,0(a5)
  20084c:	9b79                	andi	a4,a4,-2
  20084e:	86ba                	mv	a3,a4
  200850:	8732                	mv	a4,a2
  200852:	8f55                	or	a4,a4,a3
  200854:	c398                	sw	a4,0(a5)
  200856:	002107b7          	lui	a5,0x210
  20085a:	c107b603          	ld	a2,-1008(a5) # 20fc10 <virtualBlockMapPtr>
  20085e:	fe846783          	lwu	a5,-24(s0)
  200862:	fec46683          	lwu	a3,-20(s0)
  200866:	873e                	mv	a4,a5
  200868:	0706                	slli	a4,a4,0x1
  20086a:	973e                	add	a4,a4,a5
  20086c:	00271793          	slli	a5,a4,0x2
  200870:	873e                	mv	a4,a5
  200872:	87b6                	mv	a5,a3
  200874:	0786                	slli	a5,a5,0x1
  200876:	97b6                	add	a5,a5,a3
  200878:	07be                	slli	a5,a5,0xf
  20087a:	97ba                	add	a5,a5,a4
  20087c:	97b2                	add	a5,a5,a2
  20087e:	4398                	lw	a4,0(a5)
  200880:	00276713          	ori	a4,a4,2
  200884:	c398                	sw	a4,0(a5)
  200886:	002107b7          	lui	a5,0x210
  20088a:	c107b603          	ld	a2,-1008(a5) # 20fc10 <virtualBlockMapPtr>
  20088e:	fe846783          	lwu	a5,-24(s0)
  200892:	fec46683          	lwu	a3,-20(s0)
  200896:	873e                	mv	a4,a5
  200898:	0706                	slli	a4,a4,0x1
  20089a:	973e                	add	a4,a4,a5
  20089c:	00271793          	slli	a5,a4,0x2
  2008a0:	873e                	mv	a4,a5
  2008a2:	87b6                	mv	a5,a3
  2008a4:	0786                	slli	a5,a5,0x1
  2008a6:	97b6                	add	a5,a5,a3
  2008a8:	07be                	slli	a5,a5,0xf
  2008aa:	97ba                	add	a5,a5,a4
  2008ac:	97b2                	add	a5,a5,a2
  2008ae:	4394                	lw	a3,0(a5)
  2008b0:	fffc0737          	lui	a4,0xfffc0
  2008b4:	070d                	addi	a4,a4,3
  2008b6:	8f75                	and	a4,a4,a3
  2008b8:	c398                	sw	a4,0(a5)
  2008ba:	002107b7          	lui	a5,0x210
  2008be:	c107b603          	ld	a2,-1008(a5) # 20fc10 <virtualBlockMapPtr>
  2008c2:	fe846783          	lwu	a5,-24(s0)
  2008c6:	fec46683          	lwu	a3,-20(s0)
  2008ca:	873e                	mv	a4,a5
  2008cc:	0706                	slli	a4,a4,0x1
  2008ce:	973e                	add	a4,a4,a5
  2008d0:	00271793          	slli	a5,a4,0x2
  2008d4:	873e                	mv	a4,a5
  2008d6:	87b6                	mv	a5,a3
  2008d8:	0786                	slli	a5,a5,0x1
  2008da:	97b6                	add	a5,a5,a3
  2008dc:	07be                	slli	a5,a5,0xf
  2008de:	97ba                	add	a5,a5,a4
  2008e0:	97b2                	add	a5,a5,a2
  2008e2:	00079223          	sh	zero,4(a5)
  2008e6:	002107b7          	lui	a5,0x210
  2008ea:	c107b603          	ld	a2,-1008(a5) # 20fc10 <virtualBlockMapPtr>
  2008ee:	fe846783          	lwu	a5,-24(s0)
  2008f2:	fec46683          	lwu	a3,-20(s0)
  2008f6:	873e                	mv	a4,a5
  2008f8:	0706                	slli	a4,a4,0x1
  2008fa:	973e                	add	a4,a4,a5
  2008fc:	00271793          	slli	a5,a4,0x2
  200900:	873e                	mv	a4,a5
  200902:	87b6                	mv	a5,a3
  200904:	0786                	slli	a5,a5,0x1
  200906:	97b6                	add	a5,a5,a3
  200908:	07be                	slli	a5,a5,0xf
  20090a:	97ba                	add	a5,a5,a4
  20090c:	97b2                	add	a5,a5,a2
  20090e:	00079323          	sh	zero,6(a5)
  200912:	002107b7          	lui	a5,0x210
  200916:	c107b603          	ld	a2,-1008(a5) # 20fc10 <virtualBlockMapPtr>
  20091a:	fe846783          	lwu	a5,-24(s0)
  20091e:	fec46683          	lwu	a3,-20(s0)
  200922:	873e                	mv	a4,a5
  200924:	0706                	slli	a4,a4,0x1
  200926:	973e                	add	a4,a4,a5
  200928:	00271793          	slli	a5,a4,0x2
  20092c:	873e                	mv	a4,a5
  20092e:	87b6                	mv	a5,a3
  200930:	0786                	slli	a5,a5,0x1
  200932:	97b6                	add	a5,a5,a3
  200934:	07be                	slli	a5,a5,0xf
  200936:	97ba                	add	a5,a5,a4
  200938:	97b2                	add	a5,a5,a2
  20093a:	439c                	lw	a5,0(a5)
  20093c:	8b85                	andi	a5,a5,1
  20093e:	0ff7f793          	andi	a5,a5,255
  200942:	c3a5                	beqz	a5,2009a2 <InitBlockMap+0x21a>
  200944:	002107b7          	lui	a5,0x210
  200948:	c107b603          	ld	a2,-1008(a5) # 20fc10 <virtualBlockMapPtr>
  20094c:	fe846783          	lwu	a5,-24(s0)
  200950:	fec46683          	lwu	a3,-20(s0)
  200954:	873e                	mv	a4,a5
  200956:	0706                	slli	a4,a4,0x1
  200958:	973e                	add	a4,a4,a5
  20095a:	00271793          	slli	a5,a4,0x2
  20095e:	873e                	mv	a4,a5
  200960:	87b6                	mv	a5,a3
  200962:	0786                	slli	a5,a5,0x1
  200964:	97b6                	add	a5,a5,a3
  200966:	07be                	slli	a5,a5,0xf
  200968:	97ba                	add	a5,a5,a4
  20096a:	97b2                	add	a5,a5,a2
  20096c:	577d                	li	a4,-1
  20096e:	00e79423          	sh	a4,8(a5)
  200972:	002107b7          	lui	a5,0x210
  200976:	c107b603          	ld	a2,-1008(a5) # 20fc10 <virtualBlockMapPtr>
  20097a:	fe846783          	lwu	a5,-24(s0)
  20097e:	fec46683          	lwu	a3,-20(s0)
  200982:	873e                	mv	a4,a5
  200984:	0706                	slli	a4,a4,0x1
  200986:	973e                	add	a4,a4,a5
  200988:	00271793          	slli	a5,a4,0x2
  20098c:	873e                	mv	a4,a5
  20098e:	87b6                	mv	a5,a3
  200990:	0786                	slli	a5,a5,0x1
  200992:	97b6                	add	a5,a5,a3
  200994:	07be                	slli	a5,a5,0xf
  200996:	97ba                	add	a5,a5,a4
  200998:	97b2                	add	a5,a5,a2
  20099a:	577d                	li	a4,-1
  20099c:	00e79523          	sh	a4,10(a5)
  2009a0:	a809                	j	2009b2 <InitBlockMap+0x22a>
  2009a2:	fe842703          	lw	a4,-24(s0)
  2009a6:	fec42783          	lw	a5,-20(s0)
  2009aa:	85ba                	mv	a1,a4
  2009ac:	853e                	mv	a0,a5
  2009ae:	7bf010ef          	jal	ra,20296c <PutToFbList>
  2009b2:	fe842783          	lw	a5,-24(s0)
  2009b6:	2785                	addiw	a5,a5,1
  2009b8:	fef42423          	sw	a5,-24(s0)
  2009bc:	fe842783          	lw	a5,-24(s0)
  2009c0:	0007871b          	sext.w	a4,a5
  2009c4:	6789                	lui	a5,0x2
  2009c6:	dcf76be3          	bltu	a4,a5,20079c <InitBlockMap+0x14>
  2009ca:	fec42783          	lw	a5,-20(s0)
  2009ce:	2785                	addiw	a5,a5,1
  2009d0:	fef42623          	sw	a5,-20(s0)
  2009d4:	fec42783          	lw	a5,-20(s0)
  2009d8:	0007871b          	sext.w	a4,a5
  2009dc:	03f00793          	li	a5,63
  2009e0:	dae7fbe3          	bgeu	a5,a4,200796 <InitBlockMap+0xe>
  2009e4:	0001                	nop
  2009e6:	0001                	nop
  2009e8:	60e2                	ld	ra,24(sp)
  2009ea:	6442                	ld	s0,16(sp)
  2009ec:	6105                	addi	sp,sp,32
  2009ee:	8082                	ret

00000000002009f0 <InitCurrentBlockOfDieMap>:
  2009f0:	1101                	addi	sp,sp,-32
  2009f2:	ec06                	sd	ra,24(sp)
  2009f4:	e822                	sd	s0,16(sp)
  2009f6:	1000                	addi	s0,sp,32
  2009f8:	fe042623          	sw	zero,-20(s0)
  2009fc:	a88d                	j	200a6e <InitCurrentBlockOfDieMap+0x7e>
  2009fe:	fec42783          	lw	a5,-20(s0)
  200a02:	4581                	li	a1,0
  200a04:	853e                	mv	a0,a5
  200a06:	168020ef          	jal	ra,202b6e <GetFromFbList>
  200a0a:	87aa                	mv	a5,a0
  200a0c:	0007871b          	sext.w	a4,a5
  200a10:	002107b7          	lui	a5,0x210
  200a14:	c087b603          	ld	a2,-1016(a5) # 20fc08 <virtualDieMapPtr>
  200a18:	87ba                	mv	a5,a4
  200a1a:	03079693          	slli	a3,a5,0x30
  200a1e:	92c1                	srli	a3,a3,0x30
  200a20:	fec46703          	lwu	a4,-20(s0)
  200a24:	87ba                	mv	a5,a4
  200a26:	0786                	slli	a5,a5,0x1
  200a28:	97ba                	add	a5,a5,a4
  200a2a:	078a                	slli	a5,a5,0x2
  200a2c:	97b2                	add	a5,a5,a2
  200a2e:	00d79023          	sh	a3,0(a5)
  200a32:	002107b7          	lui	a5,0x210
  200a36:	c087b683          	ld	a3,-1016(a5) # 20fc08 <virtualDieMapPtr>
  200a3a:	fec46703          	lwu	a4,-20(s0)
  200a3e:	87ba                	mv	a5,a4
  200a40:	0786                	slli	a5,a5,0x1
  200a42:	97ba                	add	a5,a5,a4
  200a44:	078a                	slli	a5,a5,0x2
  200a46:	97b6                	add	a5,a5,a3
  200a48:	0007d783          	lhu	a5,0(a5)
  200a4c:	0007871b          	sext.w	a4,a5
  200a50:	67c1                	lui	a5,0x10
  200a52:	17fd                	addi	a5,a5,-1
  200a54:	00f71863          	bne	a4,a5,200a64 <InitCurrentBlockOfDieMap+0x74>
  200a58:	0020f7b7          	lui	a5,0x20f
  200a5c:	e1078513          	addi	a0,a5,-496 # 20ee10 <nvme_main+0x498>
  200a60:	3b9030ef          	jal	ra,204618 <cpl_print>
  200a64:	fec42783          	lw	a5,-20(s0)
  200a68:	2785                	addiw	a5,a5,1
  200a6a:	fef42623          	sw	a5,-20(s0)
  200a6e:	fec42783          	lw	a5,-20(s0)
  200a72:	0007871b          	sext.w	a4,a5
  200a76:	03f00793          	li	a5,63
  200a7a:	f8e7f2e3          	bgeu	a5,a4,2009fe <InitCurrentBlockOfDieMap+0xe>
  200a7e:	0001                	nop
  200a80:	0001                	nop
  200a82:	60e2                	ld	ra,24(sp)
  200a84:	6442                	ld	s0,16(sp)
  200a86:	6105                	addi	sp,sp,32
  200a88:	8082                	ret

0000000000200a8a <ReadBadBlockTable>:
  200a8a:	7139                	addi	sp,sp,-64
  200a8c:	fc06                	sd	ra,56(sp)
  200a8e:	f822                	sd	s0,48(sp)
  200a90:	0080                	addi	s0,sp,64
  200a92:	fca43423          	sd	a0,-56(s0)
  200a96:	87ae                	mv	a5,a1
  200a98:	fcf42223          	sw	a5,-60(s0)
  200a9c:	fe042223          	sw	zero,-28(s0)
  200aa0:	6789                	lui	a5,0x2
  200aa2:	0b078793          	addi	a5,a5,176 # 20b0 <start-0x1fdf50>
  200aa6:	fef42023          	sw	a5,-32(s0)
  200aaa:	4785                	li	a5,1
  200aac:	fef42623          	sw	a5,-20(s0)
  200ab0:	ac95                	j	200d24 <ReadBadBlockTable+0x29a>
  200ab2:	fe042423          	sw	zero,-24(s0)
  200ab6:	ac3d                	j	200cf4 <ReadBadBlockTable+0x26a>
  200ab8:	109020ef          	jal	ra,2033c0 <GetFromFreeReqQ>
  200abc:	87aa                	mv	a5,a0
  200abe:	fcf42e23          	sw	a5,-36(s0)
  200ac2:	002107b7          	lui	a5,0x210
  200ac6:	e507b703          	ld	a4,-432(a5) # 20fe50 <reqPoolPtr>
  200aca:	fdc46683          	lwu	a3,-36(s0)
  200ace:	03400793          	li	a5,52
  200ad2:	02f687b3          	mul	a5,a3,a5
  200ad6:	97ba                	add	a5,a5,a4
  200ad8:	4398                	lw	a4,0(a5)
  200ada:	9b41                	andi	a4,a4,-16
  200adc:	00176713          	ori	a4,a4,1
  200ae0:	c398                	sw	a4,0(a5)
  200ae2:	002107b7          	lui	a5,0x210
  200ae6:	e507b703          	ld	a4,-432(a5) # 20fe50 <reqPoolPtr>
  200aea:	fdc46683          	lwu	a3,-36(s0)
  200aee:	03400793          	li	a5,52
  200af2:	02f687b3          	mul	a5,a3,a5
  200af6:	97ba                	add	a5,a5,a4
  200af8:	4721                	li	a4,8
  200afa:	00e780a3          	sb	a4,1(a5)
  200afe:	002107b7          	lui	a5,0x210
  200b02:	e507b703          	ld	a4,-432(a5) # 20fe50 <reqPoolPtr>
  200b06:	fdc46683          	lwu	a3,-36(s0)
  200b0a:	03400793          	li	a5,52
  200b0e:	02f687b3          	mul	a5,a3,a5
  200b12:	97ba                	add	a5,a5,a4
  200b14:	4b98                	lw	a4,16(a5)
  200b16:	9b71                	andi	a4,a4,-4
  200b18:	00276713          	ori	a4,a4,2
  200b1c:	cb98                	sw	a4,16(a5)
  200b1e:	002107b7          	lui	a5,0x210
  200b22:	e507b703          	ld	a4,-432(a5) # 20fe50 <reqPoolPtr>
  200b26:	fdc46683          	lwu	a3,-36(s0)
  200b2a:	03400793          	li	a5,52
  200b2e:	02f687b3          	mul	a5,a3,a5
  200b32:	97ba                	add	a5,a5,a4
  200b34:	4b98                	lw	a4,16(a5)
  200b36:	9b4d                	andi	a4,a4,-13
  200b38:	00476713          	ori	a4,a4,4
  200b3c:	cb98                	sw	a4,16(a5)
  200b3e:	002107b7          	lui	a5,0x210
  200b42:	e507b703          	ld	a4,-432(a5) # 20fe50 <reqPoolPtr>
  200b46:	fdc46683          	lwu	a3,-36(s0)
  200b4a:	03400793          	li	a5,52
  200b4e:	02f687b3          	mul	a5,a3,a5
  200b52:	97ba                	add	a5,a5,a4
  200b54:	4b98                	lw	a4,16(a5)
  200b56:	01076713          	ori	a4,a4,16
  200b5a:	cb98                	sw	a4,16(a5)
  200b5c:	002107b7          	lui	a5,0x210
  200b60:	e507b703          	ld	a4,-432(a5) # 20fe50 <reqPoolPtr>
  200b64:	fdc46683          	lwu	a3,-36(s0)
  200b68:	03400793          	li	a5,52
  200b6c:	02f687b3          	mul	a5,a3,a5
  200b70:	97ba                	add	a5,a5,a4
  200b72:	4b98                	lw	a4,16(a5)
  200b74:	fdf77713          	andi	a4,a4,-33
  200b78:	cb98                	sw	a4,16(a5)
  200b7a:	002107b7          	lui	a5,0x210
  200b7e:	e507b703          	ld	a4,-432(a5) # 20fe50 <reqPoolPtr>
  200b82:	fdc46683          	lwu	a3,-36(s0)
  200b86:	03400793          	li	a5,52
  200b8a:	02f687b3          	mul	a5,a3,a5
  200b8e:	97ba                	add	a5,a5,a4
  200b90:	4b98                	lw	a4,16(a5)
  200b92:	fbf77713          	andi	a4,a4,-65
  200b96:	cb98                	sw	a4,16(a5)
  200b98:	002107b7          	lui	a5,0x210
  200b9c:	e507b703          	ld	a4,-432(a5) # 20fe50 <reqPoolPtr>
  200ba0:	fdc46683          	lwu	a3,-36(s0)
  200ba4:	03400793          	li	a5,52
  200ba8:	02f687b3          	mul	a5,a3,a5
  200bac:	97ba                	add	a5,a5,a4
  200bae:	4b98                	lw	a4,16(a5)
  200bb0:	08076713          	ori	a4,a4,128
  200bb4:	cb98                	sw	a4,16(a5)
  200bb6:	fe846783          	lwu	a5,-24(s0)
  200bba:	078a                	slli	a5,a5,0x2
  200bbc:	fc843703          	ld	a4,-56(s0)
  200bc0:	97ba                	add	a5,a5,a4
  200bc2:	4398                	lw	a4,0(a5)
  200bc4:	fe442783          	lw	a5,-28(s0)
  200bc8:	fc442683          	lw	a3,-60(s0)
  200bcc:	02f687bb          	mulw	a5,a3,a5
  200bd0:	2781                	sext.w	a5,a5
  200bd2:	002106b7          	lui	a3,0x210
  200bd6:	e506b683          	ld	a3,-432(a3) # 20fe50 <reqPoolPtr>
  200bda:	9fb9                	addw	a5,a5,a4
  200bdc:	0007871b          	sext.w	a4,a5
  200be0:	fdc46603          	lwu	a2,-36(s0)
  200be4:	03400793          	li	a5,52
  200be8:	02f607b3          	mul	a5,a2,a5
  200bec:	97b6                	add	a5,a5,a3
  200bee:	cbd8                	sw	a4,20(a5)
  200bf0:	fe842783          	lw	a5,-24(s0)
  200bf4:	8bbd                	andi	a5,a5,15
  200bf6:	0ff7f793          	andi	a5,a5,255
  200bfa:	00210737          	lui	a4,0x210
  200bfe:	e5073703          	ld	a4,-432(a4) # 20fe50 <reqPoolPtr>
  200c02:	8b9d                	andi	a5,a5,7
  200c04:	0ff7f613          	andi	a2,a5,255
  200c08:	fdc46683          	lwu	a3,-36(s0)
  200c0c:	03400793          	li	a5,52
  200c10:	02f687b3          	mul	a5,a3,a5
  200c14:	97ba                	add	a5,a5,a4
  200c16:	8732                	mv	a4,a2
  200c18:	00f77613          	andi	a2,a4,15
  200c1c:	53d8                	lw	a4,36(a5)
  200c1e:	9b41                	andi	a4,a4,-16
  200c20:	86ba                	mv	a3,a4
  200c22:	8732                	mv	a4,a2
  200c24:	8f55                	or	a4,a4,a3
  200c26:	d3d8                	sw	a4,36(a5)
  200c28:	fe842783          	lw	a5,-24(s0)
  200c2c:	0037d79b          	srliw	a5,a5,0x3
  200c30:	0007869b          	sext.w	a3,a5
  200c34:	002107b7          	lui	a5,0x210
  200c38:	e507b703          	ld	a4,-432(a5) # 20fe50 <reqPoolPtr>
  200c3c:	87b6                	mv	a5,a3
  200c3e:	8bbd                	andi	a5,a5,15
  200c40:	0ff7f613          	andi	a2,a5,255
  200c44:	fdc46683          	lwu	a3,-36(s0)
  200c48:	03400793          	li	a5,52
  200c4c:	02f687b3          	mul	a5,a3,a5
  200c50:	97ba                	add	a5,a5,a4
  200c52:	8732                	mv	a4,a2
  200c54:	8b3d                	andi	a4,a4,15
  200c56:	0047171b          	slliw	a4,a4,0x4
  200c5a:	53d4                	lw	a3,36(a5)
  200c5c:	f0f6f693          	andi	a3,a3,-241
  200c60:	8f55                	or	a4,a4,a3
  200c62:	d3d8                	sw	a4,36(a5)
  200c64:	002107b7          	lui	a5,0x210
  200c68:	c287b703          	ld	a4,-984(a5) # 20fc28 <bbtInfoMapPtr>
  200c6c:	002107b7          	lui	a5,0x210
  200c70:	e507b683          	ld	a3,-432(a5) # 20fe50 <reqPoolPtr>
  200c74:	fe846783          	lwu	a5,-24(s0)
  200c78:	078a                	slli	a5,a5,0x2
  200c7a:	97ba                	add	a5,a5,a4
  200c7c:	0007d703          	lhu	a4,0(a5)
  200c80:	fdc46603          	lwu	a2,-36(s0)
  200c84:	03400793          	li	a5,52
  200c88:	02f607b3          	mul	a5,a2,a5
  200c8c:	97b6                	add	a5,a5,a3
  200c8e:	0087171b          	slliw	a4,a4,0x8
  200c92:	53d0                	lw	a2,36(a5)
  200c94:	ff0006b7          	lui	a3,0xff000
  200c98:	0ff68693          	addi	a3,a3,255 # ffffffffff0000ff <g_nvmeTask+0xfffffffffedeffb7>
  200c9c:	8ef1                	and	a3,a3,a2
  200c9e:	8f55                	or	a4,a4,a3
  200ca0:	d3d8                	sw	a4,36(a5)
  200ca2:	fec42783          	lw	a5,-20(s0)
  200ca6:	2781                	sext.w	a5,a5
  200ca8:	cf91                	beqz	a5,200cc4 <ReadBadBlockTable+0x23a>
  200caa:	fec42783          	lw	a5,-20(s0)
  200cae:	17c2                	slli	a5,a5,0x30
  200cb0:	93c1                	srli	a5,a5,0x30
  200cb2:	0017979b          	slliw	a5,a5,0x1
  200cb6:	17c2                	slli	a5,a5,0x30
  200cb8:	93c1                	srli	a5,a5,0x30
  200cba:	37fd                	addiw	a5,a5,-1
  200cbc:	03079713          	slli	a4,a5,0x30
  200cc0:	9341                	srli	a4,a4,0x30
  200cc2:	a011                	j	200cc6 <ReadBadBlockTable+0x23c>
  200cc4:	4701                	li	a4,0
  200cc6:	002107b7          	lui	a5,0x210
  200cca:	e507b683          	ld	a3,-432(a5) # 20fe50 <reqPoolPtr>
  200cce:	fdc46603          	lwu	a2,-36(s0)
  200cd2:	03400793          	li	a5,52
  200cd6:	02f607b3          	mul	a5,a2,a5
  200cda:	97b6                	add	a5,a5,a3
  200cdc:	02e79423          	sh	a4,40(a5)
  200ce0:	fdc42783          	lw	a5,-36(s0)
  200ce4:	853e                	mv	a0,a5
  200ce6:	0410a0ef          	jal	ra,20b526 <SelectLowLevelReqQ>
  200cea:	fe842783          	lw	a5,-24(s0)
  200cee:	2785                	addiw	a5,a5,1
  200cf0:	fef42423          	sw	a5,-24(s0)
  200cf4:	fe842783          	lw	a5,-24(s0)
  200cf8:	0007871b          	sext.w	a4,a5
  200cfc:	03f00793          	li	a5,63
  200d00:	dae7fce3          	bgeu	a5,a4,200ab8 <ReadBadBlockTable+0x2e>
  200d04:	fec42783          	lw	a5,-20(s0)
  200d08:	2785                	addiw	a5,a5,1
  200d0a:	fef42623          	sw	a5,-20(s0)
  200d0e:	fe442783          	lw	a5,-28(s0)
  200d12:	2785                	addiw	a5,a5,1
  200d14:	fef42223          	sw	a5,-28(s0)
  200d18:	fe042703          	lw	a4,-32(s0)
  200d1c:	77f1                	lui	a5,0xffffc
  200d1e:	9fb9                	addw	a5,a5,a4
  200d20:	fef42023          	sw	a5,-32(s0)
  200d24:	fe042783          	lw	a5,-32(s0)
  200d28:	2781                	sext.w	a5,a5
  200d2a:	d8f044e3          	bgtz	a5,200ab2 <ReadBadBlockTable+0x28>
  200d2e:	103040ef          	jal	ra,205630 <SyncAllLowLevelReqDone>
  200d32:	0001                	nop
  200d34:	70e2                	ld	ra,56(sp)
  200d36:	7442                	ld	s0,48(sp)
  200d38:	6121                	addi	sp,sp,64
  200d3a:	8082                	ret

0000000000200d3c <FindBadBlock>:
  200d3c:	7135                	addi	sp,sp,-160
  200d3e:	ed06                	sd	ra,152(sp)
  200d40:	e922                	sd	s0,144(sp)
  200d42:	1100                	addi	s0,sp,160
  200d44:	f6a43c23          	sd	a0,-136(s0)
  200d48:	f6b43823          	sd	a1,-144(s0)
  200d4c:	87b2                	mv	a5,a2
  200d4e:	f6d43023          	sd	a3,-160(s0)
  200d52:	f6f42623          	sw	a5,-148(s0)
  200d56:	87ba                	mv	a5,a4
  200d58:	f6f42423          	sw	a5,-152(s0)
  200d5c:	0020f7b7          	lui	a5,0x20f
  200d60:	e4078513          	addi	a0,a5,-448 # 20ee40 <nvme_main+0x4c8>
  200d64:	0b5030ef          	jal	ra,204618 <cpl_print>
  200d68:	fe042623          	sw	zero,-20(s0)
  200d6c:	a531                	j	201378 <FindBadBlock+0x63c>
  200d6e:	fe042423          	sw	zero,-24(s0)
  200d72:	ac29                	j	200f8c <FindBadBlock+0x250>
  200d74:	fe846783          	lwu	a5,-24(s0)
  200d78:	f7843703          	ld	a4,-136(s0)
  200d7c:	97ba                	add	a5,a5,a4
  200d7e:	0007c783          	lbu	a5,0(a5)
  200d82:	20079063          	bnez	a5,200f82 <FindBadBlock+0x246>
  200d86:	fe846783          	lwu	a5,-24(s0)
  200d8a:	ff040713          	addi	a4,s0,-16
  200d8e:	97ba                	add	a5,a5,a4
  200d90:	f8078c23          	sb	zero,-104(a5)
  200d94:	62c020ef          	jal	ra,2033c0 <GetFromFreeReqQ>
  200d98:	87aa                	mv	a5,a0
  200d9a:	fcf42623          	sw	a5,-52(s0)
  200d9e:	002107b7          	lui	a5,0x210
  200da2:	e507b703          	ld	a4,-432(a5) # 20fe50 <reqPoolPtr>
  200da6:	fcc46683          	lwu	a3,-52(s0)
  200daa:	03400793          	li	a5,52
  200dae:	02f687b3          	mul	a5,a3,a5
  200db2:	97ba                	add	a5,a5,a4
  200db4:	4398                	lw	a4,0(a5)
  200db6:	9b41                	andi	a4,a4,-16
  200db8:	00176713          	ori	a4,a4,1
  200dbc:	c398                	sw	a4,0(a5)
  200dbe:	002107b7          	lui	a5,0x210
  200dc2:	e507b703          	ld	a4,-432(a5) # 20fe50 <reqPoolPtr>
  200dc6:	fcc46683          	lwu	a3,-52(s0)
  200dca:	03400793          	li	a5,52
  200dce:	02f687b3          	mul	a5,a3,a5
  200dd2:	97ba                	add	a5,a5,a4
  200dd4:	4721                	li	a4,8
  200dd6:	00e780a3          	sb	a4,1(a5)
  200dda:	002107b7          	lui	a5,0x210
  200dde:	e507b703          	ld	a4,-432(a5) # 20fe50 <reqPoolPtr>
  200de2:	fcc46683          	lwu	a3,-52(s0)
  200de6:	03400793          	li	a5,52
  200dea:	02f687b3          	mul	a5,a3,a5
  200dee:	97ba                	add	a5,a5,a4
  200df0:	4b98                	lw	a4,16(a5)
  200df2:	9b71                	andi	a4,a4,-4
  200df4:	00276713          	ori	a4,a4,2
  200df8:	cb98                	sw	a4,16(a5)
  200dfa:	002107b7          	lui	a5,0x210
  200dfe:	e507b703          	ld	a4,-432(a5) # 20fe50 <reqPoolPtr>
  200e02:	fcc46683          	lwu	a3,-52(s0)
  200e06:	03400793          	li	a5,52
  200e0a:	02f687b3          	mul	a5,a3,a5
  200e0e:	97ba                	add	a5,a5,a4
  200e10:	4b98                	lw	a4,16(a5)
  200e12:	9b4d                	andi	a4,a4,-13
  200e14:	00476713          	ori	a4,a4,4
  200e18:	cb98                	sw	a4,16(a5)
  200e1a:	002107b7          	lui	a5,0x210
  200e1e:	e507b703          	ld	a4,-432(a5) # 20fe50 <reqPoolPtr>
  200e22:	fcc46683          	lwu	a3,-52(s0)
  200e26:	03400793          	li	a5,52
  200e2a:	02f687b3          	mul	a5,a3,a5
  200e2e:	97ba                	add	a5,a5,a4
  200e30:	4b98                	lw	a4,16(a5)
  200e32:	9b3d                	andi	a4,a4,-17
  200e34:	cb98                	sw	a4,16(a5)
  200e36:	002107b7          	lui	a5,0x210
  200e3a:	e507b703          	ld	a4,-432(a5) # 20fe50 <reqPoolPtr>
  200e3e:	fcc46683          	lwu	a3,-52(s0)
  200e42:	03400793          	li	a5,52
  200e46:	02f687b3          	mul	a5,a3,a5
  200e4a:	97ba                	add	a5,a5,a4
  200e4c:	4b98                	lw	a4,16(a5)
  200e4e:	fdf77713          	andi	a4,a4,-33
  200e52:	cb98                	sw	a4,16(a5)
  200e54:	002107b7          	lui	a5,0x210
  200e58:	e507b703          	ld	a4,-432(a5) # 20fe50 <reqPoolPtr>
  200e5c:	fcc46683          	lwu	a3,-52(s0)
  200e60:	03400793          	li	a5,52
  200e64:	02f687b3          	mul	a5,a3,a5
  200e68:	97ba                	add	a5,a5,a4
  200e6a:	4b98                	lw	a4,16(a5)
  200e6c:	fbf77713          	andi	a4,a4,-65
  200e70:	cb98                	sw	a4,16(a5)
  200e72:	002107b7          	lui	a5,0x210
  200e76:	e507b703          	ld	a4,-432(a5) # 20fe50 <reqPoolPtr>
  200e7a:	fcc46683          	lwu	a3,-52(s0)
  200e7e:	03400793          	li	a5,52
  200e82:	02f687b3          	mul	a5,a3,a5
  200e86:	97ba                	add	a5,a5,a4
  200e88:	4b98                	lw	a4,16(a5)
  200e8a:	08076713          	ori	a4,a4,128
  200e8e:	cb98                	sw	a4,16(a5)
  200e90:	fe846783          	lwu	a5,-24(s0)
  200e94:	078a                	slli	a5,a5,0x2
  200e96:	f6043703          	ld	a4,-160(s0)
  200e9a:	97ba                	add	a5,a5,a4
  200e9c:	00210737          	lui	a4,0x210
  200ea0:	e5073683          	ld	a3,-432(a4) # 20fe50 <reqPoolPtr>
  200ea4:	4398                	lw	a4,0(a5)
  200ea6:	fcc46603          	lwu	a2,-52(s0)
  200eaa:	03400793          	li	a5,52
  200eae:	02f607b3          	mul	a5,a2,a5
  200eb2:	97b6                	add	a5,a5,a3
  200eb4:	cbd8                	sw	a4,20(a5)
  200eb6:	fe842783          	lw	a5,-24(s0)
  200eba:	8bbd                	andi	a5,a5,15
  200ebc:	0ff7f793          	andi	a5,a5,255
  200ec0:	00210737          	lui	a4,0x210
  200ec4:	e5073703          	ld	a4,-432(a4) # 20fe50 <reqPoolPtr>
  200ec8:	8b9d                	andi	a5,a5,7
  200eca:	0ff7f613          	andi	a2,a5,255
  200ece:	fcc46683          	lwu	a3,-52(s0)
  200ed2:	03400793          	li	a5,52
  200ed6:	02f687b3          	mul	a5,a3,a5
  200eda:	97ba                	add	a5,a5,a4
  200edc:	8732                	mv	a4,a2
  200ede:	00f77613          	andi	a2,a4,15
  200ee2:	53d8                	lw	a4,36(a5)
  200ee4:	9b41                	andi	a4,a4,-16
  200ee6:	86ba                	mv	a3,a4
  200ee8:	8732                	mv	a4,a2
  200eea:	8f55                	or	a4,a4,a3
  200eec:	d3d8                	sw	a4,36(a5)
  200eee:	fe842783          	lw	a5,-24(s0)
  200ef2:	0037d79b          	srliw	a5,a5,0x3
  200ef6:	0007869b          	sext.w	a3,a5
  200efa:	002107b7          	lui	a5,0x210
  200efe:	e507b703          	ld	a4,-432(a5) # 20fe50 <reqPoolPtr>
  200f02:	87b6                	mv	a5,a3
  200f04:	8bbd                	andi	a5,a5,15
  200f06:	0ff7f613          	andi	a2,a5,255
  200f0a:	fcc46683          	lwu	a3,-52(s0)
  200f0e:	03400793          	li	a5,52
  200f12:	02f687b3          	mul	a5,a3,a5
  200f16:	97ba                	add	a5,a5,a4
  200f18:	8732                	mv	a4,a2
  200f1a:	8b3d                	andi	a4,a4,15
  200f1c:	0047171b          	slliw	a4,a4,0x4
  200f20:	53d4                	lw	a3,36(a5)
  200f22:	f0f6f693          	andi	a3,a3,-241
  200f26:	8f55                	or	a4,a4,a3
  200f28:	d3d8                	sw	a4,36(a5)
  200f2a:	002107b7          	lui	a5,0x210
  200f2e:	e507b683          	ld	a3,-432(a5) # 20fe50 <reqPoolPtr>
  200f32:	fec42783          	lw	a5,-20(s0)
  200f36:	03079713          	slli	a4,a5,0x30
  200f3a:	9341                	srli	a4,a4,0x30
  200f3c:	fcc46603          	lwu	a2,-52(s0)
  200f40:	03400793          	li	a5,52
  200f44:	02f607b3          	mul	a5,a2,a5
  200f48:	97b6                	add	a5,a5,a3
  200f4a:	0087171b          	slliw	a4,a4,0x8
  200f4e:	53d0                	lw	a2,36(a5)
  200f50:	ff0006b7          	lui	a3,0xff000
  200f54:	0ff68693          	addi	a3,a3,255 # ffffffffff0000ff <g_nvmeTask+0xfffffffffedeffb7>
  200f58:	8ef1                	and	a3,a3,a2
  200f5a:	8f55                	or	a4,a4,a3
  200f5c:	d3d8                	sw	a4,36(a5)
  200f5e:	002107b7          	lui	a5,0x210
  200f62:	e507b703          	ld	a4,-432(a5) # 20fe50 <reqPoolPtr>
  200f66:	fcc46683          	lwu	a3,-52(s0)
  200f6a:	03400793          	li	a5,52
  200f6e:	02f687b3          	mul	a5,a3,a5
  200f72:	97ba                	add	a5,a5,a4
  200f74:	02079423          	sh	zero,40(a5)
  200f78:	fcc42783          	lw	a5,-52(s0)
  200f7c:	853e                	mv	a0,a5
  200f7e:	5a80a0ef          	jal	ra,20b526 <SelectLowLevelReqQ>
  200f82:	fe842783          	lw	a5,-24(s0)
  200f86:	2785                	addiw	a5,a5,1
  200f88:	fef42423          	sw	a5,-24(s0)
  200f8c:	fe842783          	lw	a5,-24(s0)
  200f90:	0007871b          	sext.w	a4,a5
  200f94:	03f00793          	li	a5,63
  200f98:	dce7fee3          	bgeu	a5,a4,200d74 <FindBadBlock+0x38>
  200f9c:	694040ef          	jal	ra,205630 <SyncAllLowLevelReqDone>
  200fa0:	fe042423          	sw	zero,-24(s0)
  200fa4:	a451                	j	201228 <FindBadBlock+0x4ec>
  200fa6:	fe846783          	lwu	a5,-24(s0)
  200faa:	f7843703          	ld	a4,-136(s0)
  200fae:	97ba                	add	a5,a5,a4
  200fb0:	0007c783          	lbu	a5,0(a5)
  200fb4:	26079563          	bnez	a5,20121e <FindBadBlock+0x4e2>
  200fb8:	fe846783          	lwu	a5,-24(s0)
  200fbc:	078a                	slli	a5,a5,0x2
  200fbe:	f6043703          	ld	a4,-160(s0)
  200fc2:	97ba                	add	a5,a5,a4
  200fc4:	439c                	lw	a5,0(a5)
  200fc6:	1782                	slli	a5,a5,0x20
  200fc8:	9381                	srli	a5,a5,0x20
  200fca:	fef43023          	sd	a5,-32(s0)
  200fce:	fe846783          	lwu	a5,-24(s0)
  200fd2:	078a                	slli	a5,a5,0x2
  200fd4:	f6043703          	ld	a4,-160(s0)
  200fd8:	97ba                	add	a5,a5,a4
  200fda:	4398                	lw	a4,0(a5)
  200fdc:	6791                	lui	a5,0x4
  200fde:	9fb9                	addw	a5,a5,a4
  200fe0:	2781                	sext.w	a5,a5
  200fe2:	1782                	slli	a5,a5,0x20
  200fe4:	9381                	srli	a5,a5,0x20
  200fe6:	fcf43c23          	sd	a5,-40(s0)
  200fea:	fe043783          	ld	a5,-32(s0)
  200fee:	0007c783          	lbu	a5,0(a5) # 4000 <start-0x1fc000>
  200ff2:	873e                	mv	a4,a5
  200ff4:	0ff00793          	li	a5,255
  200ff8:	20f71563          	bne	a4,a5,201202 <FindBadBlock+0x4c6>
  200ffc:	fd843783          	ld	a5,-40(s0)
  201000:	0007c783          	lbu	a5,0(a5)
  201004:	873e                	mv	a4,a5
  201006:	0ff00793          	li	a5,255
  20100a:	1ef71c63          	bne	a4,a5,201202 <FindBadBlock+0x4c6>
  20100e:	3b2020ef          	jal	ra,2033c0 <GetFromFreeReqQ>
  201012:	87aa                	mv	a5,a0
  201014:	fcf42623          	sw	a5,-52(s0)
  201018:	002107b7          	lui	a5,0x210
  20101c:	e507b703          	ld	a4,-432(a5) # 20fe50 <reqPoolPtr>
  201020:	fcc46683          	lwu	a3,-52(s0)
  201024:	03400793          	li	a5,52
  201028:	02f687b3          	mul	a5,a3,a5
  20102c:	97ba                	add	a5,a5,a4
  20102e:	4398                	lw	a4,0(a5)
  201030:	9b41                	andi	a4,a4,-16
  201032:	00176713          	ori	a4,a4,1
  201036:	c398                	sw	a4,0(a5)
  201038:	002107b7          	lui	a5,0x210
  20103c:	e507b703          	ld	a4,-432(a5) # 20fe50 <reqPoolPtr>
  201040:	fcc46683          	lwu	a3,-52(s0)
  201044:	03400793          	li	a5,52
  201048:	02f687b3          	mul	a5,a3,a5
  20104c:	97ba                	add	a5,a5,a4
  20104e:	4721                	li	a4,8
  201050:	00e780a3          	sb	a4,1(a5)
  201054:	002107b7          	lui	a5,0x210
  201058:	e507b703          	ld	a4,-432(a5) # 20fe50 <reqPoolPtr>
  20105c:	fcc46683          	lwu	a3,-52(s0)
  201060:	03400793          	li	a5,52
  201064:	02f687b3          	mul	a5,a3,a5
  201068:	97ba                	add	a5,a5,a4
  20106a:	4b98                	lw	a4,16(a5)
  20106c:	9b71                	andi	a4,a4,-4
  20106e:	00276713          	ori	a4,a4,2
  201072:	cb98                	sw	a4,16(a5)
  201074:	002107b7          	lui	a5,0x210
  201078:	e507b703          	ld	a4,-432(a5) # 20fe50 <reqPoolPtr>
  20107c:	fcc46683          	lwu	a3,-52(s0)
  201080:	03400793          	li	a5,52
  201084:	02f687b3          	mul	a5,a3,a5
  201088:	97ba                	add	a5,a5,a4
  20108a:	4b98                	lw	a4,16(a5)
  20108c:	9b4d                	andi	a4,a4,-13
  20108e:	00476713          	ori	a4,a4,4
  201092:	cb98                	sw	a4,16(a5)
  201094:	002107b7          	lui	a5,0x210
  201098:	e507b703          	ld	a4,-432(a5) # 20fe50 <reqPoolPtr>
  20109c:	fcc46683          	lwu	a3,-52(s0)
  2010a0:	03400793          	li	a5,52
  2010a4:	02f687b3          	mul	a5,a3,a5
  2010a8:	97ba                	add	a5,a5,a4
  2010aa:	4b98                	lw	a4,16(a5)
  2010ac:	9b3d                	andi	a4,a4,-17
  2010ae:	cb98                	sw	a4,16(a5)
  2010b0:	002107b7          	lui	a5,0x210
  2010b4:	e507b703          	ld	a4,-432(a5) # 20fe50 <reqPoolPtr>
  2010b8:	fcc46683          	lwu	a3,-52(s0)
  2010bc:	03400793          	li	a5,52
  2010c0:	02f687b3          	mul	a5,a3,a5
  2010c4:	97ba                	add	a5,a5,a4
  2010c6:	4b98                	lw	a4,16(a5)
  2010c8:	fdf77713          	andi	a4,a4,-33
  2010cc:	cb98                	sw	a4,16(a5)
  2010ce:	002107b7          	lui	a5,0x210
  2010d2:	e507b703          	ld	a4,-432(a5) # 20fe50 <reqPoolPtr>
  2010d6:	fcc46683          	lwu	a3,-52(s0)
  2010da:	03400793          	li	a5,52
  2010de:	02f687b3          	mul	a5,a3,a5
  2010e2:	97ba                	add	a5,a5,a4
  2010e4:	4b98                	lw	a4,16(a5)
  2010e6:	fbf77713          	andi	a4,a4,-65
  2010ea:	cb98                	sw	a4,16(a5)
  2010ec:	002107b7          	lui	a5,0x210
  2010f0:	e507b703          	ld	a4,-432(a5) # 20fe50 <reqPoolPtr>
  2010f4:	fcc46683          	lwu	a3,-52(s0)
  2010f8:	03400793          	li	a5,52
  2010fc:	02f687b3          	mul	a5,a3,a5
  201100:	97ba                	add	a5,a5,a4
  201102:	4b98                	lw	a4,16(a5)
  201104:	08076713          	ori	a4,a4,128
  201108:	cb98                	sw	a4,16(a5)
  20110a:	fe846783          	lwu	a5,-24(s0)
  20110e:	078a                	slli	a5,a5,0x2
  201110:	f6043703          	ld	a4,-160(s0)
  201114:	97ba                	add	a5,a5,a4
  201116:	00210737          	lui	a4,0x210
  20111a:	e5073683          	ld	a3,-432(a4) # 20fe50 <reqPoolPtr>
  20111e:	4398                	lw	a4,0(a5)
  201120:	fcc46603          	lwu	a2,-52(s0)
  201124:	03400793          	li	a5,52
  201128:	02f607b3          	mul	a5,a2,a5
  20112c:	97b6                	add	a5,a5,a3
  20112e:	cbd8                	sw	a4,20(a5)
  201130:	fe842783          	lw	a5,-24(s0)
  201134:	8bbd                	andi	a5,a5,15
  201136:	0ff7f793          	andi	a5,a5,255
  20113a:	00210737          	lui	a4,0x210
  20113e:	e5073703          	ld	a4,-432(a4) # 20fe50 <reqPoolPtr>
  201142:	8b9d                	andi	a5,a5,7
  201144:	0ff7f613          	andi	a2,a5,255
  201148:	fcc46683          	lwu	a3,-52(s0)
  20114c:	03400793          	li	a5,52
  201150:	02f687b3          	mul	a5,a3,a5
  201154:	97ba                	add	a5,a5,a4
  201156:	8732                	mv	a4,a2
  201158:	00f77613          	andi	a2,a4,15
  20115c:	53d8                	lw	a4,36(a5)
  20115e:	9b41                	andi	a4,a4,-16
  201160:	86ba                	mv	a3,a4
  201162:	8732                	mv	a4,a2
  201164:	8f55                	or	a4,a4,a3
  201166:	d3d8                	sw	a4,36(a5)
  201168:	fe842783          	lw	a5,-24(s0)
  20116c:	0037d79b          	srliw	a5,a5,0x3
  201170:	0007869b          	sext.w	a3,a5
  201174:	002107b7          	lui	a5,0x210
  201178:	e507b703          	ld	a4,-432(a5) # 20fe50 <reqPoolPtr>
  20117c:	87b6                	mv	a5,a3
  20117e:	8bbd                	andi	a5,a5,15
  201180:	0ff7f613          	andi	a2,a5,255
  201184:	fcc46683          	lwu	a3,-52(s0)
  201188:	03400793          	li	a5,52
  20118c:	02f687b3          	mul	a5,a3,a5
  201190:	97ba                	add	a5,a5,a4
  201192:	8732                	mv	a4,a2
  201194:	8b3d                	andi	a4,a4,15
  201196:	0047171b          	slliw	a4,a4,0x4
  20119a:	53d4                	lw	a3,36(a5)
  20119c:	f0f6f693          	andi	a3,a3,-241
  2011a0:	8f55                	or	a4,a4,a3
  2011a2:	d3d8                	sw	a4,36(a5)
  2011a4:	002107b7          	lui	a5,0x210
  2011a8:	e507b683          	ld	a3,-432(a5) # 20fe50 <reqPoolPtr>
  2011ac:	fec42783          	lw	a5,-20(s0)
  2011b0:	03079713          	slli	a4,a5,0x30
  2011b4:	9341                	srli	a4,a4,0x30
  2011b6:	fcc46603          	lwu	a2,-52(s0)
  2011ba:	03400793          	li	a5,52
  2011be:	02f607b3          	mul	a5,a2,a5
  2011c2:	97b6                	add	a5,a5,a3
  2011c4:	0087171b          	slliw	a4,a4,0x8
  2011c8:	53d0                	lw	a2,36(a5)
  2011ca:	ff0006b7          	lui	a3,0xff000
  2011ce:	0ff68693          	addi	a3,a3,255 # ffffffffff0000ff <g_nvmeTask+0xfffffffffedeffb7>
  2011d2:	8ef1                	and	a3,a3,a2
  2011d4:	8f55                	or	a4,a4,a3
  2011d6:	d3d8                	sw	a4,36(a5)
  2011d8:	002107b7          	lui	a5,0x210
  2011dc:	e507b703          	ld	a4,-432(a5) # 20fe50 <reqPoolPtr>
  2011e0:	fcc46683          	lwu	a3,-52(s0)
  2011e4:	03400793          	li	a5,52
  2011e8:	02f687b3          	mul	a5,a3,a5
  2011ec:	97ba                	add	a5,a5,a4
  2011ee:	0ff00713          	li	a4,255
  2011f2:	02e79423          	sh	a4,40(a5)
  2011f6:	fcc42783          	lw	a5,-52(s0)
  2011fa:	853e                	mv	a0,a5
  2011fc:	32a0a0ef          	jal	ra,20b526 <SelectLowLevelReqQ>
  201200:	a839                	j	20121e <FindBadBlock+0x4e2>
  201202:	0020f7b7          	lui	a5,0x20f
  201206:	e5078513          	addi	a0,a5,-432 # 20ee50 <nvme_main+0x4d8>
  20120a:	40e030ef          	jal	ra,204618 <cpl_print>
  20120e:	fe846783          	lwu	a5,-24(s0)
  201212:	ff040713          	addi	a4,s0,-16
  201216:	97ba                	add	a5,a5,a4
  201218:	4705                	li	a4,1
  20121a:	f8e78c23          	sb	a4,-104(a5)
  20121e:	fe842783          	lw	a5,-24(s0)
  201222:	2785                	addiw	a5,a5,1
  201224:	fef42423          	sw	a5,-24(s0)
  201228:	fe842783          	lw	a5,-24(s0)
  20122c:	0007871b          	sext.w	a4,a5
  201230:	03f00793          	li	a5,63
  201234:	d6e7f9e3          	bgeu	a5,a4,200fa6 <FindBadBlock+0x26a>
  201238:	3f8040ef          	jal	ra,205630 <SyncAllLowLevelReqDone>
  20123c:	fe042423          	sw	zero,-24(s0)
  201240:	aa39                	j	20135e <FindBadBlock+0x622>
  201242:	fe846783          	lwu	a5,-24(s0)
  201246:	f7843703          	ld	a4,-136(s0)
  20124a:	97ba                	add	a5,a5,a4
  20124c:	0007c783          	lbu	a5,0(a5)
  201250:	10079263          	bnez	a5,201354 <FindBadBlock+0x618>
  201254:	fe846783          	lwu	a5,-24(s0)
  201258:	078a                	slli	a5,a5,0x2
  20125a:	f6043703          	ld	a4,-160(s0)
  20125e:	97ba                	add	a5,a5,a4
  201260:	439c                	lw	a5,0(a5)
  201262:	1782                	slli	a5,a5,0x20
  201264:	9381                	srli	a5,a5,0x20
  201266:	fef43023          	sd	a5,-32(s0)
  20126a:	fe846783          	lwu	a5,-24(s0)
  20126e:	078a                	slli	a5,a5,0x2
  201270:	f6043703          	ld	a4,-160(s0)
  201274:	97ba                	add	a5,a5,a4
  201276:	4398                	lw	a4,0(a5)
  201278:	6791                	lui	a5,0x4
  20127a:	9fb9                	addw	a5,a5,a4
  20127c:	2781                	sext.w	a5,a5
  20127e:	1782                	slli	a5,a5,0x20
  201280:	9381                	srli	a5,a5,0x20
  201282:	fcf43c23          	sd	a5,-40(s0)
  201286:	fe043783          	ld	a5,-32(s0)
  20128a:	0007c783          	lbu	a5,0(a5) # 4000 <start-0x1fc000>
  20128e:	873e                	mv	a4,a5
  201290:	0ff00793          	li	a5,255
  201294:	00f71b63          	bne	a4,a5,2012aa <FindBadBlock+0x56e>
  201298:	fd843783          	ld	a5,-40(s0)
  20129c:	0007c783          	lbu	a5,0(a5)
  2012a0:	873e                	mv	a4,a5
  2012a2:	0ff00793          	li	a5,255
  2012a6:	02f70863          	beq	a4,a5,2012d6 <FindBadBlock+0x59a>
  2012aa:	fe846783          	lwu	a5,-24(s0)
  2012ae:	ff040713          	addi	a4,s0,-16
  2012b2:	97ba                	add	a5,a5,a4
  2012b4:	f987c783          	lbu	a5,-104(a5)
  2012b8:	ef99                	bnez	a5,2012d6 <FindBadBlock+0x59a>
  2012ba:	0020f7b7          	lui	a5,0x20f
  2012be:	e5078513          	addi	a0,a5,-432 # 20ee50 <nvme_main+0x4d8>
  2012c2:	356030ef          	jal	ra,204618 <cpl_print>
  2012c6:	fe846783          	lwu	a5,-24(s0)
  2012ca:	ff040713          	addi	a4,s0,-16
  2012ce:	97ba                	add	a5,a5,a4
  2012d0:	4705                	li	a4,1
  2012d2:	f8e78c23          	sb	a4,-104(a5)
  2012d6:	fe846783          	lwu	a5,-24(s0)
  2012da:	078a                	slli	a5,a5,0x2
  2012dc:	f7043703          	ld	a4,-144(s0)
  2012e0:	97ba                	add	a5,a5,a4
  2012e2:	439c                	lw	a5,0(a5)
  2012e4:	fec42703          	lw	a4,-20(s0)
  2012e8:	9fb9                	addw	a5,a5,a4
  2012ea:	2781                	sext.w	a5,a5
  2012ec:	1782                	slli	a5,a5,0x20
  2012ee:	9381                	srli	a5,a5,0x20
  2012f0:	fcf43823          	sd	a5,-48(s0)
  2012f4:	fe846783          	lwu	a5,-24(s0)
  2012f8:	ff040713          	addi	a4,s0,-16
  2012fc:	97ba                	add	a5,a5,a4
  2012fe:	f987c703          	lbu	a4,-104(a5)
  201302:	fd043783          	ld	a5,-48(s0)
  201306:	00e78023          	sb	a4,0(a5)
  20130a:	fe846783          	lwu	a5,-24(s0)
  20130e:	ff040713          	addi	a4,s0,-16
  201312:	97ba                	add	a5,a5,a4
  201314:	f987c683          	lbu	a3,-104(a5)
  201318:	002107b7          	lui	a5,0x210
  20131c:	c307b703          	ld	a4,-976(a5) # 20fc30 <phyBlockMapPtr>
  201320:	87b6                	mv	a5,a3
  201322:	8b85                	andi	a5,a5,1
  201324:	0ff7f593          	andi	a1,a5,255
  201328:	fec46783          	lwu	a5,-20(s0)
  20132c:	fe846603          	lwu	a2,-24(s0)
  201330:	6689                	lui	a3,0x2
  201332:	0b068693          	addi	a3,a3,176 # 20b0 <start-0x1fdf50>
  201336:	02d606b3          	mul	a3,a2,a3
  20133a:	97b6                	add	a5,a5,a3
  20133c:	078a                	slli	a5,a5,0x2
  20133e:	97ba                	add	a5,a5,a4
  201340:	872e                	mv	a4,a1
  201342:	8b05                	andi	a4,a4,1
  201344:	0107171b          	slliw	a4,a4,0x10
  201348:	4390                	lw	a2,0(a5)
  20134a:	76c1                	lui	a3,0xffff0
  20134c:	16fd                	addi	a3,a3,-1
  20134e:	8ef1                	and	a3,a3,a2
  201350:	8f55                	or	a4,a4,a3
  201352:	c398                	sw	a4,0(a5)
  201354:	fe842783          	lw	a5,-24(s0)
  201358:	2785                	addiw	a5,a5,1
  20135a:	fef42423          	sw	a5,-24(s0)
  20135e:	fe842783          	lw	a5,-24(s0)
  201362:	0007871b          	sext.w	a4,a5
  201366:	03f00793          	li	a5,63
  20136a:	ece7fce3          	bgeu	a5,a4,201242 <FindBadBlock+0x506>
  20136e:	fec42783          	lw	a5,-20(s0)
  201372:	2785                	addiw	a5,a5,1
  201374:	fef42623          	sw	a5,-20(s0)
  201378:	fec42783          	lw	a5,-20(s0)
  20137c:	0007871b          	sext.w	a4,a5
  201380:	6789                	lui	a5,0x2
  201382:	0af78793          	addi	a5,a5,175 # 20af <start-0x1fdf51>
  201386:	9ee7f4e3          	bgeu	a5,a4,200d6e <FindBadBlock+0x32>
  20138a:	0001                	nop
  20138c:	0001                	nop
  20138e:	60ea                	ld	ra,152(sp)
  201390:	644a                	ld	s0,144(sp)
  201392:	610d                	addi	sp,sp,160
  201394:	8082                	ret

0000000000201396 <SaveBadBlockTable>:
  201396:	715d                	addi	sp,sp,-80
  201398:	e486                	sd	ra,72(sp)
  20139a:	e0a2                	sd	s0,64(sp)
  20139c:	0880                	addi	s0,sp,80
  20139e:	fca43423          	sd	a0,-56(s0)
  2013a2:	fcb43023          	sd	a1,-64(s0)
  2013a6:	87b2                	mv	a5,a2
  2013a8:	faf42e23          	sw	a5,-68(s0)
  2013ac:	fe042423          	sw	zero,-24(s0)
  2013b0:	6789                	lui	a5,0x2
  2013b2:	0b078793          	addi	a5,a5,176 # 20b0 <start-0x1fdf50>
  2013b6:	fef42223          	sw	a5,-28(s0)
  2013ba:	4785                	li	a5,1
  2013bc:	fef42023          	sw	a5,-32(s0)
  2013c0:	a92d                	j	2017fa <SaveBadBlockTable+0x464>
  2013c2:	fe042623          	sw	zero,-20(s0)
  2013c6:	a111                	j	2017ca <SaveBadBlockTable+0x434>
  2013c8:	fec46783          	lwu	a5,-20(s0)
  2013cc:	fc843703          	ld	a4,-56(s0)
  2013d0:	97ba                	add	a5,a5,a4
  2013d2:	0007c783          	lbu	a5,0(a5)
  2013d6:	cf81                	beqz	a5,2013ee <SaveBadBlockTable+0x58>
  2013d8:	fec46783          	lwu	a5,-20(s0)
  2013dc:	fc843703          	ld	a4,-56(s0)
  2013e0:	97ba                	add	a5,a5,a4
  2013e2:	0007c783          	lbu	a5,0(a5)
  2013e6:	873e                	mv	a4,a5
  2013e8:	478d                	li	a5,3
  2013ea:	3cf71b63          	bne	a4,a5,2017c0 <SaveBadBlockTable+0x42a>
  2013ee:	fe842783          	lw	a5,-24(s0)
  2013f2:	2781                	sext.w	a5,a5
  2013f4:	18079d63          	bnez	a5,20158e <SaveBadBlockTable+0x1f8>
  2013f8:	7c9010ef          	jal	ra,2033c0 <GetFromFreeReqQ>
  2013fc:	87aa                	mv	a5,a0
  2013fe:	fcf42e23          	sw	a5,-36(s0)
  201402:	002107b7          	lui	a5,0x210
  201406:	e507b703          	ld	a4,-432(a5) # 20fe50 <reqPoolPtr>
  20140a:	fdc46683          	lwu	a3,-36(s0)
  20140e:	03400793          	li	a5,52
  201412:	02f687b3          	mul	a5,a3,a5
  201416:	97ba                	add	a5,a5,a4
  201418:	4398                	lw	a4,0(a5)
  20141a:	9b41                	andi	a4,a4,-16
  20141c:	00176713          	ori	a4,a4,1
  201420:	c398                	sw	a4,0(a5)
  201422:	002107b7          	lui	a5,0x210
  201426:	e507b703          	ld	a4,-432(a5) # 20fe50 <reqPoolPtr>
  20142a:	fdc46683          	lwu	a3,-36(s0)
  20142e:	03400793          	li	a5,52
  201432:	02f687b3          	mul	a5,a3,a5
  201436:	97ba                	add	a5,a5,a4
  201438:	4731                	li	a4,12
  20143a:	00e780a3          	sb	a4,1(a5)
  20143e:	002107b7          	lui	a5,0x210
  201442:	e507b703          	ld	a4,-432(a5) # 20fe50 <reqPoolPtr>
  201446:	fdc46683          	lwu	a3,-36(s0)
  20144a:	03400793          	li	a5,52
  20144e:	02f687b3          	mul	a5,a3,a5
  201452:	97ba                	add	a5,a5,a4
  201454:	4b98                	lw	a4,16(a5)
  201456:	9b4d                	andi	a4,a4,-13
  201458:	00476713          	ori	a4,a4,4
  20145c:	cb98                	sw	a4,16(a5)
  20145e:	002107b7          	lui	a5,0x210
  201462:	e507b703          	ld	a4,-432(a5) # 20fe50 <reqPoolPtr>
  201466:	fdc46683          	lwu	a3,-36(s0)
  20146a:	03400793          	li	a5,52
  20146e:	02f687b3          	mul	a5,a3,a5
  201472:	97ba                	add	a5,a5,a4
  201474:	4b98                	lw	a4,16(a5)
  201476:	00376713          	ori	a4,a4,3
  20147a:	cb98                	sw	a4,16(a5)
  20147c:	002107b7          	lui	a5,0x210
  201480:	e507b703          	ld	a4,-432(a5) # 20fe50 <reqPoolPtr>
  201484:	fdc46683          	lwu	a3,-36(s0)
  201488:	03400793          	li	a5,52
  20148c:	02f687b3          	mul	a5,a3,a5
  201490:	97ba                	add	a5,a5,a4
  201492:	4b98                	lw	a4,16(a5)
  201494:	fbf77713          	andi	a4,a4,-65
  201498:	cb98                	sw	a4,16(a5)
  20149a:	002107b7          	lui	a5,0x210
  20149e:	e507b703          	ld	a4,-432(a5) # 20fe50 <reqPoolPtr>
  2014a2:	fdc46683          	lwu	a3,-36(s0)
  2014a6:	03400793          	li	a5,52
  2014aa:	02f687b3          	mul	a5,a3,a5
  2014ae:	97ba                	add	a5,a5,a4
  2014b0:	4b98                	lw	a4,16(a5)
  2014b2:	08076713          	ori	a4,a4,128
  2014b6:	cb98                	sw	a4,16(a5)
  2014b8:	fec42783          	lw	a5,-20(s0)
  2014bc:	8bbd                	andi	a5,a5,15
  2014be:	0ff7f793          	andi	a5,a5,255
  2014c2:	00210737          	lui	a4,0x210
  2014c6:	e5073703          	ld	a4,-432(a4) # 20fe50 <reqPoolPtr>
  2014ca:	8b9d                	andi	a5,a5,7
  2014cc:	0ff7f613          	andi	a2,a5,255
  2014d0:	fdc46683          	lwu	a3,-36(s0)
  2014d4:	03400793          	li	a5,52
  2014d8:	02f687b3          	mul	a5,a3,a5
  2014dc:	97ba                	add	a5,a5,a4
  2014de:	8732                	mv	a4,a2
  2014e0:	00f77613          	andi	a2,a4,15
  2014e4:	53d8                	lw	a4,36(a5)
  2014e6:	9b41                	andi	a4,a4,-16
  2014e8:	86ba                	mv	a3,a4
  2014ea:	8732                	mv	a4,a2
  2014ec:	8f55                	or	a4,a4,a3
  2014ee:	d3d8                	sw	a4,36(a5)
  2014f0:	fec42783          	lw	a5,-20(s0)
  2014f4:	0037d79b          	srliw	a5,a5,0x3
  2014f8:	0007869b          	sext.w	a3,a5
  2014fc:	002107b7          	lui	a5,0x210
  201500:	e507b703          	ld	a4,-432(a5) # 20fe50 <reqPoolPtr>
  201504:	87b6                	mv	a5,a3
  201506:	8bbd                	andi	a5,a5,15
  201508:	0ff7f613          	andi	a2,a5,255
  20150c:	fdc46683          	lwu	a3,-36(s0)
  201510:	03400793          	li	a5,52
  201514:	02f687b3          	mul	a5,a3,a5
  201518:	97ba                	add	a5,a5,a4
  20151a:	8732                	mv	a4,a2
  20151c:	8b3d                	andi	a4,a4,15
  20151e:	0047171b          	slliw	a4,a4,0x4
  201522:	53d4                	lw	a3,36(a5)
  201524:	f0f6f693          	andi	a3,a3,-241
  201528:	8f55                	or	a4,a4,a3
  20152a:	d3d8                	sw	a4,36(a5)
  20152c:	002107b7          	lui	a5,0x210
  201530:	c287b703          	ld	a4,-984(a5) # 20fc28 <bbtInfoMapPtr>
  201534:	002107b7          	lui	a5,0x210
  201538:	e507b683          	ld	a3,-432(a5) # 20fe50 <reqPoolPtr>
  20153c:	fec46783          	lwu	a5,-20(s0)
  201540:	078a                	slli	a5,a5,0x2
  201542:	97ba                	add	a5,a5,a4
  201544:	0007d703          	lhu	a4,0(a5)
  201548:	fdc46603          	lwu	a2,-36(s0)
  20154c:	03400793          	li	a5,52
  201550:	02f607b3          	mul	a5,a2,a5
  201554:	97b6                	add	a5,a5,a3
  201556:	0087171b          	slliw	a4,a4,0x8
  20155a:	53d0                	lw	a2,36(a5)
  20155c:	ff0006b7          	lui	a3,0xff000
  201560:	0ff68693          	addi	a3,a3,255 # ffffffffff0000ff <g_nvmeTask+0xfffffffffedeffb7>
  201564:	8ef1                	and	a3,a3,a2
  201566:	8f55                	or	a4,a4,a3
  201568:	d3d8                	sw	a4,36(a5)
  20156a:	002107b7          	lui	a5,0x210
  20156e:	e507b703          	ld	a4,-432(a5) # 20fe50 <reqPoolPtr>
  201572:	fdc46683          	lwu	a3,-36(s0)
  201576:	03400793          	li	a5,52
  20157a:	02f687b3          	mul	a5,a3,a5
  20157e:	97ba                	add	a5,a5,a4
  201580:	02079423          	sh	zero,40(a5)
  201584:	fdc42783          	lw	a5,-36(s0)
  201588:	853e                	mv	a0,a5
  20158a:	79d090ef          	jal	ra,20b526 <SelectLowLevelReqQ>
  20158e:	633010ef          	jal	ra,2033c0 <GetFromFreeReqQ>
  201592:	87aa                	mv	a5,a0
  201594:	fcf42e23          	sw	a5,-36(s0)
  201598:	002107b7          	lui	a5,0x210
  20159c:	e507b703          	ld	a4,-432(a5) # 20fe50 <reqPoolPtr>
  2015a0:	fdc46683          	lwu	a3,-36(s0)
  2015a4:	03400793          	li	a5,52
  2015a8:	02f687b3          	mul	a5,a3,a5
  2015ac:	97ba                	add	a5,a5,a4
  2015ae:	4398                	lw	a4,0(a5)
  2015b0:	9b41                	andi	a4,a4,-16
  2015b2:	00176713          	ori	a4,a4,1
  2015b6:	c398                	sw	a4,0(a5)
  2015b8:	002107b7          	lui	a5,0x210
  2015bc:	e507b703          	ld	a4,-432(a5) # 20fe50 <reqPoolPtr>
  2015c0:	fdc46683          	lwu	a3,-36(s0)
  2015c4:	03400793          	li	a5,52
  2015c8:	02f687b3          	mul	a5,a3,a5
  2015cc:	97ba                	add	a5,a5,a4
  2015ce:	000780a3          	sb	zero,1(a5)
  2015d2:	002107b7          	lui	a5,0x210
  2015d6:	e507b703          	ld	a4,-432(a5) # 20fe50 <reqPoolPtr>
  2015da:	fdc46683          	lwu	a3,-36(s0)
  2015de:	03400793          	li	a5,52
  2015e2:	02f687b3          	mul	a5,a3,a5
  2015e6:	97ba                	add	a5,a5,a4
  2015e8:	4b98                	lw	a4,16(a5)
  2015ea:	9b71                	andi	a4,a4,-4
  2015ec:	00276713          	ori	a4,a4,2
  2015f0:	cb98                	sw	a4,16(a5)
  2015f2:	002107b7          	lui	a5,0x210
  2015f6:	e507b703          	ld	a4,-432(a5) # 20fe50 <reqPoolPtr>
  2015fa:	fdc46683          	lwu	a3,-36(s0)
  2015fe:	03400793          	li	a5,52
  201602:	02f687b3          	mul	a5,a3,a5
  201606:	97ba                	add	a5,a5,a4
  201608:	4b98                	lw	a4,16(a5)
  20160a:	9b4d                	andi	a4,a4,-13
  20160c:	00476713          	ori	a4,a4,4
  201610:	cb98                	sw	a4,16(a5)
  201612:	002107b7          	lui	a5,0x210
  201616:	e507b703          	ld	a4,-432(a5) # 20fe50 <reqPoolPtr>
  20161a:	fdc46683          	lwu	a3,-36(s0)
  20161e:	03400793          	li	a5,52
  201622:	02f687b3          	mul	a5,a3,a5
  201626:	97ba                	add	a5,a5,a4
  201628:	4b98                	lw	a4,16(a5)
  20162a:	01076713          	ori	a4,a4,16
  20162e:	cb98                	sw	a4,16(a5)
  201630:	002107b7          	lui	a5,0x210
  201634:	e507b703          	ld	a4,-432(a5) # 20fe50 <reqPoolPtr>
  201638:	fdc46683          	lwu	a3,-36(s0)
  20163c:	03400793          	li	a5,52
  201640:	02f687b3          	mul	a5,a3,a5
  201644:	97ba                	add	a5,a5,a4
  201646:	4b98                	lw	a4,16(a5)
  201648:	fdf77713          	andi	a4,a4,-33
  20164c:	cb98                	sw	a4,16(a5)
  20164e:	002107b7          	lui	a5,0x210
  201652:	e507b703          	ld	a4,-432(a5) # 20fe50 <reqPoolPtr>
  201656:	fdc46683          	lwu	a3,-36(s0)
  20165a:	03400793          	li	a5,52
  20165e:	02f687b3          	mul	a5,a3,a5
  201662:	97ba                	add	a5,a5,a4
  201664:	4b98                	lw	a4,16(a5)
  201666:	fbf77713          	andi	a4,a4,-65
  20166a:	cb98                	sw	a4,16(a5)
  20166c:	002107b7          	lui	a5,0x210
  201670:	e507b703          	ld	a4,-432(a5) # 20fe50 <reqPoolPtr>
  201674:	fdc46683          	lwu	a3,-36(s0)
  201678:	03400793          	li	a5,52
  20167c:	02f687b3          	mul	a5,a3,a5
  201680:	97ba                	add	a5,a5,a4
  201682:	4b98                	lw	a4,16(a5)
  201684:	08076713          	ori	a4,a4,128
  201688:	cb98                	sw	a4,16(a5)
  20168a:	fec46783          	lwu	a5,-20(s0)
  20168e:	078a                	slli	a5,a5,0x2
  201690:	fc043703          	ld	a4,-64(s0)
  201694:	97ba                	add	a5,a5,a4
  201696:	4398                	lw	a4,0(a5)
  201698:	fe842783          	lw	a5,-24(s0)
  20169c:	fbc42683          	lw	a3,-68(s0)
  2016a0:	02f687bb          	mulw	a5,a3,a5
  2016a4:	2781                	sext.w	a5,a5
  2016a6:	002106b7          	lui	a3,0x210
  2016aa:	e506b683          	ld	a3,-432(a3) # 20fe50 <reqPoolPtr>
  2016ae:	9fb9                	addw	a5,a5,a4
  2016b0:	0007871b          	sext.w	a4,a5
  2016b4:	fdc46603          	lwu	a2,-36(s0)
  2016b8:	03400793          	li	a5,52
  2016bc:	02f607b3          	mul	a5,a2,a5
  2016c0:	97b6                	add	a5,a5,a3
  2016c2:	cbd8                	sw	a4,20(a5)
  2016c4:	fec42783          	lw	a5,-20(s0)
  2016c8:	8bbd                	andi	a5,a5,15
  2016ca:	0ff7f793          	andi	a5,a5,255
  2016ce:	00210737          	lui	a4,0x210
  2016d2:	e5073703          	ld	a4,-432(a4) # 20fe50 <reqPoolPtr>
  2016d6:	8b9d                	andi	a5,a5,7
  2016d8:	0ff7f613          	andi	a2,a5,255
  2016dc:	fdc46683          	lwu	a3,-36(s0)
  2016e0:	03400793          	li	a5,52
  2016e4:	02f687b3          	mul	a5,a3,a5
  2016e8:	97ba                	add	a5,a5,a4
  2016ea:	8732                	mv	a4,a2
  2016ec:	00f77613          	andi	a2,a4,15
  2016f0:	53d8                	lw	a4,36(a5)
  2016f2:	9b41                	andi	a4,a4,-16
  2016f4:	86ba                	mv	a3,a4
  2016f6:	8732                	mv	a4,a2
  2016f8:	8f55                	or	a4,a4,a3
  2016fa:	d3d8                	sw	a4,36(a5)
  2016fc:	fec42783          	lw	a5,-20(s0)
  201700:	0037d79b          	srliw	a5,a5,0x3
  201704:	0007869b          	sext.w	a3,a5
  201708:	002107b7          	lui	a5,0x210
  20170c:	e507b703          	ld	a4,-432(a5) # 20fe50 <reqPoolPtr>
  201710:	87b6                	mv	a5,a3
  201712:	8bbd                	andi	a5,a5,15
  201714:	0ff7f613          	andi	a2,a5,255
  201718:	fdc46683          	lwu	a3,-36(s0)
  20171c:	03400793          	li	a5,52
  201720:	02f687b3          	mul	a5,a3,a5
  201724:	97ba                	add	a5,a5,a4
  201726:	8732                	mv	a4,a2
  201728:	8b3d                	andi	a4,a4,15
  20172a:	0047171b          	slliw	a4,a4,0x4
  20172e:	53d4                	lw	a3,36(a5)
  201730:	f0f6f693          	andi	a3,a3,-241
  201734:	8f55                	or	a4,a4,a3
  201736:	d3d8                	sw	a4,36(a5)
  201738:	002107b7          	lui	a5,0x210
  20173c:	c287b703          	ld	a4,-984(a5) # 20fc28 <bbtInfoMapPtr>
  201740:	002107b7          	lui	a5,0x210
  201744:	e507b683          	ld	a3,-432(a5) # 20fe50 <reqPoolPtr>
  201748:	fec46783          	lwu	a5,-20(s0)
  20174c:	078a                	slli	a5,a5,0x2
  20174e:	97ba                	add	a5,a5,a4
  201750:	0007d703          	lhu	a4,0(a5)
  201754:	fdc46603          	lwu	a2,-36(s0)
  201758:	03400793          	li	a5,52
  20175c:	02f607b3          	mul	a5,a2,a5
  201760:	97b6                	add	a5,a5,a3
  201762:	0087171b          	slliw	a4,a4,0x8
  201766:	53d0                	lw	a2,36(a5)
  201768:	ff0006b7          	lui	a3,0xff000
  20176c:	0ff68693          	addi	a3,a3,255 # ffffffffff0000ff <g_nvmeTask+0xfffffffffedeffb7>
  201770:	8ef1                	and	a3,a3,a2
  201772:	8f55                	or	a4,a4,a3
  201774:	d3d8                	sw	a4,36(a5)
  201776:	fe042783          	lw	a5,-32(s0)
  20177a:	2781                	sext.w	a5,a5
  20177c:	00f05f63          	blez	a5,20179a <SaveBadBlockTable+0x404>
  201780:	fe042783          	lw	a5,-32(s0)
  201784:	17c2                	slli	a5,a5,0x30
  201786:	93c1                	srli	a5,a5,0x30
  201788:	0017979b          	slliw	a5,a5,0x1
  20178c:	17c2                	slli	a5,a5,0x30
  20178e:	93c1                	srli	a5,a5,0x30
  201790:	37fd                	addiw	a5,a5,-1
  201792:	03079713          	slli	a4,a5,0x30
  201796:	9341                	srli	a4,a4,0x30
  201798:	a011                	j	20179c <SaveBadBlockTable+0x406>
  20179a:	4701                	li	a4,0
  20179c:	002107b7          	lui	a5,0x210
  2017a0:	e507b683          	ld	a3,-432(a5) # 20fe50 <reqPoolPtr>
  2017a4:	fdc46603          	lwu	a2,-36(s0)
  2017a8:	03400793          	li	a5,52
  2017ac:	02f607b3          	mul	a5,a2,a5
  2017b0:	97b6                	add	a5,a5,a3
  2017b2:	02e79423          	sh	a4,40(a5)
  2017b6:	fdc42783          	lw	a5,-36(s0)
  2017ba:	853e                	mv	a0,a5
  2017bc:	56b090ef          	jal	ra,20b526 <SelectLowLevelReqQ>
  2017c0:	fec42783          	lw	a5,-20(s0)
  2017c4:	2785                	addiw	a5,a5,1
  2017c6:	fef42623          	sw	a5,-20(s0)
  2017ca:	fec42783          	lw	a5,-20(s0)
  2017ce:	0007871b          	sext.w	a4,a5
  2017d2:	03f00793          	li	a5,63
  2017d6:	bee7f9e3          	bgeu	a5,a4,2013c8 <SaveBadBlockTable+0x32>
  2017da:	fe842783          	lw	a5,-24(s0)
  2017de:	2785                	addiw	a5,a5,1
  2017e0:	fef42423          	sw	a5,-24(s0)
  2017e4:	fe042783          	lw	a5,-32(s0)
  2017e8:	2785                	addiw	a5,a5,1
  2017ea:	fef42023          	sw	a5,-32(s0)
  2017ee:	fe442703          	lw	a4,-28(s0)
  2017f2:	77f1                	lui	a5,0xffffc
  2017f4:	9fb9                	addw	a5,a5,a4
  2017f6:	fef42223          	sw	a5,-28(s0)
  2017fa:	fe442783          	lw	a5,-28(s0)
  2017fe:	2781                	sext.w	a5,a5
  201800:	bcf041e3          	bgtz	a5,2013c2 <SaveBadBlockTable+0x2c>
  201804:	62d030ef          	jal	ra,205630 <SyncAllLowLevelReqDone>
  201808:	fe042623          	sw	zero,-20(s0)
  20180c:	a025                	j	201834 <SaveBadBlockTable+0x49e>
  20180e:	fec46783          	lwu	a5,-20(s0)
  201812:	fc843703          	ld	a4,-56(s0)
  201816:	97ba                	add	a5,a5,a4
  201818:	0007c783          	lbu	a5,0(a5) # ffffffffffffc000 <g_nvmeTask+0xffffffffffdebeb8>
  20181c:	e799                	bnez	a5,20182a <SaveBadBlockTable+0x494>
  20181e:	0020f7b7          	lui	a5,0x20f
  201822:	e8878513          	addi	a0,a5,-376 # 20ee88 <nvme_main+0x510>
  201826:	5f3020ef          	jal	ra,204618 <cpl_print>
  20182a:	fec42783          	lw	a5,-20(s0)
  20182e:	2785                	addiw	a5,a5,1
  201830:	fef42623          	sw	a5,-20(s0)
  201834:	fec42783          	lw	a5,-20(s0)
  201838:	0007871b          	sext.w	a4,a5
  20183c:	03f00793          	li	a5,63
  201840:	fce7f7e3          	bgeu	a5,a4,20180e <SaveBadBlockTable+0x478>
  201844:	0001                	nop
  201846:	0001                	nop
  201848:	60a6                	ld	ra,72(sp)
  20184a:	6406                	ld	s0,64(sp)
  20184c:	6161                	addi	sp,sp,80
  20184e:	8082                	ret

0000000000201850 <RecoverBadBlockTable>:
  201850:	d7010113          	addi	sp,sp,-656
  201854:	28113423          	sd	ra,648(sp)
  201858:	28813023          	sd	s0,640(sp)
  20185c:	0d00                	addi	s0,sp,656
  20185e:	87aa                	mv	a5,a0
  201860:	d6f42e23          	sw	a5,-644(s0)
  201864:	d7c42783          	lw	a5,-644(s0)
  201868:	fef42023          	sw	a5,-32(s0)
  20186c:	6791                	lui	a5,0x4
  20186e:	10078793          	addi	a5,a5,256 # 4100 <start-0x1fbf00>
  201872:	fcf42e23          	sw	a5,-36(s0)
  201876:	fdc42783          	lw	a5,-36(s0)
  20187a:	0067979b          	slliw	a5,a5,0x6
  20187e:	2781                	sext.w	a5,a5
  201880:	fe042703          	lw	a4,-32(s0)
  201884:	9fb9                	addw	a5,a5,a4
  201886:	fcf42c23          	sw	a5,-40(s0)
  20188a:	6791                	lui	a5,0x4
  20188c:	68078793          	addi	a5,a5,1664 # 4680 <start-0x1fb980>
  201890:	fcf42a23          	sw	a5,-44(s0)
  201894:	fe042623          	sw	zero,-20(s0)
  201898:	a8b1                	j	2018f4 <RecoverBadBlockTable+0xa4>
  20189a:	fec42703          	lw	a4,-20(s0)
  20189e:	fdc42783          	lw	a5,-36(s0)
  2018a2:	02f707bb          	mulw	a5,a4,a5
  2018a6:	2781                	sext.w	a5,a5
  2018a8:	fe042703          	lw	a4,-32(s0)
  2018ac:	9fb9                	addw	a5,a5,a4
  2018ae:	0007871b          	sext.w	a4,a5
  2018b2:	fec46783          	lwu	a5,-20(s0)
  2018b6:	078a                	slli	a5,a5,0x2
  2018b8:	ff040693          	addi	a3,s0,-16
  2018bc:	97b6                	add	a5,a5,a3
  2018be:	ece7ac23          	sw	a4,-296(a5)
  2018c2:	fec42703          	lw	a4,-20(s0)
  2018c6:	fd442783          	lw	a5,-44(s0)
  2018ca:	02f707bb          	mulw	a5,a4,a5
  2018ce:	2781                	sext.w	a5,a5
  2018d0:	fd842703          	lw	a4,-40(s0)
  2018d4:	9fb9                	addw	a5,a5,a4
  2018d6:	0007871b          	sext.w	a4,a5
  2018da:	fec46783          	lwu	a5,-20(s0)
  2018de:	078a                	slli	a5,a5,0x2
  2018e0:	ff040693          	addi	a3,s0,-16
  2018e4:	97b6                	add	a5,a5,a3
  2018e6:	dce7ac23          	sw	a4,-552(a5)
  2018ea:	fec42783          	lw	a5,-20(s0)
  2018ee:	2785                	addiw	a5,a5,1
  2018f0:	fef42623          	sw	a5,-20(s0)
  2018f4:	fec42783          	lw	a5,-20(s0)
  2018f8:	0007871b          	sext.w	a4,a5
  2018fc:	03f00793          	li	a5,63
  201900:	f8e7fde3          	bgeu	a5,a4,20189a <RecoverBadBlockTable+0x4a>
  201904:	fdc42703          	lw	a4,-36(s0)
  201908:	ec840793          	addi	a5,s0,-312
  20190c:	85ba                	mv	a1,a4
  20190e:	853e                	mv	a0,a5
  201910:	97aff0ef          	jal	ra,200a8a <ReadBadBlockTable>
  201914:	fe042223          	sw	zero,-28(s0)
  201918:	fe042623          	sw	zero,-20(s0)
  20191c:	a8dd                	j	201a12 <RecoverBadBlockTable+0x1c2>
  20191e:	fec46783          	lwu	a5,-20(s0)
  201922:	078a                	slli	a5,a5,0x2
  201924:	ff040713          	addi	a4,s0,-16
  201928:	97ba                	add	a5,a5,a4
  20192a:	ed87a783          	lw	a5,-296(a5)
  20192e:	1782                	slli	a5,a5,0x20
  201930:	9381                	srli	a5,a5,0x20
  201932:	fcf43423          	sd	a5,-56(s0)
  201936:	fc843783          	ld	a5,-56(s0)
  20193a:	0007c783          	lbu	a5,0(a5)
  20193e:	cb89                	beqz	a5,201950 <RecoverBadBlockTable+0x100>
  201940:	fc843783          	ld	a5,-56(s0)
  201944:	0007c783          	lbu	a5,0(a5)
  201948:	873e                	mv	a4,a5
  20194a:	4785                	li	a5,1
  20194c:	08f71e63          	bne	a4,a5,2019e8 <RecoverBadBlockTable+0x198>
  201950:	fec46783          	lwu	a5,-20(s0)
  201954:	ff040713          	addi	a4,s0,-16
  201958:	97ba                	add	a5,a5,a4
  20195a:	4705                	li	a4,1
  20195c:	d8e78c23          	sb	a4,-616(a5)
  201960:	fe042423          	sw	zero,-24(s0)
  201964:	a885                	j	2019d4 <RecoverBadBlockTable+0x184>
  201966:	fec46783          	lwu	a5,-20(s0)
  20196a:	078a                	slli	a5,a5,0x2
  20196c:	ff040713          	addi	a4,s0,-16
  201970:	97ba                	add	a5,a5,a4
  201972:	ed87a783          	lw	a5,-296(a5)
  201976:	fe842703          	lw	a4,-24(s0)
  20197a:	9fb9                	addw	a5,a5,a4
  20197c:	2781                	sext.w	a5,a5
  20197e:	1782                	slli	a5,a5,0x20
  201980:	9381                	srli	a5,a5,0x20
  201982:	fcf43423          	sd	a5,-56(s0)
  201986:	fc843783          	ld	a5,-56(s0)
  20198a:	0007c683          	lbu	a3,0(a5)
  20198e:	002107b7          	lui	a5,0x210
  201992:	c307b703          	ld	a4,-976(a5) # 20fc30 <phyBlockMapPtr>
  201996:	87b6                	mv	a5,a3
  201998:	8b85                	andi	a5,a5,1
  20199a:	0ff7f593          	andi	a1,a5,255
  20199e:	fe846783          	lwu	a5,-24(s0)
  2019a2:	fec46603          	lwu	a2,-20(s0)
  2019a6:	6689                	lui	a3,0x2
  2019a8:	0b068693          	addi	a3,a3,176 # 20b0 <start-0x1fdf50>
  2019ac:	02d606b3          	mul	a3,a2,a3
  2019b0:	97b6                	add	a5,a5,a3
  2019b2:	078a                	slli	a5,a5,0x2
  2019b4:	97ba                	add	a5,a5,a4
  2019b6:	872e                	mv	a4,a1
  2019b8:	8b05                	andi	a4,a4,1
  2019ba:	0107171b          	slliw	a4,a4,0x10
  2019be:	4390                	lw	a2,0(a5)
  2019c0:	76c1                	lui	a3,0xffff0
  2019c2:	16fd                	addi	a3,a3,-1
  2019c4:	8ef1                	and	a3,a3,a2
  2019c6:	8f55                	or	a4,a4,a3
  2019c8:	c398                	sw	a4,0(a5)
  2019ca:	fe842783          	lw	a5,-24(s0)
  2019ce:	2785                	addiw	a5,a5,1
  2019d0:	fef42423          	sw	a5,-24(s0)
  2019d4:	fe842783          	lw	a5,-24(s0)
  2019d8:	0007871b          	sext.w	a4,a5
  2019dc:	6789                	lui	a5,0x2
  2019de:	0af78793          	addi	a5,a5,175 # 20af <start-0x1fdf51>
  2019e2:	f8e7f2e3          	bgeu	a5,a4,201966 <RecoverBadBlockTable+0x116>
  2019e6:	a00d                	j	201a08 <RecoverBadBlockTable+0x1b8>
  2019e8:	0020f7b7          	lui	a5,0x20f
  2019ec:	eb878513          	addi	a0,a5,-328 # 20eeb8 <nvme_main+0x540>
  2019f0:	429020ef          	jal	ra,204618 <cpl_print>
  2019f4:	fec46783          	lwu	a5,-20(s0)
  2019f8:	ff040713          	addi	a4,s0,-16
  2019fc:	97ba                	add	a5,a5,a4
  2019fe:	d8078c23          	sb	zero,-616(a5)
  201a02:	4785                	li	a5,1
  201a04:	fef42223          	sw	a5,-28(s0)
  201a08:	fec42783          	lw	a5,-20(s0)
  201a0c:	2785                	addiw	a5,a5,1
  201a0e:	fef42623          	sw	a5,-20(s0)
  201a12:	fec42783          	lw	a5,-20(s0)
  201a16:	0007871b          	sext.w	a4,a5
  201a1a:	03f00793          	li	a5,63
  201a1e:	f0e7f0e3          	bgeu	a5,a4,20191e <RecoverBadBlockTable+0xce>
  201a22:	fe442783          	lw	a5,-28(s0)
  201a26:	0007871b          	sext.w	a4,a5
  201a2a:	4785                	li	a5,1
  201a2c:	02f71a63          	bne	a4,a5,201a60 <RecoverBadBlockTable+0x210>
  201a30:	fd442703          	lw	a4,-44(s0)
  201a34:	dc840693          	addi	a3,s0,-568
  201a38:	fdc42603          	lw	a2,-36(s0)
  201a3c:	ec840593          	addi	a1,s0,-312
  201a40:	d8840793          	addi	a5,s0,-632
  201a44:	853e                	mv	a0,a5
  201a46:	af6ff0ef          	jal	ra,200d3c <FindBadBlock>
  201a4a:	fdc42683          	lw	a3,-36(s0)
  201a4e:	ec840713          	addi	a4,s0,-312
  201a52:	d8840793          	addi	a5,s0,-632
  201a56:	8636                	mv	a2,a3
  201a58:	85ba                	mv	a1,a4
  201a5a:	853e                	mv	a0,a5
  201a5c:	93bff0ef          	jal	ra,201396 <SaveBadBlockTable>
  201a60:	fe042623          	sw	zero,-20(s0)
  201a64:	a01d                	j	201a8a <RecoverBadBlockTable+0x23a>
  201a66:	002107b7          	lui	a5,0x210
  201a6a:	c287b703          	ld	a4,-984(a5) # 20fc28 <bbtInfoMapPtr>
  201a6e:	fec46783          	lwu	a5,-20(s0)
  201a72:	078a                	slli	a5,a5,0x2
  201a74:	97ba                	add	a5,a5,a4
  201a76:	4394                	lw	a3,0(a5)
  201a78:	7741                	lui	a4,0xffff0
  201a7a:	177d                	addi	a4,a4,-1
  201a7c:	8f75                	and	a4,a4,a3
  201a7e:	c398                	sw	a4,0(a5)
  201a80:	fec42783          	lw	a5,-20(s0)
  201a84:	2785                	addiw	a5,a5,1
  201a86:	fef42623          	sw	a5,-20(s0)
  201a8a:	fec42783          	lw	a5,-20(s0)
  201a8e:	0007871b          	sext.w	a4,a5
  201a92:	03f00793          	li	a5,63
  201a96:	fce7f8e3          	bgeu	a5,a4,201a66 <RecoverBadBlockTable+0x216>
  201a9a:	0001                	nop
  201a9c:	0001                	nop
  201a9e:	28813083          	ld	ra,648(sp)
  201aa2:	28013403          	ld	s0,640(sp)
  201aa6:	29010113          	addi	sp,sp,656
  201aaa:	8082                	ret

0000000000201aac <EraseTotalBlockSpace>:
  201aac:	1101                	addi	sp,sp,-32
  201aae:	ec06                	sd	ra,24(sp)
  201ab0:	e822                	sd	s0,16(sp)
  201ab2:	1000                	addi	s0,sp,32
  201ab4:	0020f7b7          	lui	a5,0x20f
  201ab8:	ef078513          	addi	a0,a5,-272 # 20eef0 <nvme_main+0x578>
  201abc:	35d020ef          	jal	ra,204618 <cpl_print>
  201ac0:	fe042623          	sw	zero,-20(s0)
  201ac4:	aa65                	j	201c7c <EraseTotalBlockSpace+0x1d0>
  201ac6:	fe042423          	sw	zero,-24(s0)
  201aca:	aa61                	j	201c62 <EraseTotalBlockSpace+0x1b6>
  201acc:	0f5010ef          	jal	ra,2033c0 <GetFromFreeReqQ>
  201ad0:	87aa                	mv	a5,a0
  201ad2:	fef42223          	sw	a5,-28(s0)
  201ad6:	002107b7          	lui	a5,0x210
  201ada:	e507b703          	ld	a4,-432(a5) # 20fe50 <reqPoolPtr>
  201ade:	fe446683          	lwu	a3,-28(s0)
  201ae2:	03400793          	li	a5,52
  201ae6:	02f687b3          	mul	a5,a3,a5
  201aea:	97ba                	add	a5,a5,a4
  201aec:	4398                	lw	a4,0(a5)
  201aee:	9b41                	andi	a4,a4,-16
  201af0:	00176713          	ori	a4,a4,1
  201af4:	c398                	sw	a4,0(a5)
  201af6:	002107b7          	lui	a5,0x210
  201afa:	e507b703          	ld	a4,-432(a5) # 20fe50 <reqPoolPtr>
  201afe:	fe446683          	lwu	a3,-28(s0)
  201b02:	03400793          	li	a5,52
  201b06:	02f687b3          	mul	a5,a3,a5
  201b0a:	97ba                	add	a5,a5,a4
  201b0c:	4731                	li	a4,12
  201b0e:	00e780a3          	sb	a4,1(a5)
  201b12:	002107b7          	lui	a5,0x210
  201b16:	e507b703          	ld	a4,-432(a5) # 20fe50 <reqPoolPtr>
  201b1a:	fe446683          	lwu	a3,-28(s0)
  201b1e:	03400793          	li	a5,52
  201b22:	02f687b3          	mul	a5,a3,a5
  201b26:	97ba                	add	a5,a5,a4
  201b28:	4b98                	lw	a4,16(a5)
  201b2a:	9b4d                	andi	a4,a4,-13
  201b2c:	00476713          	ori	a4,a4,4
  201b30:	cb98                	sw	a4,16(a5)
  201b32:	002107b7          	lui	a5,0x210
  201b36:	e507b703          	ld	a4,-432(a5) # 20fe50 <reqPoolPtr>
  201b3a:	fe446683          	lwu	a3,-28(s0)
  201b3e:	03400793          	li	a5,52
  201b42:	02f687b3          	mul	a5,a3,a5
  201b46:	97ba                	add	a5,a5,a4
  201b48:	4b98                	lw	a4,16(a5)
  201b4a:	00376713          	ori	a4,a4,3
  201b4e:	cb98                	sw	a4,16(a5)
  201b50:	002107b7          	lui	a5,0x210
  201b54:	e507b703          	ld	a4,-432(a5) # 20fe50 <reqPoolPtr>
  201b58:	fe446683          	lwu	a3,-28(s0)
  201b5c:	03400793          	li	a5,52
  201b60:	02f687b3          	mul	a5,a3,a5
  201b64:	97ba                	add	a5,a5,a4
  201b66:	4b98                	lw	a4,16(a5)
  201b68:	fbf77713          	andi	a4,a4,-65
  201b6c:	cb98                	sw	a4,16(a5)
  201b6e:	002107b7          	lui	a5,0x210
  201b72:	e507b703          	ld	a4,-432(a5) # 20fe50 <reqPoolPtr>
  201b76:	fe446683          	lwu	a3,-28(s0)
  201b7a:	03400793          	li	a5,52
  201b7e:	02f687b3          	mul	a5,a3,a5
  201b82:	97ba                	add	a5,a5,a4
  201b84:	4b98                	lw	a4,16(a5)
  201b86:	08076713          	ori	a4,a4,128
  201b8a:	cb98                	sw	a4,16(a5)
  201b8c:	fe842783          	lw	a5,-24(s0)
  201b90:	8bbd                	andi	a5,a5,15
  201b92:	0ff7f793          	andi	a5,a5,255
  201b96:	00210737          	lui	a4,0x210
  201b9a:	e5073703          	ld	a4,-432(a4) # 20fe50 <reqPoolPtr>
  201b9e:	8b9d                	andi	a5,a5,7
  201ba0:	0ff7f613          	andi	a2,a5,255
  201ba4:	fe446683          	lwu	a3,-28(s0)
  201ba8:	03400793          	li	a5,52
  201bac:	02f687b3          	mul	a5,a3,a5
  201bb0:	97ba                	add	a5,a5,a4
  201bb2:	8732                	mv	a4,a2
  201bb4:	00f77613          	andi	a2,a4,15
  201bb8:	53d8                	lw	a4,36(a5)
  201bba:	9b41                	andi	a4,a4,-16
  201bbc:	86ba                	mv	a3,a4
  201bbe:	8732                	mv	a4,a2
  201bc0:	8f55                	or	a4,a4,a3
  201bc2:	d3d8                	sw	a4,36(a5)
  201bc4:	fe842783          	lw	a5,-24(s0)
  201bc8:	0037d79b          	srliw	a5,a5,0x3
  201bcc:	0007869b          	sext.w	a3,a5
  201bd0:	002107b7          	lui	a5,0x210
  201bd4:	e507b703          	ld	a4,-432(a5) # 20fe50 <reqPoolPtr>
  201bd8:	87b6                	mv	a5,a3
  201bda:	8bbd                	andi	a5,a5,15
  201bdc:	0ff7f613          	andi	a2,a5,255
  201be0:	fe446683          	lwu	a3,-28(s0)
  201be4:	03400793          	li	a5,52
  201be8:	02f687b3          	mul	a5,a3,a5
  201bec:	97ba                	add	a5,a5,a4
  201bee:	8732                	mv	a4,a2
  201bf0:	8b3d                	andi	a4,a4,15
  201bf2:	0047171b          	slliw	a4,a4,0x4
  201bf6:	53d4                	lw	a3,36(a5)
  201bf8:	f0f6f693          	andi	a3,a3,-241
  201bfc:	8f55                	or	a4,a4,a3
  201bfe:	d3d8                	sw	a4,36(a5)
  201c00:	002107b7          	lui	a5,0x210
  201c04:	e507b683          	ld	a3,-432(a5) # 20fe50 <reqPoolPtr>
  201c08:	fec42783          	lw	a5,-20(s0)
  201c0c:	03079713          	slli	a4,a5,0x30
  201c10:	9341                	srli	a4,a4,0x30
  201c12:	fe446603          	lwu	a2,-28(s0)
  201c16:	03400793          	li	a5,52
  201c1a:	02f607b3          	mul	a5,a2,a5
  201c1e:	97b6                	add	a5,a5,a3
  201c20:	0087171b          	slliw	a4,a4,0x8
  201c24:	53d0                	lw	a2,36(a5)
  201c26:	ff0006b7          	lui	a3,0xff000
  201c2a:	0ff68693          	addi	a3,a3,255 # ffffffffff0000ff <g_nvmeTask+0xfffffffffedeffb7>
  201c2e:	8ef1                	and	a3,a3,a2
  201c30:	8f55                	or	a4,a4,a3
  201c32:	d3d8                	sw	a4,36(a5)
  201c34:	002107b7          	lui	a5,0x210
  201c38:	e507b703          	ld	a4,-432(a5) # 20fe50 <reqPoolPtr>
  201c3c:	fe446683          	lwu	a3,-28(s0)
  201c40:	03400793          	li	a5,52
  201c44:	02f687b3          	mul	a5,a3,a5
  201c48:	97ba                	add	a5,a5,a4
  201c4a:	02079423          	sh	zero,40(a5)
  201c4e:	fe442783          	lw	a5,-28(s0)
  201c52:	853e                	mv	a0,a5
  201c54:	0d3090ef          	jal	ra,20b526 <SelectLowLevelReqQ>
  201c58:	fe842783          	lw	a5,-24(s0)
  201c5c:	2785                	addiw	a5,a5,1
  201c5e:	fef42423          	sw	a5,-24(s0)
  201c62:	fe842783          	lw	a5,-24(s0)
  201c66:	0007871b          	sext.w	a4,a5
  201c6a:	03f00793          	li	a5,63
  201c6e:	e4e7ffe3          	bgeu	a5,a4,201acc <EraseTotalBlockSpace+0x20>
  201c72:	fec42783          	lw	a5,-20(s0)
  201c76:	2785                	addiw	a5,a5,1
  201c78:	fef42623          	sw	a5,-20(s0)
  201c7c:	fec42783          	lw	a5,-20(s0)
  201c80:	0007871b          	sext.w	a4,a5
  201c84:	6789                	lui	a5,0x2
  201c86:	0af78793          	addi	a5,a5,175 # 20af <start-0x1fdf51>
  201c8a:	e2e7fee3          	bgeu	a5,a4,201ac6 <EraseTotalBlockSpace+0x1a>
  201c8e:	1a3030ef          	jal	ra,205630 <SyncAllLowLevelReqDone>
  201c92:	0020f7b7          	lui	a5,0x20f
  201c96:	f2878513          	addi	a0,a5,-216 # 20ef28 <nvme_main+0x5b0>
  201c9a:	17f020ef          	jal	ra,204618 <cpl_print>
  201c9e:	0001                	nop
  201ca0:	60e2                	ld	ra,24(sp)
  201ca2:	6442                	ld	s0,16(sp)
  201ca4:	6105                	addi	sp,sp,32
  201ca6:	8082                	ret

0000000000201ca8 <EraseUserBlockSpace>:
  201ca8:	1101                	addi	sp,sp,-32
  201caa:	ec06                	sd	ra,24(sp)
  201cac:	e822                	sd	s0,16(sp)
  201cae:	1000                	addi	s0,sp,32
  201cb0:	0020f7b7          	lui	a5,0x20f
  201cb4:	f3078513          	addi	a0,a5,-208 # 20ef30 <nvme_main+0x5b8>
  201cb8:	161020ef          	jal	ra,204618 <cpl_print>
  201cbc:	fe042623          	sw	zero,-20(s0)
  201cc0:	aa81                	j	201e10 <EraseUserBlockSpace+0x168>
  201cc2:	fe042423          	sw	zero,-24(s0)
  201cc6:	aa05                	j	201df6 <EraseUserBlockSpace+0x14e>
  201cc8:	002107b7          	lui	a5,0x210
  201ccc:	c107b603          	ld	a2,-1008(a5) # 20fc10 <virtualBlockMapPtr>
  201cd0:	fec46783          	lwu	a5,-20(s0)
  201cd4:	fe846683          	lwu	a3,-24(s0)
  201cd8:	873e                	mv	a4,a5
  201cda:	0706                	slli	a4,a4,0x1
  201cdc:	973e                	add	a4,a4,a5
  201cde:	00271793          	slli	a5,a4,0x2
  201ce2:	873e                	mv	a4,a5
  201ce4:	87b6                	mv	a5,a3
  201ce6:	0786                	slli	a5,a5,0x1
  201ce8:	97b6                	add	a5,a5,a3
  201cea:	07be                	slli	a5,a5,0xf
  201cec:	97ba                	add	a5,a5,a4
  201cee:	97b2                	add	a5,a5,a2
  201cf0:	439c                	lw	a5,0(a5)
  201cf2:	8b85                	andi	a5,a5,1
  201cf4:	0ff7f793          	andi	a5,a5,255
  201cf8:	ebf5                	bnez	a5,201dec <EraseUserBlockSpace+0x144>
  201cfa:	6c6010ef          	jal	ra,2033c0 <GetFromFreeReqQ>
  201cfe:	87aa                	mv	a5,a0
  201d00:	fef42223          	sw	a5,-28(s0)
  201d04:	002107b7          	lui	a5,0x210
  201d08:	e507b703          	ld	a4,-432(a5) # 20fe50 <reqPoolPtr>
  201d0c:	fe446683          	lwu	a3,-28(s0)
  201d10:	03400793          	li	a5,52
  201d14:	02f687b3          	mul	a5,a3,a5
  201d18:	97ba                	add	a5,a5,a4
  201d1a:	4398                	lw	a4,0(a5)
  201d1c:	9b41                	andi	a4,a4,-16
  201d1e:	00176713          	ori	a4,a4,1
  201d22:	c398                	sw	a4,0(a5)
  201d24:	002107b7          	lui	a5,0x210
  201d28:	e507b703          	ld	a4,-432(a5) # 20fe50 <reqPoolPtr>
  201d2c:	fe446683          	lwu	a3,-28(s0)
  201d30:	03400793          	li	a5,52
  201d34:	02f687b3          	mul	a5,a3,a5
  201d38:	97ba                	add	a5,a5,a4
  201d3a:	4731                	li	a4,12
  201d3c:	00e780a3          	sb	a4,1(a5)
  201d40:	002107b7          	lui	a5,0x210
  201d44:	e507b703          	ld	a4,-432(a5) # 20fe50 <reqPoolPtr>
  201d48:	fe446683          	lwu	a3,-28(s0)
  201d4c:	03400793          	li	a5,52
  201d50:	02f687b3          	mul	a5,a3,a5
  201d54:	97ba                	add	a5,a5,a4
  201d56:	4b98                	lw	a4,16(a5)
  201d58:	9b4d                	andi	a4,a4,-13
  201d5a:	cb98                	sw	a4,16(a5)
  201d5c:	002107b7          	lui	a5,0x210
  201d60:	e507b703          	ld	a4,-432(a5) # 20fe50 <reqPoolPtr>
  201d64:	fe446683          	lwu	a3,-28(s0)
  201d68:	03400793          	li	a5,52
  201d6c:	02f687b3          	mul	a5,a3,a5
  201d70:	97ba                	add	a5,a5,a4
  201d72:	4b98                	lw	a4,16(a5)
  201d74:	00376713          	ori	a4,a4,3
  201d78:	cb98                	sw	a4,16(a5)
  201d7a:	002107b7          	lui	a5,0x210
  201d7e:	e507b703          	ld	a4,-432(a5) # 20fe50 <reqPoolPtr>
  201d82:	fe446683          	lwu	a3,-28(s0)
  201d86:	03400793          	li	a5,52
  201d8a:	02f687b3          	mul	a5,a3,a5
  201d8e:	97ba                	add	a5,a5,a4
  201d90:	4b98                	lw	a4,16(a5)
  201d92:	fbf77713          	andi	a4,a4,-65
  201d96:	cb98                	sw	a4,16(a5)
  201d98:	002107b7          	lui	a5,0x210
  201d9c:	e507b703          	ld	a4,-432(a5) # 20fe50 <reqPoolPtr>
  201da0:	fe446683          	lwu	a3,-28(s0)
  201da4:	03400793          	li	a5,52
  201da8:	02f687b3          	mul	a5,a3,a5
  201dac:	97ba                	add	a5,a5,a4
  201dae:	4b98                	lw	a4,16(a5)
  201db0:	f7f77713          	andi	a4,a4,-129
  201db4:	cb98                	sw	a4,16(a5)
  201db6:	fec42783          	lw	a5,-20(s0)
  201dba:	00d7979b          	slliw	a5,a5,0xd
  201dbe:	2781                	sext.w	a5,a5
  201dc0:	00210737          	lui	a4,0x210
  201dc4:	e5073683          	ld	a3,-432(a4) # 20fe50 <reqPoolPtr>
  201dc8:	fe842703          	lw	a4,-24(s0)
  201dcc:	9fb9                	addw	a5,a5,a4
  201dce:	0007871b          	sext.w	a4,a5
  201dd2:	fe446603          	lwu	a2,-28(s0)
  201dd6:	03400793          	li	a5,52
  201dda:	02f607b3          	mul	a5,a2,a5
  201dde:	97b6                	add	a5,a5,a3
  201de0:	d3d8                	sw	a4,36(a5)
  201de2:	fe442783          	lw	a5,-28(s0)
  201de6:	853e                	mv	a0,a5
  201de8:	73e090ef          	jal	ra,20b526 <SelectLowLevelReqQ>
  201dec:	fe842783          	lw	a5,-24(s0)
  201df0:	2785                	addiw	a5,a5,1
  201df2:	fef42423          	sw	a5,-24(s0)
  201df6:	fe842783          	lw	a5,-24(s0)
  201dfa:	0007871b          	sext.w	a4,a5
  201dfe:	03f00793          	li	a5,63
  201e02:	ece7f3e3          	bgeu	a5,a4,201cc8 <EraseUserBlockSpace+0x20>
  201e06:	fec42783          	lw	a5,-20(s0)
  201e0a:	2785                	addiw	a5,a5,1
  201e0c:	fef42623          	sw	a5,-20(s0)
  201e10:	fec42783          	lw	a5,-20(s0)
  201e14:	0007871b          	sext.w	a4,a5
  201e18:	6789                	lui	a5,0x2
  201e1a:	eaf764e3          	bltu	a4,a5,201cc2 <EraseUserBlockSpace+0x1a>
  201e1e:	013030ef          	jal	ra,205630 <SyncAllLowLevelReqDone>
  201e22:	0020f7b7          	lui	a5,0x20f
  201e26:	f2878513          	addi	a0,a5,-216 # 20ef28 <nvme_main+0x5b0>
  201e2a:	7ee020ef          	jal	ra,204618 <cpl_print>
  201e2e:	0001                	nop
  201e30:	60e2                	ld	ra,24(sp)
  201e32:	6442                	ld	s0,16(sp)
  201e34:	6105                	addi	sp,sp,32
  201e36:	8082                	ret

0000000000201e38 <InitBlockDieMap>:
  201e38:	1101                	addi	sp,sp,-32
  201e3a:	ec06                	sd	ra,24(sp)
  201e3c:	e822                	sd	s0,16(sp)
  201e3e:	1000                	addi	s0,sp,32
  201e40:	4785                	li	a5,1
  201e42:	fef405a3          	sb	a5,-21(s0)
  201e46:	0020f7b7          	lui	a5,0x20f
  201e4a:	f6078513          	addi	a0,a5,-160 # 20ef60 <nvme_main+0x5e8>
  201e4e:	7ca020ef          	jal	ra,204618 <cpl_print>
  201e52:	8b5fe0ef          	jal	ra,200706 <InitDieMap>
  201e56:	11144537          	lui	a0,0x11144
  201e5a:	9f7ff0ef          	jal	ra,201850 <RecoverBadBlockTable>
  201e5e:	fe042623          	sw	zero,-20(s0)
  201e62:	a099                	j	201ea8 <InitBlockDieMap+0x70>
  201e64:	002107b7          	lui	a5,0x210
  201e68:	c307b703          	ld	a4,-976(a5) # 20fc30 <phyBlockMapPtr>
  201e6c:	002107b7          	lui	a5,0x210
  201e70:	c287b683          	ld	a3,-984(a5) # 20fc28 <bbtInfoMapPtr>
  201e74:	fec46783          	lwu	a5,-20(s0)
  201e78:	078a                	slli	a5,a5,0x2
  201e7a:	97b6                	add	a5,a5,a3
  201e7c:	0007d783          	lhu	a5,0(a5)
  201e80:	2781                	sext.w	a5,a5
  201e82:	fec46603          	lwu	a2,-20(s0)
  201e86:	6689                	lui	a3,0x2
  201e88:	0b068693          	addi	a3,a3,176 # 20b0 <start-0x1fdf50>
  201e8c:	02d606b3          	mul	a3,a2,a3
  201e90:	97b6                	add	a5,a5,a3
  201e92:	078a                	slli	a5,a5,0x2
  201e94:	97ba                	add	a5,a5,a4
  201e96:	4394                	lw	a3,0(a5)
  201e98:	6741                	lui	a4,0x10
  201e9a:	8f55                	or	a4,a4,a3
  201e9c:	c398                	sw	a4,0(a5)
  201e9e:	fec42783          	lw	a5,-20(s0)
  201ea2:	2785                	addiw	a5,a5,1
  201ea4:	fef42623          	sw	a5,-20(s0)
  201ea8:	fec42783          	lw	a5,-20(s0)
  201eac:	0007871b          	sext.w	a4,a5
  201eb0:	03f00793          	li	a5,63
  201eb4:	fae7f8e3          	bgeu	a5,a4,201e64 <InitBlockDieMap+0x2c>
  201eb8:	bdafe0ef          	jal	ra,200292 <RemapBadBlock>
  201ebc:	8cdfe0ef          	jal	ra,200788 <InitBlockMap>
  201ec0:	feb44783          	lbu	a5,-21(s0)
  201ec4:	0ff7f793          	andi	a5,a5,255
  201ec8:	c399                	beqz	a5,201ece <InitBlockDieMap+0x96>
  201eca:	ddfff0ef          	jal	ra,201ca8 <EraseUserBlockSpace>
  201ece:	b23fe0ef          	jal	ra,2009f0 <InitCurrentBlockOfDieMap>
  201ed2:	0001                	nop
  201ed4:	60e2                	ld	ra,24(sp)
  201ed6:	6442                	ld	s0,16(sp)
  201ed8:	6105                	addi	sp,sp,32
  201eda:	8082                	ret

0000000000201edc <AddrTransRead>:
  201edc:	7179                	addi	sp,sp,-48
  201ede:	f406                	sd	ra,40(sp)
  201ee0:	f022                	sd	s0,32(sp)
  201ee2:	1800                	addi	s0,sp,48
  201ee4:	87aa                	mv	a5,a0
  201ee6:	fcf42e23          	sw	a5,-36(s0)
  201eea:	fdc42783          	lw	a5,-36(s0)
  201eee:	0007871b          	sext.w	a4,a5
  201ef2:	040007b7          	lui	a5,0x4000
  201ef6:	02f77963          	bgeu	a4,a5,201f28 <AddrTransRead+0x4c>
  201efa:	002107b7          	lui	a5,0x210
  201efe:	c007b703          	ld	a4,-1024(a5) # 20fc00 <logicalSliceMapPtr>
  201f02:	fdc46783          	lwu	a5,-36(s0)
  201f06:	078a                	slli	a5,a5,0x2
  201f08:	97ba                	add	a5,a5,a4
  201f0a:	439c                	lw	a5,0(a5)
  201f0c:	fef42623          	sw	a5,-20(s0)
  201f10:	fec42783          	lw	a5,-20(s0)
  201f14:	0007871b          	sext.w	a4,a5
  201f18:	57fd                	li	a5,-1
  201f1a:	00f70563          	beq	a4,a5,201f24 <AddrTransRead+0x48>
  201f1e:	fec42783          	lw	a5,-20(s0)
  201f22:	a809                	j	201f34 <AddrTransRead+0x58>
  201f24:	57fd                	li	a5,-1
  201f26:	a039                	j	201f34 <AddrTransRead+0x58>
  201f28:	0020f7b7          	lui	a5,0x20f
  201f2c:	f9078513          	addi	a0,a5,-112 # 20ef90 <nvme_main+0x618>
  201f30:	6e8020ef          	jal	ra,204618 <cpl_print>
  201f34:	853e                	mv	a0,a5
  201f36:	70a2                	ld	ra,40(sp)
  201f38:	7402                	ld	s0,32(sp)
  201f3a:	6145                	addi	sp,sp,48
  201f3c:	8082                	ret

0000000000201f3e <AddrTransWrite>:
  201f3e:	7179                	addi	sp,sp,-48
  201f40:	f406                	sd	ra,40(sp)
  201f42:	f022                	sd	s0,32(sp)
  201f44:	1800                	addi	s0,sp,48
  201f46:	87aa                	mv	a5,a0
  201f48:	fcf42e23          	sw	a5,-36(s0)
  201f4c:	fdc42783          	lw	a5,-36(s0)
  201f50:	0007871b          	sext.w	a4,a5
  201f54:	040007b7          	lui	a5,0x4000
  201f58:	04f77563          	bgeu	a4,a5,201fa2 <AddrTransWrite+0x64>
  201f5c:	fdc42783          	lw	a5,-36(s0)
  201f60:	853e                	mv	a0,a5
  201f62:	614000ef          	jal	ra,202576 <InvalidateOldVsa>
  201f66:	052000ef          	jal	ra,201fb8 <FindFreeVirtualSlice>
  201f6a:	87aa                	mv	a5,a0
  201f6c:	fef42623          	sw	a5,-20(s0)
  201f70:	002107b7          	lui	a5,0x210
  201f74:	c007b703          	ld	a4,-1024(a5) # 20fc00 <logicalSliceMapPtr>
  201f78:	fdc46783          	lwu	a5,-36(s0)
  201f7c:	078a                	slli	a5,a5,0x2
  201f7e:	97ba                	add	a5,a5,a4
  201f80:	fec42703          	lw	a4,-20(s0)
  201f84:	c398                	sw	a4,0(a5)
  201f86:	002107b7          	lui	a5,0x210
  201f8a:	c187b703          	ld	a4,-1000(a5) # 20fc18 <virtualSliceMapPtr>
  201f8e:	fec46783          	lwu	a5,-20(s0)
  201f92:	078a                	slli	a5,a5,0x2
  201f94:	97ba                	add	a5,a5,a4
  201f96:	fdc42703          	lw	a4,-36(s0)
  201f9a:	c398                	sw	a4,0(a5)
  201f9c:	fec42783          	lw	a5,-20(s0)
  201fa0:	a039                	j	201fae <AddrTransWrite+0x70>
  201fa2:	0020f7b7          	lui	a5,0x20f
  201fa6:	ff078513          	addi	a0,a5,-16 # 20eff0 <nvme_main+0x678>
  201faa:	66e020ef          	jal	ra,204618 <cpl_print>
  201fae:	853e                	mv	a0,a5
  201fb0:	70a2                	ld	ra,40(sp)
  201fb2:	7402                	ld	s0,32(sp)
  201fb4:	6145                	addi	sp,sp,48
  201fb6:	8082                	ret

0000000000201fb8 <FindFreeVirtualSlice>:
  201fb8:	1101                	addi	sp,sp,-32
  201fba:	ec06                	sd	ra,24(sp)
  201fbc:	e822                	sd	s0,16(sp)
  201fbe:	1000                	addi	s0,sp,32
  201fc0:	002107b7          	lui	a5,0x210
  201fc4:	bf07c783          	lbu	a5,-1040(a5) # 20fbf0 <__bss_end>
  201fc8:	fef42423          	sw	a5,-24(s0)
  201fcc:	002107b7          	lui	a5,0x210
  201fd0:	c087b683          	ld	a3,-1016(a5) # 20fc08 <virtualDieMapPtr>
  201fd4:	fe846703          	lwu	a4,-24(s0)
  201fd8:	87ba                	mv	a5,a4
  201fda:	0786                	slli	a5,a5,0x1
  201fdc:	97ba                	add	a5,a5,a4
  201fde:	078a                	slli	a5,a5,0x2
  201fe0:	97b6                	add	a5,a5,a3
  201fe2:	0007d783          	lhu	a5,0(a5)
  201fe6:	fef42623          	sw	a5,-20(s0)
  201fea:	002107b7          	lui	a5,0x210
  201fee:	c107b603          	ld	a2,-1008(a5) # 20fc10 <virtualBlockMapPtr>
  201ff2:	fec46783          	lwu	a5,-20(s0)
  201ff6:	fe846683          	lwu	a3,-24(s0)
  201ffa:	873e                	mv	a4,a5
  201ffc:	0706                	slli	a4,a4,0x1
  201ffe:	973e                	add	a4,a4,a5
  202000:	00271793          	slli	a5,a4,0x2
  202004:	873e                	mv	a4,a5
  202006:	87b6                	mv	a5,a3
  202008:	0786                	slli	a5,a5,0x1
  20200a:	97b6                	add	a5,a5,a3
  20200c:	07be                	slli	a5,a5,0xf
  20200e:	97ba                	add	a5,a5,a4
  202010:	97b2                	add	a5,a5,a2
  202012:	0047d783          	lhu	a5,4(a5)
  202016:	0007871b          	sext.w	a4,a5
  20201a:	08000793          	li	a5,128
  20201e:	14f71463          	bne	a4,a5,202166 <FindFreeVirtualSlice+0x1ae>
  202022:	fe842783          	lw	a5,-24(s0)
  202026:	4581                	li	a1,0
  202028:	853e                	mv	a0,a5
  20202a:	345000ef          	jal	ra,202b6e <GetFromFbList>
  20202e:	87aa                	mv	a5,a0
  202030:	fef42623          	sw	a5,-20(s0)
  202034:	fec42783          	lw	a5,-20(s0)
  202038:	0007871b          	sext.w	a4,a5
  20203c:	67c1                	lui	a5,0x10
  20203e:	17fd                	addi	a5,a5,-1
  202040:	02f70563          	beq	a4,a5,20206a <FindFreeVirtualSlice+0xb2>
  202044:	002107b7          	lui	a5,0x210
  202048:	c087b603          	ld	a2,-1016(a5) # 20fc08 <virtualDieMapPtr>
  20204c:	fec42783          	lw	a5,-20(s0)
  202050:	03079693          	slli	a3,a5,0x30
  202054:	92c1                	srli	a3,a3,0x30
  202056:	fe846703          	lwu	a4,-24(s0)
  20205a:	87ba                	mv	a5,a4
  20205c:	0786                	slli	a5,a5,0x1
  20205e:	97ba                	add	a5,a5,a4
  202060:	078a                	slli	a5,a5,0x2
  202062:	97b2                	add	a5,a5,a2
  202064:	00d79023          	sh	a3,0(a5)
  202068:	a289                	j	2021aa <FindFreeVirtualSlice+0x1f2>
  20206a:	fe842783          	lw	a5,-24(s0)
  20206e:	853e                	mv	a0,a5
  202070:	1420a0ef          	jal	ra,20c1b2 <GarbageCollection>
  202074:	002107b7          	lui	a5,0x210
  202078:	c087b683          	ld	a3,-1016(a5) # 20fc08 <virtualDieMapPtr>
  20207c:	fe846703          	lwu	a4,-24(s0)
  202080:	87ba                	mv	a5,a4
  202082:	0786                	slli	a5,a5,0x1
  202084:	97ba                	add	a5,a5,a4
  202086:	078a                	slli	a5,a5,0x2
  202088:	97b6                	add	a5,a5,a3
  20208a:	0007d783          	lhu	a5,0(a5)
  20208e:	fef42623          	sw	a5,-20(s0)
  202092:	002107b7          	lui	a5,0x210
  202096:	c107b603          	ld	a2,-1008(a5) # 20fc10 <virtualBlockMapPtr>
  20209a:	fec46783          	lwu	a5,-20(s0)
  20209e:	fe846683          	lwu	a3,-24(s0)
  2020a2:	873e                	mv	a4,a5
  2020a4:	0706                	slli	a4,a4,0x1
  2020a6:	973e                	add	a4,a4,a5
  2020a8:	00271793          	slli	a5,a4,0x2
  2020ac:	873e                	mv	a4,a5
  2020ae:	87b6                	mv	a5,a3
  2020b0:	0786                	slli	a5,a5,0x1
  2020b2:	97b6                	add	a5,a5,a3
  2020b4:	07be                	slli	a5,a5,0xf
  2020b6:	97ba                	add	a5,a5,a4
  2020b8:	97b2                	add	a5,a5,a2
  2020ba:	0047d783          	lhu	a5,4(a5)
  2020be:	0007871b          	sext.w	a4,a5
  2020c2:	08000793          	li	a5,128
  2020c6:	04f71d63          	bne	a4,a5,202120 <FindFreeVirtualSlice+0x168>
  2020ca:	fe842783          	lw	a5,-24(s0)
  2020ce:	4581                	li	a1,0
  2020d0:	853e                	mv	a0,a5
  2020d2:	29d000ef          	jal	ra,202b6e <GetFromFbList>
  2020d6:	87aa                	mv	a5,a0
  2020d8:	fef42623          	sw	a5,-20(s0)
  2020dc:	fec42783          	lw	a5,-20(s0)
  2020e0:	0007871b          	sext.w	a4,a5
  2020e4:	67c1                	lui	a5,0x10
  2020e6:	17fd                	addi	a5,a5,-1
  2020e8:	02f70563          	beq	a4,a5,202112 <FindFreeVirtualSlice+0x15a>
  2020ec:	002107b7          	lui	a5,0x210
  2020f0:	c087b603          	ld	a2,-1016(a5) # 20fc08 <virtualDieMapPtr>
  2020f4:	fec42783          	lw	a5,-20(s0)
  2020f8:	03079693          	slli	a3,a5,0x30
  2020fc:	92c1                	srli	a3,a3,0x30
  2020fe:	fe846703          	lwu	a4,-24(s0)
  202102:	87ba                	mv	a5,a4
  202104:	0786                	slli	a5,a5,0x1
  202106:	97ba                	add	a5,a5,a4
  202108:	078a                	slli	a5,a5,0x2
  20210a:	97b2                	add	a5,a5,a2
  20210c:	00d79023          	sh	a3,0(a5)
  202110:	a869                	j	2021aa <FindFreeVirtualSlice+0x1f2>
  202112:	0020f7b7          	lui	a5,0x20f
  202116:	05078513          	addi	a0,a5,80 # 20f050 <nvme_main+0x6d8>
  20211a:	4fe020ef          	jal	ra,204618 <cpl_print>
  20211e:	a071                	j	2021aa <FindFreeVirtualSlice+0x1f2>
  202120:	002107b7          	lui	a5,0x210
  202124:	c107b603          	ld	a2,-1008(a5) # 20fc10 <virtualBlockMapPtr>
  202128:	fec46783          	lwu	a5,-20(s0)
  20212c:	fe846683          	lwu	a3,-24(s0)
  202130:	873e                	mv	a4,a5
  202132:	0706                	slli	a4,a4,0x1
  202134:	973e                	add	a4,a4,a5
  202136:	00271793          	slli	a5,a4,0x2
  20213a:	873e                	mv	a4,a5
  20213c:	87b6                	mv	a5,a3
  20213e:	0786                	slli	a5,a5,0x1
  202140:	97b6                	add	a5,a5,a3
  202142:	07be                	slli	a5,a5,0xf
  202144:	97ba                	add	a5,a5,a4
  202146:	97b2                	add	a5,a5,a2
  202148:	0047d783          	lhu	a5,4(a5)
  20214c:	0007871b          	sext.w	a4,a5
  202150:	08000793          	li	a5,128
  202154:	04e7fb63          	bgeu	a5,a4,2021aa <FindFreeVirtualSlice+0x1f2>
  202158:	0020f7b7          	lui	a5,0x20f
  20215c:	08878513          	addi	a0,a5,136 # 20f088 <nvme_main+0x710>
  202160:	4b8020ef          	jal	ra,204618 <cpl_print>
  202164:	a099                	j	2021aa <FindFreeVirtualSlice+0x1f2>
  202166:	002107b7          	lui	a5,0x210
  20216a:	c107b603          	ld	a2,-1008(a5) # 20fc10 <virtualBlockMapPtr>
  20216e:	fec46783          	lwu	a5,-20(s0)
  202172:	fe846683          	lwu	a3,-24(s0)
  202176:	873e                	mv	a4,a5
  202178:	0706                	slli	a4,a4,0x1
  20217a:	973e                	add	a4,a4,a5
  20217c:	00271793          	slli	a5,a4,0x2
  202180:	873e                	mv	a4,a5
  202182:	87b6                	mv	a5,a3
  202184:	0786                	slli	a5,a5,0x1
  202186:	97b6                	add	a5,a5,a3
  202188:	07be                	slli	a5,a5,0xf
  20218a:	97ba                	add	a5,a5,a4
  20218c:	97b2                	add	a5,a5,a2
  20218e:	0047d783          	lhu	a5,4(a5)
  202192:	0007871b          	sext.w	a4,a5
  202196:	08000793          	li	a5,128
  20219a:	00e7f863          	bgeu	a5,a4,2021aa <FindFreeVirtualSlice+0x1f2>
  20219e:	0020f7b7          	lui	a5,0x20f
  2021a2:	08878513          	addi	a0,a5,136 # 20f088 <nvme_main+0x710>
  2021a6:	472020ef          	jal	ra,204618 <cpl_print>
  2021aa:	fec42783          	lw	a5,-20(s0)
  2021ae:	0077979b          	slliw	a5,a5,0x7
  2021b2:	0007861b          	sext.w	a2,a5
  2021b6:	002107b7          	lui	a5,0x210
  2021ba:	c107b583          	ld	a1,-1008(a5) # 20fc10 <virtualBlockMapPtr>
  2021be:	fec46783          	lwu	a5,-20(s0)
  2021c2:	fe846683          	lwu	a3,-24(s0)
  2021c6:	873e                	mv	a4,a5
  2021c8:	0706                	slli	a4,a4,0x1
  2021ca:	973e                	add	a4,a4,a5
  2021cc:	00271793          	slli	a5,a4,0x2
  2021d0:	873e                	mv	a4,a5
  2021d2:	87b6                	mv	a5,a3
  2021d4:	0786                	slli	a5,a5,0x1
  2021d6:	97b6                	add	a5,a5,a3
  2021d8:	07be                	slli	a5,a5,0xf
  2021da:	97ba                	add	a5,a5,a4
  2021dc:	97ae                	add	a5,a5,a1
  2021de:	0047d783          	lhu	a5,4(a5)
  2021e2:	2781                	sext.w	a5,a5
  2021e4:	9fb1                	addw	a5,a5,a2
  2021e6:	2781                	sext.w	a5,a5
  2021e8:	0067979b          	slliw	a5,a5,0x6
  2021ec:	2781                	sext.w	a5,a5
  2021ee:	fe842703          	lw	a4,-24(s0)
  2021f2:	9fb9                	addw	a5,a5,a4
  2021f4:	fef42223          	sw	a5,-28(s0)
  2021f8:	002107b7          	lui	a5,0x210
  2021fc:	c107b683          	ld	a3,-1008(a5) # 20fc10 <virtualBlockMapPtr>
  202200:	fec46783          	lwu	a5,-20(s0)
  202204:	fe846603          	lwu	a2,-24(s0)
  202208:	873e                	mv	a4,a5
  20220a:	0706                	slli	a4,a4,0x1
  20220c:	973e                	add	a4,a4,a5
  20220e:	00271793          	slli	a5,a4,0x2
  202212:	873e                	mv	a4,a5
  202214:	87b2                	mv	a5,a2
  202216:	0786                	slli	a5,a5,0x1
  202218:	97b2                	add	a5,a5,a2
  20221a:	07be                	slli	a5,a5,0xf
  20221c:	97ba                	add	a5,a5,a4
  20221e:	97b6                	add	a5,a5,a3
  202220:	0047d783          	lhu	a5,4(a5)
  202224:	2785                	addiw	a5,a5,1
  202226:	03079593          	slli	a1,a5,0x30
  20222a:	91c1                	srli	a1,a1,0x30
  20222c:	fec46783          	lwu	a5,-20(s0)
  202230:	fe846603          	lwu	a2,-24(s0)
  202234:	873e                	mv	a4,a5
  202236:	0706                	slli	a4,a4,0x1
  202238:	973e                	add	a4,a4,a5
  20223a:	00271793          	slli	a5,a4,0x2
  20223e:	873e                	mv	a4,a5
  202240:	87b2                	mv	a5,a2
  202242:	0786                	slli	a5,a5,0x1
  202244:	97b2                	add	a5,a5,a2
  202246:	07be                	slli	a5,a5,0xf
  202248:	97ba                	add	a5,a5,a4
  20224a:	97b6                	add	a5,a5,a3
  20224c:	00b79223          	sh	a1,4(a5)
  202250:	27e000ef          	jal	ra,2024ce <FindDieForFreeSliceAllocation>
  202254:	87aa                	mv	a5,a0
  202256:	2781                	sext.w	a5,a5
  202258:	0ff7f713          	andi	a4,a5,255
  20225c:	002107b7          	lui	a5,0x210
  202260:	bee78823          	sb	a4,-1040(a5) # 20fbf0 <__bss_end>
  202264:	002107b7          	lui	a5,0x210
  202268:	bf07c783          	lbu	a5,-1040(a5) # 20fbf0 <__bss_end>
  20226c:	fef42423          	sw	a5,-24(s0)
  202270:	fe442783          	lw	a5,-28(s0)
  202274:	853e                	mv	a0,a5
  202276:	60e2                	ld	ra,24(sp)
  202278:	6442                	ld	s0,16(sp)
  20227a:	6105                	addi	sp,sp,32
  20227c:	8082                	ret

000000000020227e <FindFreeVirtualSliceForGc>:
  20227e:	7179                	addi	sp,sp,-48
  202280:	f406                	sd	ra,40(sp)
  202282:	f022                	sd	s0,32(sp)
  202284:	1800                	addi	s0,sp,48
  202286:	87aa                	mv	a5,a0
  202288:	872e                	mv	a4,a1
  20228a:	fcf42e23          	sw	a5,-36(s0)
  20228e:	87ba                	mv	a5,a4
  202290:	fcf42c23          	sw	a5,-40(s0)
  202294:	fdc42783          	lw	a5,-36(s0)
  202298:	fef42423          	sw	a5,-24(s0)
  20229c:	002107b7          	lui	a5,0x210
  2022a0:	c087b683          	ld	a3,-1016(a5) # 20fc08 <virtualDieMapPtr>
  2022a4:	fe846703          	lwu	a4,-24(s0)
  2022a8:	87ba                	mv	a5,a4
  2022aa:	0786                	slli	a5,a5,0x1
  2022ac:	97ba                	add	a5,a5,a4
  2022ae:	078a                	slli	a5,a5,0x2
  2022b0:	97b6                	add	a5,a5,a3
  2022b2:	0007d783          	lhu	a5,0(a5)
  2022b6:	0007871b          	sext.w	a4,a5
  2022ba:	fd842783          	lw	a5,-40(s0)
  2022be:	2781                	sext.w	a5,a5
  2022c0:	06e79563          	bne	a5,a4,20232a <FindFreeVirtualSliceForGc+0xac>
  2022c4:	fe842783          	lw	a5,-24(s0)
  2022c8:	4585                	li	a1,1
  2022ca:	853e                	mv	a0,a5
  2022cc:	0a3000ef          	jal	ra,202b6e <GetFromFbList>
  2022d0:	87aa                	mv	a5,a0
  2022d2:	0007871b          	sext.w	a4,a5
  2022d6:	002107b7          	lui	a5,0x210
  2022da:	c087b603          	ld	a2,-1016(a5) # 20fc08 <virtualDieMapPtr>
  2022de:	87ba                	mv	a5,a4
  2022e0:	03079693          	slli	a3,a5,0x30
  2022e4:	92c1                	srli	a3,a3,0x30
  2022e6:	fe846703          	lwu	a4,-24(s0)
  2022ea:	87ba                	mv	a5,a4
  2022ec:	0786                	slli	a5,a5,0x1
  2022ee:	97ba                	add	a5,a5,a4
  2022f0:	078a                	slli	a5,a5,0x2
  2022f2:	97b2                	add	a5,a5,a2
  2022f4:	00d79023          	sh	a3,0(a5)
  2022f8:	002107b7          	lui	a5,0x210
  2022fc:	c087b683          	ld	a3,-1016(a5) # 20fc08 <virtualDieMapPtr>
  202300:	fe846703          	lwu	a4,-24(s0)
  202304:	87ba                	mv	a5,a4
  202306:	0786                	slli	a5,a5,0x1
  202308:	97ba                	add	a5,a5,a4
  20230a:	078a                	slli	a5,a5,0x2
  20230c:	97b6                	add	a5,a5,a3
  20230e:	0007d783          	lhu	a5,0(a5)
  202312:	0007871b          	sext.w	a4,a5
  202316:	67c1                	lui	a5,0x10
  202318:	17fd                	addi	a5,a5,-1
  20231a:	00f71863          	bne	a4,a5,20232a <FindFreeVirtualSliceForGc+0xac>
  20231e:	0020f7b7          	lui	a5,0x20f
  202322:	0c078513          	addi	a0,a5,192 # 20f0c0 <nvme_main+0x748>
  202326:	2f2020ef          	jal	ra,204618 <cpl_print>
  20232a:	002107b7          	lui	a5,0x210
  20232e:	c087b683          	ld	a3,-1016(a5) # 20fc08 <virtualDieMapPtr>
  202332:	fe846703          	lwu	a4,-24(s0)
  202336:	87ba                	mv	a5,a4
  202338:	0786                	slli	a5,a5,0x1
  20233a:	97ba                	add	a5,a5,a4
  20233c:	078a                	slli	a5,a5,0x2
  20233e:	97b6                	add	a5,a5,a3
  202340:	0007d783          	lhu	a5,0(a5)
  202344:	fef42623          	sw	a5,-20(s0)
  202348:	002107b7          	lui	a5,0x210
  20234c:	c107b603          	ld	a2,-1008(a5) # 20fc10 <virtualBlockMapPtr>
  202350:	fec46783          	lwu	a5,-20(s0)
  202354:	fe846683          	lwu	a3,-24(s0)
  202358:	873e                	mv	a4,a5
  20235a:	0706                	slli	a4,a4,0x1
  20235c:	973e                	add	a4,a4,a5
  20235e:	00271793          	slli	a5,a4,0x2
  202362:	873e                	mv	a4,a5
  202364:	87b6                	mv	a5,a3
  202366:	0786                	slli	a5,a5,0x1
  202368:	97b6                	add	a5,a5,a3
  20236a:	07be                	slli	a5,a5,0xf
  20236c:	97ba                	add	a5,a5,a4
  20236e:	97b2                	add	a5,a5,a2
  202370:	0047d783          	lhu	a5,4(a5)
  202374:	0007871b          	sext.w	a4,a5
  202378:	08000793          	li	a5,128
  20237c:	04f71d63          	bne	a4,a5,2023d6 <FindFreeVirtualSliceForGc+0x158>
  202380:	fe842783          	lw	a5,-24(s0)
  202384:	4585                	li	a1,1
  202386:	853e                	mv	a0,a5
  202388:	7e6000ef          	jal	ra,202b6e <GetFromFbList>
  20238c:	87aa                	mv	a5,a0
  20238e:	fef42623          	sw	a5,-20(s0)
  202392:	fec42783          	lw	a5,-20(s0)
  202396:	0007871b          	sext.w	a4,a5
  20239a:	67c1                	lui	a5,0x10
  20239c:	17fd                	addi	a5,a5,-1
  20239e:	02f70563          	beq	a4,a5,2023c8 <FindFreeVirtualSliceForGc+0x14a>
  2023a2:	002107b7          	lui	a5,0x210
  2023a6:	c087b603          	ld	a2,-1016(a5) # 20fc08 <virtualDieMapPtr>
  2023aa:	fec42783          	lw	a5,-20(s0)
  2023ae:	03079693          	slli	a3,a5,0x30
  2023b2:	92c1                	srli	a3,a3,0x30
  2023b4:	fe846703          	lwu	a4,-24(s0)
  2023b8:	87ba                	mv	a5,a4
  2023ba:	0786                	slli	a5,a5,0x1
  2023bc:	97ba                	add	a5,a5,a4
  2023be:	078a                	slli	a5,a5,0x2
  2023c0:	97b2                	add	a5,a5,a2
  2023c2:	00d79023          	sh	a3,0(a5)
  2023c6:	a891                	j	20241a <FindFreeVirtualSliceForGc+0x19c>
  2023c8:	0020f7b7          	lui	a5,0x20f
  2023cc:	0c078513          	addi	a0,a5,192 # 20f0c0 <nvme_main+0x748>
  2023d0:	248020ef          	jal	ra,204618 <cpl_print>
  2023d4:	a099                	j	20241a <FindFreeVirtualSliceForGc+0x19c>
  2023d6:	002107b7          	lui	a5,0x210
  2023da:	c107b603          	ld	a2,-1008(a5) # 20fc10 <virtualBlockMapPtr>
  2023de:	fec46783          	lwu	a5,-20(s0)
  2023e2:	fe846683          	lwu	a3,-24(s0)
  2023e6:	873e                	mv	a4,a5
  2023e8:	0706                	slli	a4,a4,0x1
  2023ea:	973e                	add	a4,a4,a5
  2023ec:	00271793          	slli	a5,a4,0x2
  2023f0:	873e                	mv	a4,a5
  2023f2:	87b6                	mv	a5,a3
  2023f4:	0786                	slli	a5,a5,0x1
  2023f6:	97b6                	add	a5,a5,a3
  2023f8:	07be                	slli	a5,a5,0xf
  2023fa:	97ba                	add	a5,a5,a4
  2023fc:	97b2                	add	a5,a5,a2
  2023fe:	0047d783          	lhu	a5,4(a5)
  202402:	0007871b          	sext.w	a4,a5
  202406:	08000793          	li	a5,128
  20240a:	00e7f863          	bgeu	a5,a4,20241a <FindFreeVirtualSliceForGc+0x19c>
  20240e:	0020f7b7          	lui	a5,0x20f
  202412:	0f078513          	addi	a0,a5,240 # 20f0f0 <nvme_main+0x778>
  202416:	202020ef          	jal	ra,204618 <cpl_print>
  20241a:	fec42783          	lw	a5,-20(s0)
  20241e:	0077979b          	slliw	a5,a5,0x7
  202422:	0007861b          	sext.w	a2,a5
  202426:	002107b7          	lui	a5,0x210
  20242a:	c107b583          	ld	a1,-1008(a5) # 20fc10 <virtualBlockMapPtr>
  20242e:	fec46783          	lwu	a5,-20(s0)
  202432:	fe846683          	lwu	a3,-24(s0)
  202436:	873e                	mv	a4,a5
  202438:	0706                	slli	a4,a4,0x1
  20243a:	973e                	add	a4,a4,a5
  20243c:	00271793          	slli	a5,a4,0x2
  202440:	873e                	mv	a4,a5
  202442:	87b6                	mv	a5,a3
  202444:	0786                	slli	a5,a5,0x1
  202446:	97b6                	add	a5,a5,a3
  202448:	07be                	slli	a5,a5,0xf
  20244a:	97ba                	add	a5,a5,a4
  20244c:	97ae                	add	a5,a5,a1
  20244e:	0047d783          	lhu	a5,4(a5)
  202452:	2781                	sext.w	a5,a5
  202454:	9fb1                	addw	a5,a5,a2
  202456:	2781                	sext.w	a5,a5
  202458:	0067979b          	slliw	a5,a5,0x6
  20245c:	2781                	sext.w	a5,a5
  20245e:	fe842703          	lw	a4,-24(s0)
  202462:	9fb9                	addw	a5,a5,a4
  202464:	fef42223          	sw	a5,-28(s0)
  202468:	002107b7          	lui	a5,0x210
  20246c:	c107b683          	ld	a3,-1008(a5) # 20fc10 <virtualBlockMapPtr>
  202470:	fec46783          	lwu	a5,-20(s0)
  202474:	fe846603          	lwu	a2,-24(s0)
  202478:	873e                	mv	a4,a5
  20247a:	0706                	slli	a4,a4,0x1
  20247c:	973e                	add	a4,a4,a5
  20247e:	00271793          	slli	a5,a4,0x2
  202482:	873e                	mv	a4,a5
  202484:	87b2                	mv	a5,a2
  202486:	0786                	slli	a5,a5,0x1
  202488:	97b2                	add	a5,a5,a2
  20248a:	07be                	slli	a5,a5,0xf
  20248c:	97ba                	add	a5,a5,a4
  20248e:	97b6                	add	a5,a5,a3
  202490:	0047d783          	lhu	a5,4(a5)
  202494:	2785                	addiw	a5,a5,1
  202496:	03079593          	slli	a1,a5,0x30
  20249a:	91c1                	srli	a1,a1,0x30
  20249c:	fec46783          	lwu	a5,-20(s0)
  2024a0:	fe846603          	lwu	a2,-24(s0)
  2024a4:	873e                	mv	a4,a5
  2024a6:	0706                	slli	a4,a4,0x1
  2024a8:	973e                	add	a4,a4,a5
  2024aa:	00271793          	slli	a5,a4,0x2
  2024ae:	873e                	mv	a4,a5
  2024b0:	87b2                	mv	a5,a2
  2024b2:	0786                	slli	a5,a5,0x1
  2024b4:	97b2                	add	a5,a5,a2
  2024b6:	07be                	slli	a5,a5,0xf
  2024b8:	97ba                	add	a5,a5,a4
  2024ba:	97b6                	add	a5,a5,a3
  2024bc:	00b79223          	sh	a1,4(a5)
  2024c0:	fe442783          	lw	a5,-28(s0)
  2024c4:	853e                	mv	a0,a5
  2024c6:	70a2                	ld	ra,40(sp)
  2024c8:	7402                	ld	s0,32(sp)
  2024ca:	6145                	addi	sp,sp,48
  2024cc:	8082                	ret

00000000002024ce <FindDieForFreeSliceAllocation>:
  2024ce:	1101                	addi	sp,sp,-32
  2024d0:	ec22                	sd	s0,24(sp)
  2024d2:	1000                	addi	s0,sp,32
  2024d4:	002107b7          	lui	a5,0x210
  2024d8:	bf87c783          	lbu	a5,-1032(a5) # 20fbf8 <targetCh>
  2024dc:	0ff7f793          	andi	a5,a5,255
  2024e0:	0007871b          	sext.w	a4,a5
  2024e4:	002107b7          	lui	a5,0x210
  2024e8:	c207c783          	lbu	a5,-992(a5) # 20fc20 <targetWay>
  2024ec:	0ff7f793          	andi	a5,a5,255
  2024f0:	2781                	sext.w	a5,a5
  2024f2:	0037979b          	slliw	a5,a5,0x3
  2024f6:	2781                	sext.w	a5,a5
  2024f8:	9fb9                	addw	a5,a5,a4
  2024fa:	2781                	sext.w	a5,a5
  2024fc:	fef42623          	sw	a5,-20(s0)
  202500:	002107b7          	lui	a5,0x210
  202504:	bf87c783          	lbu	a5,-1032(a5) # 20fbf8 <targetCh>
  202508:	0ff7f793          	andi	a5,a5,255
  20250c:	873e                	mv	a4,a5
  20250e:	479d                	li	a5,7
  202510:	02f70063          	beq	a4,a5,202530 <FindDieForFreeSliceAllocation+0x62>
  202514:	002107b7          	lui	a5,0x210
  202518:	bf87c783          	lbu	a5,-1032(a5) # 20fbf8 <targetCh>
  20251c:	0ff7f793          	andi	a5,a5,255
  202520:	2785                	addiw	a5,a5,1
  202522:	0ff7f713          	andi	a4,a5,255
  202526:	002107b7          	lui	a5,0x210
  20252a:	bee78c23          	sb	a4,-1032(a5) # 20fbf8 <targetCh>
  20252e:	a835                	j	20256a <FindDieForFreeSliceAllocation+0x9c>
  202530:	002107b7          	lui	a5,0x210
  202534:	be078c23          	sb	zero,-1032(a5) # 20fbf8 <targetCh>
  202538:	002107b7          	lui	a5,0x210
  20253c:	c207c783          	lbu	a5,-992(a5) # 20fc20 <targetWay>
  202540:	0ff7f793          	andi	a5,a5,255
  202544:	2781                	sext.w	a5,a5
  202546:	2785                	addiw	a5,a5,1
  202548:	2781                	sext.w	a5,a5
  20254a:	873e                	mv	a4,a5
  20254c:	41f7579b          	sraiw	a5,a4,0x1f
  202550:	01d7d79b          	srliw	a5,a5,0x1d
  202554:	9f3d                	addw	a4,a4,a5
  202556:	8b1d                	andi	a4,a4,7
  202558:	40f707bb          	subw	a5,a4,a5
  20255c:	2781                	sext.w	a5,a5
  20255e:	0ff7f713          	andi	a4,a5,255
  202562:	002107b7          	lui	a5,0x210
  202566:	c2e78023          	sb	a4,-992(a5) # 20fc20 <targetWay>
  20256a:	fec42783          	lw	a5,-20(s0)
  20256e:	853e                	mv	a0,a5
  202570:	6462                	ld	s0,24(sp)
  202572:	6105                	addi	sp,sp,32
  202574:	8082                	ret

0000000000202576 <InvalidateOldVsa>:
  202576:	7179                	addi	sp,sp,-48
  202578:	f406                	sd	ra,40(sp)
  20257a:	f022                	sd	s0,32(sp)
  20257c:	1800                	addi	s0,sp,48
  20257e:	87aa                	mv	a5,a0
  202580:	fcf42e23          	sw	a5,-36(s0)
  202584:	002107b7          	lui	a5,0x210
  202588:	c007b703          	ld	a4,-1024(a5) # 20fc00 <logicalSliceMapPtr>
  20258c:	fdc46783          	lwu	a5,-36(s0)
  202590:	078a                	slli	a5,a5,0x2
  202592:	97ba                	add	a5,a5,a4
  202594:	439c                	lw	a5,0(a5)
  202596:	fef42623          	sw	a5,-20(s0)
  20259a:	fec42783          	lw	a5,-20(s0)
  20259e:	0007871b          	sext.w	a4,a5
  2025a2:	57fd                	li	a5,-1
  2025a4:	10f70c63          	beq	a4,a5,2026bc <InvalidateOldVsa+0x146>
  2025a8:	002107b7          	lui	a5,0x210
  2025ac:	c187b703          	ld	a4,-1000(a5) # 20fc18 <virtualSliceMapPtr>
  2025b0:	fec46783          	lwu	a5,-20(s0)
  2025b4:	078a                	slli	a5,a5,0x2
  2025b6:	97ba                	add	a5,a5,a4
  2025b8:	4398                	lw	a4,0(a5)
  2025ba:	fdc42783          	lw	a5,-36(s0)
  2025be:	2781                	sext.w	a5,a5
  2025c0:	0ee79d63          	bne	a5,a4,2026ba <InvalidateOldVsa+0x144>
  2025c4:	fec42783          	lw	a5,-20(s0)
  2025c8:	03f7f793          	andi	a5,a5,63
  2025cc:	fef42423          	sw	a5,-24(s0)
  2025d0:	fec42783          	lw	a5,-20(s0)
  2025d4:	00d7d79b          	srliw	a5,a5,0xd
  2025d8:	fef42223          	sw	a5,-28(s0)
  2025dc:	fe442703          	lw	a4,-28(s0)
  2025e0:	fe842783          	lw	a5,-24(s0)
  2025e4:	85ba                	mv	a1,a4
  2025e6:	853e                	mv	a0,a5
  2025e8:	5a3090ef          	jal	ra,20c38a <SelectiveGetFromGcVictimList>
  2025ec:	002107b7          	lui	a5,0x210
  2025f0:	c107b683          	ld	a3,-1008(a5) # 20fc10 <virtualBlockMapPtr>
  2025f4:	fe446783          	lwu	a5,-28(s0)
  2025f8:	fe846603          	lwu	a2,-24(s0)
  2025fc:	873e                	mv	a4,a5
  2025fe:	0706                	slli	a4,a4,0x1
  202600:	973e                	add	a4,a4,a5
  202602:	00271793          	slli	a5,a4,0x2
  202606:	873e                	mv	a4,a5
  202608:	87b2                	mv	a5,a2
  20260a:	0786                	slli	a5,a5,0x1
  20260c:	97b2                	add	a5,a5,a2
  20260e:	07be                	slli	a5,a5,0xf
  202610:	97ba                	add	a5,a5,a4
  202612:	97b6                	add	a5,a5,a3
  202614:	439c                	lw	a5,0(a5)
  202616:	0027d79b          	srliw	a5,a5,0x2
  20261a:	9bfd                	andi	a5,a5,-1
  20261c:	17c2                	slli	a5,a5,0x30
  20261e:	93c1                	srli	a5,a5,0x30
  202620:	2785                	addiw	a5,a5,1
  202622:	03079593          	slli	a1,a5,0x30
  202626:	91c1                	srli	a1,a1,0x30
  202628:	fe446783          	lwu	a5,-28(s0)
  20262c:	fe846603          	lwu	a2,-24(s0)
  202630:	873e                	mv	a4,a5
  202632:	0706                	slli	a4,a4,0x1
  202634:	973e                	add	a4,a4,a5
  202636:	00271793          	slli	a5,a4,0x2
  20263a:	873e                	mv	a4,a5
  20263c:	87b2                	mv	a5,a2
  20263e:	0786                	slli	a5,a5,0x1
  202640:	97b2                	add	a5,a5,a2
  202642:	07be                	slli	a5,a5,0xf
  202644:	97ba                	add	a5,a5,a4
  202646:	97b6                	add	a5,a5,a3
  202648:	0025971b          	slliw	a4,a1,0x2
  20264c:	4390                	lw	a2,0(a5)
  20264e:	fffc06b7          	lui	a3,0xfffc0
  202652:	068d                	addi	a3,a3,3
  202654:	8ef1                	and	a3,a3,a2
  202656:	8f55                	or	a4,a4,a3
  202658:	c398                	sw	a4,0(a5)
  20265a:	002107b7          	lui	a5,0x210
  20265e:	c007b703          	ld	a4,-1024(a5) # 20fc00 <logicalSliceMapPtr>
  202662:	fdc46783          	lwu	a5,-36(s0)
  202666:	078a                	slli	a5,a5,0x2
  202668:	97ba                	add	a5,a5,a4
  20266a:	577d                	li	a4,-1
  20266c:	c398                	sw	a4,0(a5)
  20266e:	002107b7          	lui	a5,0x210
  202672:	c107b603          	ld	a2,-1008(a5) # 20fc10 <virtualBlockMapPtr>
  202676:	fe446783          	lwu	a5,-28(s0)
  20267a:	fe846683          	lwu	a3,-24(s0)
  20267e:	873e                	mv	a4,a5
  202680:	0706                	slli	a4,a4,0x1
  202682:	973e                	add	a4,a4,a5
  202684:	00271793          	slli	a5,a4,0x2
  202688:	873e                	mv	a4,a5
  20268a:	87b6                	mv	a5,a3
  20268c:	0786                	slli	a5,a5,0x1
  20268e:	97b6                	add	a5,a5,a3
  202690:	07be                	slli	a5,a5,0xf
  202692:	97ba                	add	a5,a5,a4
  202694:	97b2                	add	a5,a5,a2
  202696:	439c                	lw	a5,0(a5)
  202698:	0027d79b          	srliw	a5,a5,0x2
  20269c:	9bfd                	andi	a5,a5,-1
  20269e:	17c2                	slli	a5,a5,0x30
  2026a0:	93c1                	srli	a5,a5,0x30
  2026a2:	0007869b          	sext.w	a3,a5
  2026a6:	fe442703          	lw	a4,-28(s0)
  2026aa:	fe842783          	lw	a5,-24(s0)
  2026ae:	8636                	mv	a2,a3
  2026b0:	85ba                	mv	a1,a4
  2026b2:	853e                	mv	a0,a5
  2026b4:	1c5090ef          	jal	ra,20c078 <PutToGcVictimList>
  2026b8:	a011                	j	2026bc <InvalidateOldVsa+0x146>
  2026ba:	0001                	nop
  2026bc:	70a2                	ld	ra,40(sp)
  2026be:	7402                	ld	s0,32(sp)
  2026c0:	6145                	addi	sp,sp,48
  2026c2:	8082                	ret

00000000002026c4 <EraseBlock>:
  2026c4:	7179                	addi	sp,sp,-48
  2026c6:	f406                	sd	ra,40(sp)
  2026c8:	f022                	sd	s0,32(sp)
  2026ca:	1800                	addi	s0,sp,48
  2026cc:	87aa                	mv	a5,a0
  2026ce:	872e                	mv	a4,a1
  2026d0:	fcf42e23          	sw	a5,-36(s0)
  2026d4:	87ba                	mv	a5,a4
  2026d6:	fcf42c23          	sw	a5,-40(s0)
  2026da:	4e7000ef          	jal	ra,2033c0 <GetFromFreeReqQ>
  2026de:	87aa                	mv	a5,a0
  2026e0:	fef42423          	sw	a5,-24(s0)
  2026e4:	002107b7          	lui	a5,0x210
  2026e8:	e507b703          	ld	a4,-432(a5) # 20fe50 <reqPoolPtr>
  2026ec:	fe846683          	lwu	a3,-24(s0)
  2026f0:	03400793          	li	a5,52
  2026f4:	02f687b3          	mul	a5,a3,a5
  2026f8:	97ba                	add	a5,a5,a4
  2026fa:	4398                	lw	a4,0(a5)
  2026fc:	9b41                	andi	a4,a4,-16
  2026fe:	00176713          	ori	a4,a4,1
  202702:	c398                	sw	a4,0(a5)
  202704:	002107b7          	lui	a5,0x210
  202708:	e507b703          	ld	a4,-432(a5) # 20fe50 <reqPoolPtr>
  20270c:	fe846683          	lwu	a3,-24(s0)
  202710:	03400793          	li	a5,52
  202714:	02f687b3          	mul	a5,a3,a5
  202718:	97ba                	add	a5,a5,a4
  20271a:	4731                	li	a4,12
  20271c:	00e780a3          	sb	a4,1(a5)
  202720:	002107b7          	lui	a5,0x210
  202724:	e507b703          	ld	a4,-432(a5) # 20fe50 <reqPoolPtr>
  202728:	fe846683          	lwu	a3,-24(s0)
  20272c:	03400793          	li	a5,52
  202730:	02f687b3          	mul	a5,a3,a5
  202734:	97ba                	add	a5,a5,a4
  202736:	4b98                	lw	a4,16(a5)
  202738:	9b4d                	andi	a4,a4,-13
  20273a:	cb98                	sw	a4,16(a5)
  20273c:	002107b7          	lui	a5,0x210
  202740:	e507b703          	ld	a4,-432(a5) # 20fe50 <reqPoolPtr>
  202744:	fe846683          	lwu	a3,-24(s0)
  202748:	03400793          	li	a5,52
  20274c:	02f687b3          	mul	a5,a3,a5
  202750:	97ba                	add	a5,a5,a4
  202752:	4b98                	lw	a4,16(a5)
  202754:	00376713          	ori	a4,a4,3
  202758:	cb98                	sw	a4,16(a5)
  20275a:	002107b7          	lui	a5,0x210
  20275e:	e507b703          	ld	a4,-432(a5) # 20fe50 <reqPoolPtr>
  202762:	fe846683          	lwu	a3,-24(s0)
  202766:	03400793          	li	a5,52
  20276a:	02f687b3          	mul	a5,a3,a5
  20276e:	97ba                	add	a5,a5,a4
  202770:	4b98                	lw	a4,16(a5)
  202772:	04076713          	ori	a4,a4,64
  202776:	cb98                	sw	a4,16(a5)
  202778:	002107b7          	lui	a5,0x210
  20277c:	e507b703          	ld	a4,-432(a5) # 20fe50 <reqPoolPtr>
  202780:	fe846683          	lwu	a3,-24(s0)
  202784:	03400793          	li	a5,52
  202788:	02f687b3          	mul	a5,a3,a5
  20278c:	97ba                	add	a5,a5,a4
  20278e:	4b98                	lw	a4,16(a5)
  202790:	f7f77713          	andi	a4,a4,-129
  202794:	cb98                	sw	a4,16(a5)
  202796:	fd842783          	lw	a5,-40(s0)
  20279a:	00d7979b          	slliw	a5,a5,0xd
  20279e:	2781                	sext.w	a5,a5
  2027a0:	00210737          	lui	a4,0x210
  2027a4:	e5073683          	ld	a3,-432(a4) # 20fe50 <reqPoolPtr>
  2027a8:	fdc42703          	lw	a4,-36(s0)
  2027ac:	9fb9                	addw	a5,a5,a4
  2027ae:	0007871b          	sext.w	a4,a5
  2027b2:	fe846603          	lwu	a2,-24(s0)
  2027b6:	03400793          	li	a5,52
  2027ba:	02f607b3          	mul	a5,a2,a5
  2027be:	97b6                	add	a5,a5,a3
  2027c0:	d3d8                	sw	a4,36(a5)
  2027c2:	002107b7          	lui	a5,0x210
  2027c6:	c107b603          	ld	a2,-1008(a5) # 20fc10 <virtualBlockMapPtr>
  2027ca:	fd846783          	lwu	a5,-40(s0)
  2027ce:	fdc46683          	lwu	a3,-36(s0)
  2027d2:	873e                	mv	a4,a5
  2027d4:	0706                	slli	a4,a4,0x1
  2027d6:	973e                	add	a4,a4,a5
  2027d8:	00271793          	slli	a5,a4,0x2
  2027dc:	873e                	mv	a4,a5
  2027de:	87b6                	mv	a5,a3
  2027e0:	0786                	slli	a5,a5,0x1
  2027e2:	97b6                	add	a5,a5,a3
  2027e4:	07be                	slli	a5,a5,0xf
  2027e6:	97ba                	add	a5,a5,a4
  2027e8:	97b2                	add	a5,a5,a2
  2027ea:	0047d703          	lhu	a4,4(a5)
  2027ee:	002107b7          	lui	a5,0x210
  2027f2:	e507b683          	ld	a3,-432(a5) # 20fe50 <reqPoolPtr>
  2027f6:	2701                	sext.w	a4,a4
  2027f8:	fe846603          	lwu	a2,-24(s0)
  2027fc:	03400793          	li	a5,52
  202800:	02f607b3          	mul	a5,a2,a5
  202804:	97b6                	add	a5,a5,a3
  202806:	d798                	sw	a4,40(a5)
  202808:	fe842783          	lw	a5,-24(s0)
  20280c:	853e                	mv	a0,a5
  20280e:	519080ef          	jal	ra,20b526 <SelectLowLevelReqQ>
  202812:	002107b7          	lui	a5,0x210
  202816:	c107b603          	ld	a2,-1008(a5) # 20fc10 <virtualBlockMapPtr>
  20281a:	fd846783          	lwu	a5,-40(s0)
  20281e:	fdc46683          	lwu	a3,-36(s0)
  202822:	873e                	mv	a4,a5
  202824:	0706                	slli	a4,a4,0x1
  202826:	973e                	add	a4,a4,a5
  202828:	00271793          	slli	a5,a4,0x2
  20282c:	873e                	mv	a4,a5
  20282e:	87b6                	mv	a5,a3
  202830:	0786                	slli	a5,a5,0x1
  202832:	97b6                	add	a5,a5,a3
  202834:	07be                	slli	a5,a5,0xf
  202836:	97ba                	add	a5,a5,a4
  202838:	97b2                	add	a5,a5,a2
  20283a:	4398                	lw	a4,0(a5)
  20283c:	00276713          	ori	a4,a4,2
  202840:	c398                	sw	a4,0(a5)
  202842:	002107b7          	lui	a5,0x210
  202846:	c107b683          	ld	a3,-1008(a5) # 20fc10 <virtualBlockMapPtr>
  20284a:	fd846783          	lwu	a5,-40(s0)
  20284e:	fdc46603          	lwu	a2,-36(s0)
  202852:	873e                	mv	a4,a5
  202854:	0706                	slli	a4,a4,0x1
  202856:	973e                	add	a4,a4,a5
  202858:	00271793          	slli	a5,a4,0x2
  20285c:	873e                	mv	a4,a5
  20285e:	87b2                	mv	a5,a2
  202860:	0786                	slli	a5,a5,0x1
  202862:	97b2                	add	a5,a5,a2
  202864:	07be                	slli	a5,a5,0xf
  202866:	97ba                	add	a5,a5,a4
  202868:	97b6                	add	a5,a5,a3
  20286a:	0067d783          	lhu	a5,6(a5)
  20286e:	2785                	addiw	a5,a5,1
  202870:	03079593          	slli	a1,a5,0x30
  202874:	91c1                	srli	a1,a1,0x30
  202876:	fd846783          	lwu	a5,-40(s0)
  20287a:	fdc46603          	lwu	a2,-36(s0)
  20287e:	873e                	mv	a4,a5
  202880:	0706                	slli	a4,a4,0x1
  202882:	973e                	add	a4,a4,a5
  202884:	00271793          	slli	a5,a4,0x2
  202888:	873e                	mv	a4,a5
  20288a:	87b2                	mv	a5,a2
  20288c:	0786                	slli	a5,a5,0x1
  20288e:	97b2                	add	a5,a5,a2
  202890:	07be                	slli	a5,a5,0xf
  202892:	97ba                	add	a5,a5,a4
  202894:	97b6                	add	a5,a5,a3
  202896:	00b79323          	sh	a1,6(a5)
  20289a:	002107b7          	lui	a5,0x210
  20289e:	c107b603          	ld	a2,-1008(a5) # 20fc10 <virtualBlockMapPtr>
  2028a2:	fd846783          	lwu	a5,-40(s0)
  2028a6:	fdc46683          	lwu	a3,-36(s0)
  2028aa:	873e                	mv	a4,a5
  2028ac:	0706                	slli	a4,a4,0x1
  2028ae:	973e                	add	a4,a4,a5
  2028b0:	00271793          	slli	a5,a4,0x2
  2028b4:	873e                	mv	a4,a5
  2028b6:	87b6                	mv	a5,a3
  2028b8:	0786                	slli	a5,a5,0x1
  2028ba:	97b6                	add	a5,a5,a3
  2028bc:	07be                	slli	a5,a5,0xf
  2028be:	97ba                	add	a5,a5,a4
  2028c0:	97b2                	add	a5,a5,a2
  2028c2:	4394                	lw	a3,0(a5)
  2028c4:	fffc0737          	lui	a4,0xfffc0
  2028c8:	070d                	addi	a4,a4,3
  2028ca:	8f75                	and	a4,a4,a3
  2028cc:	c398                	sw	a4,0(a5)
  2028ce:	002107b7          	lui	a5,0x210
  2028d2:	c107b603          	ld	a2,-1008(a5) # 20fc10 <virtualBlockMapPtr>
  2028d6:	fd846783          	lwu	a5,-40(s0)
  2028da:	fdc46683          	lwu	a3,-36(s0)
  2028de:	873e                	mv	a4,a5
  2028e0:	0706                	slli	a4,a4,0x1
  2028e2:	973e                	add	a4,a4,a5
  2028e4:	00271793          	slli	a5,a4,0x2
  2028e8:	873e                	mv	a4,a5
  2028ea:	87b6                	mv	a5,a3
  2028ec:	0786                	slli	a5,a5,0x1
  2028ee:	97b6                	add	a5,a5,a3
  2028f0:	07be                	slli	a5,a5,0xf
  2028f2:	97ba                	add	a5,a5,a4
  2028f4:	97b2                	add	a5,a5,a2
  2028f6:	00079223          	sh	zero,4(a5)
  2028fa:	fd842703          	lw	a4,-40(s0)
  2028fe:	fdc42783          	lw	a5,-36(s0)
  202902:	85ba                	mv	a1,a4
  202904:	853e                	mv	a0,a5
  202906:	066000ef          	jal	ra,20296c <PutToFbList>
  20290a:	fe042623          	sw	zero,-20(s0)
  20290e:	a089                	j	202950 <EraseBlock+0x28c>
  202910:	fd842783          	lw	a5,-40(s0)
  202914:	0077979b          	slliw	a5,a5,0x7
  202918:	2781                	sext.w	a5,a5
  20291a:	fec42703          	lw	a4,-20(s0)
  20291e:	9fb9                	addw	a5,a5,a4
  202920:	2781                	sext.w	a5,a5
  202922:	0067979b          	slliw	a5,a5,0x6
  202926:	2781                	sext.w	a5,a5
  202928:	fdc42703          	lw	a4,-36(s0)
  20292c:	9fb9                	addw	a5,a5,a4
  20292e:	fef42223          	sw	a5,-28(s0)
  202932:	002107b7          	lui	a5,0x210
  202936:	c187b703          	ld	a4,-1000(a5) # 20fc18 <virtualSliceMapPtr>
  20293a:	fe446783          	lwu	a5,-28(s0)
  20293e:	078a                	slli	a5,a5,0x2
  202940:	97ba                	add	a5,a5,a4
  202942:	577d                	li	a4,-1
  202944:	c398                	sw	a4,0(a5)
  202946:	fec42783          	lw	a5,-20(s0)
  20294a:	2785                	addiw	a5,a5,1
  20294c:	fef42623          	sw	a5,-20(s0)
  202950:	fec42783          	lw	a5,-20(s0)
  202954:	0007871b          	sext.w	a4,a5
  202958:	07f00793          	li	a5,127
  20295c:	fae7fae3          	bgeu	a5,a4,202910 <EraseBlock+0x24c>
  202960:	0001                	nop
  202962:	0001                	nop
  202964:	70a2                	ld	ra,40(sp)
  202966:	7402                	ld	s0,32(sp)
  202968:	6145                	addi	sp,sp,48
  20296a:	8082                	ret

000000000020296c <PutToFbList>:
  20296c:	1101                	addi	sp,sp,-32
  20296e:	ec22                	sd	s0,24(sp)
  202970:	1000                	addi	s0,sp,32
  202972:	87aa                	mv	a5,a0
  202974:	872e                	mv	a4,a1
  202976:	fef42623          	sw	a5,-20(s0)
  20297a:	87ba                	mv	a5,a4
  20297c:	fef42423          	sw	a5,-24(s0)
  202980:	002107b7          	lui	a5,0x210
  202984:	c087b683          	ld	a3,-1016(a5) # 20fc08 <virtualDieMapPtr>
  202988:	fec46703          	lwu	a4,-20(s0)
  20298c:	87ba                	mv	a5,a4
  20298e:	0786                	slli	a5,a5,0x1
  202990:	97ba                	add	a5,a5,a4
  202992:	078a                	slli	a5,a5,0x2
  202994:	97b6                	add	a5,a5,a3
  202996:	0047d783          	lhu	a5,4(a5)
  20299a:	0007871b          	sext.w	a4,a5
  20299e:	67c1                	lui	a5,0x10
  2029a0:	17fd                	addi	a5,a5,-1
  2029a2:	0ef70663          	beq	a4,a5,202a8e <PutToFbList+0x122>
  2029a6:	002107b7          	lui	a5,0x210
  2029aa:	c087b683          	ld	a3,-1016(a5) # 20fc08 <virtualDieMapPtr>
  2029ae:	002107b7          	lui	a5,0x210
  2029b2:	c107b583          	ld	a1,-1008(a5) # 20fc10 <virtualBlockMapPtr>
  2029b6:	fec46703          	lwu	a4,-20(s0)
  2029ba:	87ba                	mv	a5,a4
  2029bc:	0786                	slli	a5,a5,0x1
  2029be:	97ba                	add	a5,a5,a4
  2029c0:	078a                	slli	a5,a5,0x2
  2029c2:	97b6                	add	a5,a5,a3
  2029c4:	0047d603          	lhu	a2,4(a5)
  2029c8:	fe846783          	lwu	a5,-24(s0)
  2029cc:	fec46683          	lwu	a3,-20(s0)
  2029d0:	873e                	mv	a4,a5
  2029d2:	0706                	slli	a4,a4,0x1
  2029d4:	973e                	add	a4,a4,a5
  2029d6:	00271793          	slli	a5,a4,0x2
  2029da:	873e                	mv	a4,a5
  2029dc:	87b6                	mv	a5,a3
  2029de:	0786                	slli	a5,a5,0x1
  2029e0:	97b6                	add	a5,a5,a3
  2029e2:	07be                	slli	a5,a5,0xf
  2029e4:	97ba                	add	a5,a5,a4
  2029e6:	97ae                	add	a5,a5,a1
  2029e8:	00c79423          	sh	a2,8(a5)
  2029ec:	002107b7          	lui	a5,0x210
  2029f0:	c107b603          	ld	a2,-1008(a5) # 20fc10 <virtualBlockMapPtr>
  2029f4:	fe846783          	lwu	a5,-24(s0)
  2029f8:	fec46683          	lwu	a3,-20(s0)
  2029fc:	873e                	mv	a4,a5
  2029fe:	0706                	slli	a4,a4,0x1
  202a00:	973e                	add	a4,a4,a5
  202a02:	00271793          	slli	a5,a4,0x2
  202a06:	873e                	mv	a4,a5
  202a08:	87b6                	mv	a5,a3
  202a0a:	0786                	slli	a5,a5,0x1
  202a0c:	97b6                	add	a5,a5,a3
  202a0e:	07be                	slli	a5,a5,0xf
  202a10:	97ba                	add	a5,a5,a4
  202a12:	97b2                	add	a5,a5,a2
  202a14:	577d                	li	a4,-1
  202a16:	00e79523          	sh	a4,10(a5)
  202a1a:	002107b7          	lui	a5,0x210
  202a1e:	c107b583          	ld	a1,-1008(a5) # 20fc10 <virtualBlockMapPtr>
  202a22:	002107b7          	lui	a5,0x210
  202a26:	c087b683          	ld	a3,-1016(a5) # 20fc08 <virtualDieMapPtr>
  202a2a:	fec46703          	lwu	a4,-20(s0)
  202a2e:	87ba                	mv	a5,a4
  202a30:	0786                	slli	a5,a5,0x1
  202a32:	97ba                	add	a5,a5,a4
  202a34:	078a                	slli	a5,a5,0x2
  202a36:	97b6                	add	a5,a5,a3
  202a38:	0047d783          	lhu	a5,4(a5)
  202a3c:	2781                	sext.w	a5,a5
  202a3e:	fe842703          	lw	a4,-24(s0)
  202a42:	03071613          	slli	a2,a4,0x30
  202a46:	9241                	srli	a2,a2,0x30
  202a48:	fec46683          	lwu	a3,-20(s0)
  202a4c:	873e                	mv	a4,a5
  202a4e:	0706                	slli	a4,a4,0x1
  202a50:	973e                	add	a4,a4,a5
  202a52:	00271793          	slli	a5,a4,0x2
  202a56:	873e                	mv	a4,a5
  202a58:	87b6                	mv	a5,a3
  202a5a:	0786                	slli	a5,a5,0x1
  202a5c:	97b6                	add	a5,a5,a3
  202a5e:	07be                	slli	a5,a5,0xf
  202a60:	97ba                	add	a5,a5,a4
  202a62:	97ae                	add	a5,a5,a1
  202a64:	00c79523          	sh	a2,10(a5)
  202a68:	002107b7          	lui	a5,0x210
  202a6c:	c087b603          	ld	a2,-1016(a5) # 20fc08 <virtualDieMapPtr>
  202a70:	fe842783          	lw	a5,-24(s0)
  202a74:	03079693          	slli	a3,a5,0x30
  202a78:	92c1                	srli	a3,a3,0x30
  202a7a:	fec46703          	lwu	a4,-20(s0)
  202a7e:	87ba                	mv	a5,a4
  202a80:	0786                	slli	a5,a5,0x1
  202a82:	97ba                	add	a5,a5,a4
  202a84:	078a                	slli	a5,a5,0x2
  202a86:	97b2                	add	a5,a5,a2
  202a88:	00d79223          	sh	a3,4(a5)
  202a8c:	a05d                	j	202b32 <PutToFbList+0x1c6>
  202a8e:	002107b7          	lui	a5,0x210
  202a92:	c107b603          	ld	a2,-1008(a5) # 20fc10 <virtualBlockMapPtr>
  202a96:	fe846783          	lwu	a5,-24(s0)
  202a9a:	fec46683          	lwu	a3,-20(s0)
  202a9e:	873e                	mv	a4,a5
  202aa0:	0706                	slli	a4,a4,0x1
  202aa2:	973e                	add	a4,a4,a5
  202aa4:	00271793          	slli	a5,a4,0x2
  202aa8:	873e                	mv	a4,a5
  202aaa:	87b6                	mv	a5,a3
  202aac:	0786                	slli	a5,a5,0x1
  202aae:	97b6                	add	a5,a5,a3
  202ab0:	07be                	slli	a5,a5,0xf
  202ab2:	97ba                	add	a5,a5,a4
  202ab4:	97b2                	add	a5,a5,a2
  202ab6:	577d                	li	a4,-1
  202ab8:	00e79423          	sh	a4,8(a5)
  202abc:	002107b7          	lui	a5,0x210
  202ac0:	c107b603          	ld	a2,-1008(a5) # 20fc10 <virtualBlockMapPtr>
  202ac4:	fe846783          	lwu	a5,-24(s0)
  202ac8:	fec46683          	lwu	a3,-20(s0)
  202acc:	873e                	mv	a4,a5
  202ace:	0706                	slli	a4,a4,0x1
  202ad0:	973e                	add	a4,a4,a5
  202ad2:	00271793          	slli	a5,a4,0x2
  202ad6:	873e                	mv	a4,a5
  202ad8:	87b6                	mv	a5,a3
  202ada:	0786                	slli	a5,a5,0x1
  202adc:	97b6                	add	a5,a5,a3
  202ade:	07be                	slli	a5,a5,0xf
  202ae0:	97ba                	add	a5,a5,a4
  202ae2:	97b2                	add	a5,a5,a2
  202ae4:	577d                	li	a4,-1
  202ae6:	00e79523          	sh	a4,10(a5)
  202aea:	002107b7          	lui	a5,0x210
  202aee:	c087b603          	ld	a2,-1016(a5) # 20fc08 <virtualDieMapPtr>
  202af2:	fe842783          	lw	a5,-24(s0)
  202af6:	03079693          	slli	a3,a5,0x30
  202afa:	92c1                	srli	a3,a3,0x30
  202afc:	fec46703          	lwu	a4,-20(s0)
  202b00:	87ba                	mv	a5,a4
  202b02:	0786                	slli	a5,a5,0x1
  202b04:	97ba                	add	a5,a5,a4
  202b06:	078a                	slli	a5,a5,0x2
  202b08:	97b2                	add	a5,a5,a2
  202b0a:	00d79123          	sh	a3,2(a5)
  202b0e:	002107b7          	lui	a5,0x210
  202b12:	c087b603          	ld	a2,-1016(a5) # 20fc08 <virtualDieMapPtr>
  202b16:	fe842783          	lw	a5,-24(s0)
  202b1a:	03079693          	slli	a3,a5,0x30
  202b1e:	92c1                	srli	a3,a3,0x30
  202b20:	fec46703          	lwu	a4,-20(s0)
  202b24:	87ba                	mv	a5,a4
  202b26:	0786                	slli	a5,a5,0x1
  202b28:	97ba                	add	a5,a5,a4
  202b2a:	078a                	slli	a5,a5,0x2
  202b2c:	97b2                	add	a5,a5,a2
  202b2e:	00d79223          	sh	a3,4(a5)
  202b32:	002107b7          	lui	a5,0x210
  202b36:	c087b703          	ld	a4,-1016(a5) # 20fc08 <virtualDieMapPtr>
  202b3a:	fec46683          	lwu	a3,-20(s0)
  202b3e:	87b6                	mv	a5,a3
  202b40:	0786                	slli	a5,a5,0x1
  202b42:	97b6                	add	a5,a5,a3
  202b44:	078a                	slli	a5,a5,0x2
  202b46:	97ba                	add	a5,a5,a4
  202b48:	0067d783          	lhu	a5,6(a5)
  202b4c:	2785                	addiw	a5,a5,1
  202b4e:	03079613          	slli	a2,a5,0x30
  202b52:	9241                	srli	a2,a2,0x30
  202b54:	fec46683          	lwu	a3,-20(s0)
  202b58:	87b6                	mv	a5,a3
  202b5a:	0786                	slli	a5,a5,0x1
  202b5c:	97b6                	add	a5,a5,a3
  202b5e:	078a                	slli	a5,a5,0x2
  202b60:	97ba                	add	a5,a5,a4
  202b62:	00c79323          	sh	a2,6(a5)
  202b66:	0001                	nop
  202b68:	6462                	ld	s0,24(sp)
  202b6a:	6105                	addi	sp,sp,32
  202b6c:	8082                	ret

0000000000202b6e <GetFromFbList>:
  202b6e:	7179                	addi	sp,sp,-48
  202b70:	f406                	sd	ra,40(sp)
  202b72:	f022                	sd	s0,32(sp)
  202b74:	1800                	addi	s0,sp,48
  202b76:	87aa                	mv	a5,a0
  202b78:	872e                	mv	a4,a1
  202b7a:	fcf42e23          	sw	a5,-36(s0)
  202b7e:	87ba                	mv	a5,a4
  202b80:	fcf42c23          	sw	a5,-40(s0)
  202b84:	002107b7          	lui	a5,0x210
  202b88:	c087b683          	ld	a3,-1016(a5) # 20fc08 <virtualDieMapPtr>
  202b8c:	fdc46703          	lwu	a4,-36(s0)
  202b90:	87ba                	mv	a5,a4
  202b92:	0786                	slli	a5,a5,0x1
  202b94:	97ba                	add	a5,a5,a4
  202b96:	078a                	slli	a5,a5,0x2
  202b98:	97b6                	add	a5,a5,a3
  202b9a:	0027d783          	lhu	a5,2(a5)
  202b9e:	fef42623          	sw	a5,-20(s0)
  202ba2:	fd842783          	lw	a5,-40(s0)
  202ba6:	2781                	sext.w	a5,a5
  202ba8:	e795                	bnez	a5,202bd4 <GetFromFbList+0x66>
  202baa:	002107b7          	lui	a5,0x210
  202bae:	c087b683          	ld	a3,-1016(a5) # 20fc08 <virtualDieMapPtr>
  202bb2:	fdc46703          	lwu	a4,-36(s0)
  202bb6:	87ba                	mv	a5,a4
  202bb8:	0786                	slli	a5,a5,0x1
  202bba:	97ba                	add	a5,a5,a4
  202bbc:	078a                	slli	a5,a5,0x2
  202bbe:	97b6                	add	a5,a5,a3
  202bc0:	0067d783          	lhu	a5,6(a5)
  202bc4:	0007871b          	sext.w	a4,a5
  202bc8:	4785                	li	a5,1
  202bca:	02e7ed63          	bltu	a5,a4,202c04 <GetFromFbList+0x96>
  202bce:	67c1                	lui	a5,0x10
  202bd0:	17fd                	addi	a5,a5,-1
  202bd2:	a411                	j	202dd6 <GetFromFbList+0x268>
  202bd4:	fd842783          	lw	a5,-40(s0)
  202bd8:	0007871b          	sext.w	a4,a5
  202bdc:	4785                	li	a5,1
  202bde:	00f71d63          	bne	a4,a5,202bf8 <GetFromFbList+0x8a>
  202be2:	fec42783          	lw	a5,-20(s0)
  202be6:	0007871b          	sext.w	a4,a5
  202bea:	67c1                	lui	a5,0x10
  202bec:	17fd                	addi	a5,a5,-1
  202bee:	00f71b63          	bne	a4,a5,202c04 <GetFromFbList+0x96>
  202bf2:	67c1                	lui	a5,0x10
  202bf4:	17fd                	addi	a5,a5,-1
  202bf6:	a2c5                	j	202dd6 <GetFromFbList+0x268>
  202bf8:	0020f7b7          	lui	a5,0x20f
  202bfc:	12878513          	addi	a0,a5,296 # 20f128 <nvme_main+0x7b0>
  202c00:	219010ef          	jal	ra,204618 <cpl_print>
  202c04:	002107b7          	lui	a5,0x210
  202c08:	c107b603          	ld	a2,-1008(a5) # 20fc10 <virtualBlockMapPtr>
  202c0c:	fec46783          	lwu	a5,-20(s0)
  202c10:	fdc46683          	lwu	a3,-36(s0)
  202c14:	873e                	mv	a4,a5
  202c16:	0706                	slli	a4,a4,0x1
  202c18:	973e                	add	a4,a4,a5
  202c1a:	00271793          	slli	a5,a4,0x2
  202c1e:	873e                	mv	a4,a5
  202c20:	87b6                	mv	a5,a3
  202c22:	0786                	slli	a5,a5,0x1
  202c24:	97b6                	add	a5,a5,a3
  202c26:	07be                	slli	a5,a5,0xf
  202c28:	97ba                	add	a5,a5,a4
  202c2a:	97b2                	add	a5,a5,a2
  202c2c:	00a7d783          	lhu	a5,10(a5)
  202c30:	0007871b          	sext.w	a4,a5
  202c34:	67c1                	lui	a5,0x10
  202c36:	17fd                	addi	a5,a5,-1
  202c38:	0af70263          	beq	a4,a5,202cdc <GetFromFbList+0x16e>
  202c3c:	002107b7          	lui	a5,0x210
  202c40:	c107b583          	ld	a1,-1008(a5) # 20fc10 <virtualBlockMapPtr>
  202c44:	002107b7          	lui	a5,0x210
  202c48:	c087b603          	ld	a2,-1016(a5) # 20fc08 <virtualDieMapPtr>
  202c4c:	fec46783          	lwu	a5,-20(s0)
  202c50:	fdc46683          	lwu	a3,-36(s0)
  202c54:	873e                	mv	a4,a5
  202c56:	0706                	slli	a4,a4,0x1
  202c58:	973e                	add	a4,a4,a5
  202c5a:	00271793          	slli	a5,a4,0x2
  202c5e:	873e                	mv	a4,a5
  202c60:	87b6                	mv	a5,a3
  202c62:	0786                	slli	a5,a5,0x1
  202c64:	97b6                	add	a5,a5,a3
  202c66:	07be                	slli	a5,a5,0xf
  202c68:	97ba                	add	a5,a5,a4
  202c6a:	97ae                	add	a5,a5,a1
  202c6c:	00a7d683          	lhu	a3,10(a5)
  202c70:	fdc46703          	lwu	a4,-36(s0)
  202c74:	87ba                	mv	a5,a4
  202c76:	0786                	slli	a5,a5,0x1
  202c78:	97ba                	add	a5,a5,a4
  202c7a:	078a                	slli	a5,a5,0x2
  202c7c:	97b2                	add	a5,a5,a2
  202c7e:	00d79123          	sh	a3,2(a5)
  202c82:	002107b7          	lui	a5,0x210
  202c86:	c107b603          	ld	a2,-1008(a5) # 20fc10 <virtualBlockMapPtr>
  202c8a:	002107b7          	lui	a5,0x210
  202c8e:	c107b583          	ld	a1,-1008(a5) # 20fc10 <virtualBlockMapPtr>
  202c92:	fec46783          	lwu	a5,-20(s0)
  202c96:	fdc46683          	lwu	a3,-36(s0)
  202c9a:	873e                	mv	a4,a5
  202c9c:	0706                	slli	a4,a4,0x1
  202c9e:	973e                	add	a4,a4,a5
  202ca0:	00271793          	slli	a5,a4,0x2
  202ca4:	873e                	mv	a4,a5
  202ca6:	87b6                	mv	a5,a3
  202ca8:	0786                	slli	a5,a5,0x1
  202caa:	97b6                	add	a5,a5,a3
  202cac:	07be                	slli	a5,a5,0xf
  202cae:	97ba                	add	a5,a5,a4
  202cb0:	97ae                	add	a5,a5,a1
  202cb2:	00a7d783          	lhu	a5,10(a5)
  202cb6:	2781                	sext.w	a5,a5
  202cb8:	fdc46683          	lwu	a3,-36(s0)
  202cbc:	873e                	mv	a4,a5
  202cbe:	0706                	slli	a4,a4,0x1
  202cc0:	973e                	add	a4,a4,a5
  202cc2:	00271793          	slli	a5,a4,0x2
  202cc6:	873e                	mv	a4,a5
  202cc8:	87b6                	mv	a5,a3
  202cca:	0786                	slli	a5,a5,0x1
  202ccc:	97b6                	add	a5,a5,a3
  202cce:	07be                	slli	a5,a5,0xf
  202cd0:	97ba                	add	a5,a5,a4
  202cd2:	97b2                	add	a5,a5,a2
  202cd4:	577d                	li	a4,-1
  202cd6:	00e79423          	sh	a4,8(a5)
  202cda:	a82d                	j	202d14 <GetFromFbList+0x1a6>
  202cdc:	002107b7          	lui	a5,0x210
  202ce0:	c087b683          	ld	a3,-1016(a5) # 20fc08 <virtualDieMapPtr>
  202ce4:	fdc46703          	lwu	a4,-36(s0)
  202ce8:	87ba                	mv	a5,a4
  202cea:	0786                	slli	a5,a5,0x1
  202cec:	97ba                	add	a5,a5,a4
  202cee:	078a                	slli	a5,a5,0x2
  202cf0:	97b6                	add	a5,a5,a3
  202cf2:	577d                	li	a4,-1
  202cf4:	00e79123          	sh	a4,2(a5)
  202cf8:	002107b7          	lui	a5,0x210
  202cfc:	c087b683          	ld	a3,-1016(a5) # 20fc08 <virtualDieMapPtr>
  202d00:	fdc46703          	lwu	a4,-36(s0)
  202d04:	87ba                	mv	a5,a4
  202d06:	0786                	slli	a5,a5,0x1
  202d08:	97ba                	add	a5,a5,a4
  202d0a:	078a                	slli	a5,a5,0x2
  202d0c:	97b6                	add	a5,a5,a3
  202d0e:	577d                	li	a4,-1
  202d10:	00e79223          	sh	a4,4(a5)
  202d14:	002107b7          	lui	a5,0x210
  202d18:	c107b603          	ld	a2,-1008(a5) # 20fc10 <virtualBlockMapPtr>
  202d1c:	fec46783          	lwu	a5,-20(s0)
  202d20:	fdc46683          	lwu	a3,-36(s0)
  202d24:	873e                	mv	a4,a5
  202d26:	0706                	slli	a4,a4,0x1
  202d28:	973e                	add	a4,a4,a5
  202d2a:	00271793          	slli	a5,a4,0x2
  202d2e:	873e                	mv	a4,a5
  202d30:	87b6                	mv	a5,a3
  202d32:	0786                	slli	a5,a5,0x1
  202d34:	97b6                	add	a5,a5,a3
  202d36:	07be                	slli	a5,a5,0xf
  202d38:	97ba                	add	a5,a5,a4
  202d3a:	97b2                	add	a5,a5,a2
  202d3c:	4398                	lw	a4,0(a5)
  202d3e:	9b75                	andi	a4,a4,-3
  202d40:	c398                	sw	a4,0(a5)
  202d42:	002107b7          	lui	a5,0x210
  202d46:	c087b703          	ld	a4,-1016(a5) # 20fc08 <virtualDieMapPtr>
  202d4a:	fdc46683          	lwu	a3,-36(s0)
  202d4e:	87b6                	mv	a5,a3
  202d50:	0786                	slli	a5,a5,0x1
  202d52:	97b6                	add	a5,a5,a3
  202d54:	078a                	slli	a5,a5,0x2
  202d56:	97ba                	add	a5,a5,a4
  202d58:	0067d783          	lhu	a5,6(a5)
  202d5c:	37fd                	addiw	a5,a5,-1
  202d5e:	03079613          	slli	a2,a5,0x30
  202d62:	9241                	srli	a2,a2,0x30
  202d64:	fdc46683          	lwu	a3,-36(s0)
  202d68:	87b6                	mv	a5,a3
  202d6a:	0786                	slli	a5,a5,0x1
  202d6c:	97b6                	add	a5,a5,a3
  202d6e:	078a                	slli	a5,a5,0x2
  202d70:	97ba                	add	a5,a5,a4
  202d72:	00c79323          	sh	a2,6(a5)
  202d76:	002107b7          	lui	a5,0x210
  202d7a:	c107b603          	ld	a2,-1008(a5) # 20fc10 <virtualBlockMapPtr>
  202d7e:	fec46783          	lwu	a5,-20(s0)
  202d82:	fdc46683          	lwu	a3,-36(s0)
  202d86:	873e                	mv	a4,a5
  202d88:	0706                	slli	a4,a4,0x1
  202d8a:	973e                	add	a4,a4,a5
  202d8c:	00271793          	slli	a5,a4,0x2
  202d90:	873e                	mv	a4,a5
  202d92:	87b6                	mv	a5,a3
  202d94:	0786                	slli	a5,a5,0x1
  202d96:	97b6                	add	a5,a5,a3
  202d98:	07be                	slli	a5,a5,0xf
  202d9a:	97ba                	add	a5,a5,a4
  202d9c:	97b2                	add	a5,a5,a2
  202d9e:	577d                	li	a4,-1
  202da0:	00e79523          	sh	a4,10(a5)
  202da4:	002107b7          	lui	a5,0x210
  202da8:	c107b603          	ld	a2,-1008(a5) # 20fc10 <virtualBlockMapPtr>
  202dac:	fec46783          	lwu	a5,-20(s0)
  202db0:	fdc46683          	lwu	a3,-36(s0)
  202db4:	873e                	mv	a4,a5
  202db6:	0706                	slli	a4,a4,0x1
  202db8:	973e                	add	a4,a4,a5
  202dba:	00271793          	slli	a5,a4,0x2
  202dbe:	873e                	mv	a4,a5
  202dc0:	87b6                	mv	a5,a3
  202dc2:	0786                	slli	a5,a5,0x1
  202dc4:	97b6                	add	a5,a5,a3
  202dc6:	07be                	slli	a5,a5,0xf
  202dc8:	97ba                	add	a5,a5,a4
  202dca:	97b2                	add	a5,a5,a2
  202dcc:	577d                	li	a4,-1
  202dce:	00e79423          	sh	a4,8(a5)
  202dd2:	fec42783          	lw	a5,-20(s0)
  202dd6:	853e                	mv	a0,a5
  202dd8:	70a2                	ld	ra,40(sp)
  202dda:	7402                	ld	s0,32(sp)
  202ddc:	6145                	addi	sp,sp,48
  202dde:	8082                	ret

0000000000202de0 <UpdatePhyBlockMapForGrownBadBlock>:
  202de0:	1101                	addi	sp,sp,-32
  202de2:	ec22                	sd	s0,24(sp)
  202de4:	1000                	addi	s0,sp,32
  202de6:	87aa                	mv	a5,a0
  202de8:	872e                	mv	a4,a1
  202dea:	fef42623          	sw	a5,-20(s0)
  202dee:	87ba                	mv	a5,a4
  202df0:	fef42423          	sw	a5,-24(s0)
  202df4:	002107b7          	lui	a5,0x210
  202df8:	c307b703          	ld	a4,-976(a5) # 20fc30 <phyBlockMapPtr>
  202dfc:	fe846783          	lwu	a5,-24(s0)
  202e00:	fec46603          	lwu	a2,-20(s0)
  202e04:	6689                	lui	a3,0x2
  202e06:	0b068693          	addi	a3,a3,176 # 20b0 <start-0x1fdf50>
  202e0a:	02d606b3          	mul	a3,a2,a3
  202e0e:	97b6                	add	a5,a5,a3
  202e10:	078a                	slli	a5,a5,0x2
  202e12:	97ba                	add	a5,a5,a4
  202e14:	4394                	lw	a3,0(a5)
  202e16:	6741                	lui	a4,0x10
  202e18:	8f55                	or	a4,a4,a3
  202e1a:	c398                	sw	a4,0(a5)
  202e1c:	002107b7          	lui	a5,0x210
  202e20:	c287b703          	ld	a4,-984(a5) # 20fc28 <bbtInfoMapPtr>
  202e24:	fec46783          	lwu	a5,-20(s0)
  202e28:	078a                	slli	a5,a5,0x2
  202e2a:	97ba                	add	a5,a5,a4
  202e2c:	4394                	lw	a3,0(a5)
  202e2e:	6741                	lui	a4,0x10
  202e30:	8f55                	or	a4,a4,a3
  202e32:	c398                	sw	a4,0(a5)
  202e34:	0001                	nop
  202e36:	6462                	ld	s0,24(sp)
  202e38:	6105                	addi	sp,sp,32
  202e3a:	8082                	ret

0000000000202e3c <UpdateBadBlockTableForGrownBadBlock>:
  202e3c:	7109                	addi	sp,sp,-384
  202e3e:	fe86                	sd	ra,376(sp)
  202e40:	faa2                	sd	s0,368(sp)
  202e42:	0300                	addi	s0,sp,384
  202e44:	87aa                	mv	a5,a0
  202e46:	e8f42623          	sw	a5,-372(s0)
  202e4a:	e8c42783          	lw	a5,-372(s0)
  202e4e:	fef42223          	sw	a5,-28(s0)
  202e52:	6791                	lui	a5,0x4
  202e54:	10078793          	addi	a5,a5,256 # 4100 <start-0x1fbf00>
  202e58:	fef42023          	sw	a5,-32(s0)
  202e5c:	fe042623          	sw	zero,-20(s0)
  202e60:	a815                	j	202e94 <UpdateBadBlockTableForGrownBadBlock+0x58>
  202e62:	fec42703          	lw	a4,-20(s0)
  202e66:	fe042783          	lw	a5,-32(s0)
  202e6a:	02f707bb          	mulw	a5,a4,a5
  202e6e:	2781                	sext.w	a5,a5
  202e70:	fe442703          	lw	a4,-28(s0)
  202e74:	9fb9                	addw	a5,a5,a4
  202e76:	0007871b          	sext.w	a4,a5
  202e7a:	fec46783          	lwu	a5,-20(s0)
  202e7e:	078a                	slli	a5,a5,0x2
  202e80:	ff040693          	addi	a3,s0,-16
  202e84:	97b6                	add	a5,a5,a3
  202e86:	eee7a423          	sw	a4,-280(a5)
  202e8a:	fec42783          	lw	a5,-20(s0)
  202e8e:	2785                	addiw	a5,a5,1
  202e90:	fef42623          	sw	a5,-20(s0)
  202e94:	fec42783          	lw	a5,-20(s0)
  202e98:	0007871b          	sext.w	a4,a5
  202e9c:	03f00793          	li	a5,63
  202ea0:	fce7f1e3          	bgeu	a5,a4,202e62 <UpdateBadBlockTableForGrownBadBlock+0x26>
  202ea4:	fe042623          	sw	zero,-20(s0)
  202ea8:	a8dd                	j	202f9e <UpdateBadBlockTableForGrownBadBlock+0x162>
  202eaa:	002107b7          	lui	a5,0x210
  202eae:	c287b703          	ld	a4,-984(a5) # 20fc28 <bbtInfoMapPtr>
  202eb2:	fec46783          	lwu	a5,-20(s0)
  202eb6:	078a                	slli	a5,a5,0x2
  202eb8:	97ba                	add	a5,a5,a4
  202eba:	439c                	lw	a5,0(a5)
  202ebc:	0107d79b          	srliw	a5,a5,0x10
  202ec0:	8b85                	andi	a5,a5,1
  202ec2:	0ff7f793          	andi	a5,a5,255
  202ec6:	873e                	mv	a4,a5
  202ec8:	4785                	li	a5,1
  202eca:	0af71d63          	bne	a4,a5,202f84 <UpdateBadBlockTableForGrownBadBlock+0x148>
  202ece:	fe042423          	sw	zero,-24(s0)
  202ed2:	a079                	j	202f60 <UpdateBadBlockTableForGrownBadBlock+0x124>
  202ed4:	fec46783          	lwu	a5,-20(s0)
  202ed8:	078a                	slli	a5,a5,0x2
  202eda:	ff040713          	addi	a4,s0,-16
  202ede:	97ba                	add	a5,a5,a4
  202ee0:	ee87a783          	lw	a5,-280(a5)
  202ee4:	fe842703          	lw	a4,-24(s0)
  202ee8:	9fb9                	addw	a5,a5,a4
  202eea:	2781                	sext.w	a5,a5
  202eec:	1782                	slli	a5,a5,0x20
  202eee:	9381                	srli	a5,a5,0x20
  202ef0:	fcf43c23          	sd	a5,-40(s0)
  202ef4:	002107b7          	lui	a5,0x210
  202ef8:	c287b703          	ld	a4,-984(a5) # 20fc28 <bbtInfoMapPtr>
  202efc:	fec46783          	lwu	a5,-20(s0)
  202f00:	078a                	slli	a5,a5,0x2
  202f02:	97ba                	add	a5,a5,a4
  202f04:	0007d783          	lhu	a5,0(a5)
  202f08:	0007871b          	sext.w	a4,a5
  202f0c:	fe842783          	lw	a5,-24(s0)
  202f10:	2781                	sext.w	a5,a5
  202f12:	02e78e63          	beq	a5,a4,202f4e <UpdateBadBlockTableForGrownBadBlock+0x112>
  202f16:	002107b7          	lui	a5,0x210
  202f1a:	c307b703          	ld	a4,-976(a5) # 20fc30 <phyBlockMapPtr>
  202f1e:	fe846783          	lwu	a5,-24(s0)
  202f22:	fec46603          	lwu	a2,-20(s0)
  202f26:	6689                	lui	a3,0x2
  202f28:	0b068693          	addi	a3,a3,176 # 20b0 <start-0x1fdf50>
  202f2c:	02d606b3          	mul	a3,a2,a3
  202f30:	97b6                	add	a5,a5,a3
  202f32:	078a                	slli	a5,a5,0x2
  202f34:	97ba                	add	a5,a5,a4
  202f36:	439c                	lw	a5,0(a5)
  202f38:	0107d79b          	srliw	a5,a5,0x10
  202f3c:	8b85                	andi	a5,a5,1
  202f3e:	0ff7f793          	andi	a5,a5,255
  202f42:	873e                	mv	a4,a5
  202f44:	fd843783          	ld	a5,-40(s0)
  202f48:	00e78023          	sb	a4,0(a5)
  202f4c:	a029                	j	202f56 <UpdateBadBlockTableForGrownBadBlock+0x11a>
  202f4e:	fd843783          	ld	a5,-40(s0)
  202f52:	00078023          	sb	zero,0(a5)
  202f56:	fe842783          	lw	a5,-24(s0)
  202f5a:	2785                	addiw	a5,a5,1
  202f5c:	fef42423          	sw	a5,-24(s0)
  202f60:	fe842783          	lw	a5,-24(s0)
  202f64:	0007871b          	sext.w	a4,a5
  202f68:	6789                	lui	a5,0x2
  202f6a:	0af78793          	addi	a5,a5,175 # 20af <start-0x1fdf51>
  202f6e:	f6e7f3e3          	bgeu	a5,a4,202ed4 <UpdateBadBlockTableForGrownBadBlock+0x98>
  202f72:	fec46783          	lwu	a5,-20(s0)
  202f76:	ff040713          	addi	a4,s0,-16
  202f7a:	97ba                	add	a5,a5,a4
  202f7c:	470d                	li	a4,3
  202f7e:	eae78423          	sb	a4,-344(a5)
  202f82:	a809                	j	202f94 <UpdateBadBlockTableForGrownBadBlock+0x158>
  202f84:	fec46783          	lwu	a5,-20(s0)
  202f88:	ff040713          	addi	a4,s0,-16
  202f8c:	97ba                	add	a5,a5,a4
  202f8e:	4709                	li	a4,2
  202f90:	eae78423          	sb	a4,-344(a5)
  202f94:	fec42783          	lw	a5,-20(s0)
  202f98:	2785                	addiw	a5,a5,1
  202f9a:	fef42623          	sw	a5,-20(s0)
  202f9e:	fec42783          	lw	a5,-20(s0)
  202fa2:	0007871b          	sext.w	a4,a5
  202fa6:	03f00793          	li	a5,63
  202faa:	f0e7f0e3          	bgeu	a5,a4,202eaa <UpdateBadBlockTableForGrownBadBlock+0x6e>
  202fae:	fe042683          	lw	a3,-32(s0)
  202fb2:	ed840713          	addi	a4,s0,-296
  202fb6:	e9840793          	addi	a5,s0,-360
  202fba:	8636                	mv	a2,a3
  202fbc:	85ba                	mv	a1,a4
  202fbe:	853e                	mv	a0,a5
  202fc0:	bd6fe0ef          	jal	ra,201396 <SaveBadBlockTable>
  202fc4:	0001                	nop
  202fc6:	70f6                	ld	ra,376(sp)
  202fc8:	7456                	ld	s0,368(sp)
  202fca:	6119                	addi	sp,sp,384
  202fcc:	8082                	ret

0000000000202fce <InitReqPool>:
  202fce:	1101                	addi	sp,sp,-32
  202fd0:	ec22                	sd	s0,24(sp)
  202fd2:	1000                	addi	s0,sp,32
  202fd4:	002107b7          	lui	a5,0x210
  202fd8:	38818737          	lui	a4,0x38818
  202fdc:	60070713          	addi	a4,a4,1536 # 38818600 <g_nvmeTask+0x386084b8>
  202fe0:	e4e7b823          	sd	a4,-432(a5) # 20fe50 <reqPoolPtr>
  202fe4:	002107b7          	lui	a5,0x210
  202fe8:	e4079c23          	sh	zero,-424(a5) # 20fe58 <freeReqQ>
  202fec:	002107b7          	lui	a5,0x210
  202ff0:	e5878793          	addi	a5,a5,-424 # 20fe58 <freeReqQ>
  202ff4:	6709                	lui	a4,0x2
  202ff6:	177d                	addi	a4,a4,-1
  202ff8:	00e79123          	sh	a4,2(a5)
  202ffc:	002107b7          	lui	a5,0x210
  203000:	577d                	li	a4,-1
  203002:	c4e79023          	sh	a4,-960(a5) # 20fc40 <sliceReqQ>
  203006:	002107b7          	lui	a5,0x210
  20300a:	c4078793          	addi	a5,a5,-960 # 20fc40 <sliceReqQ>
  20300e:	577d                	li	a4,-1
  203010:	00e79123          	sh	a4,2(a5)
  203014:	002107b7          	lui	a5,0x210
  203018:	c4078793          	addi	a5,a5,-960 # 20fc40 <sliceReqQ>
  20301c:	00079223          	sh	zero,4(a5)
  203020:	002107b7          	lui	a5,0x210
  203024:	577d                	li	a4,-1
  203026:	c4e79423          	sh	a4,-952(a5) # 20fc48 <blockedByBufDepReqQ>
  20302a:	002107b7          	lui	a5,0x210
  20302e:	c4878793          	addi	a5,a5,-952 # 20fc48 <blockedByBufDepReqQ>
  203032:	577d                	li	a4,-1
  203034:	00e79123          	sh	a4,2(a5)
  203038:	002107b7          	lui	a5,0x210
  20303c:	c4878793          	addi	a5,a5,-952 # 20fc48 <blockedByBufDepReqQ>
  203040:	00079223          	sh	zero,4(a5)
  203044:	002107b7          	lui	a5,0x210
  203048:	577d                	li	a4,-1
  20304a:	e6e79023          	sh	a4,-416(a5) # 20fe60 <nvmeDmaReqQ>
  20304e:	002107b7          	lui	a5,0x210
  203052:	e6078793          	addi	a5,a5,-416 # 20fe60 <nvmeDmaReqQ>
  203056:	577d                	li	a4,-1
  203058:	00e79123          	sh	a4,2(a5)
  20305c:	002107b7          	lui	a5,0x210
  203060:	e6078793          	addi	a5,a5,-416 # 20fe60 <nvmeDmaReqQ>
  203064:	00079223          	sh	zero,4(a5)
  203068:	fe042623          	sw	zero,-20(s0)
  20306c:	a8e9                	j	203146 <InitReqPool+0x178>
  20306e:	fe042423          	sw	zero,-24(s0)
  203072:	a875                	j	20312e <InitReqPool+0x160>
  203074:	002107b7          	lui	a5,0x210
  203078:	c5078713          	addi	a4,a5,-944 # 20fc50 <blockedByRowAddrDepReqQ>
  20307c:	fe842783          	lw	a5,-24(s0)
  203080:	fec42683          	lw	a3,-20(s0)
  203084:	068e                	slli	a3,a3,0x3
  203086:	97b6                	add	a5,a5,a3
  203088:	078e                	slli	a5,a5,0x3
  20308a:	97ba                	add	a5,a5,a4
  20308c:	577d                	li	a4,-1
  20308e:	00e79023          	sh	a4,0(a5)
  203092:	002107b7          	lui	a5,0x210
  203096:	c5078713          	addi	a4,a5,-944 # 20fc50 <blockedByRowAddrDepReqQ>
  20309a:	fe842783          	lw	a5,-24(s0)
  20309e:	fec42683          	lw	a3,-20(s0)
  2030a2:	068e                	slli	a3,a3,0x3
  2030a4:	97b6                	add	a5,a5,a3
  2030a6:	078e                	slli	a5,a5,0x3
  2030a8:	97ba                	add	a5,a5,a4
  2030aa:	577d                	li	a4,-1
  2030ac:	00e79123          	sh	a4,2(a5)
  2030b0:	002107b7          	lui	a5,0x210
  2030b4:	c5078713          	addi	a4,a5,-944 # 20fc50 <blockedByRowAddrDepReqQ>
  2030b8:	fe842783          	lw	a5,-24(s0)
  2030bc:	fec42683          	lw	a3,-20(s0)
  2030c0:	068e                	slli	a3,a3,0x3
  2030c2:	97b6                	add	a5,a5,a3
  2030c4:	078e                	slli	a5,a5,0x3
  2030c6:	97ba                	add	a5,a5,a4
  2030c8:	00079223          	sh	zero,4(a5)
  2030cc:	002107b7          	lui	a5,0x210
  2030d0:	e6878713          	addi	a4,a5,-408 # 20fe68 <nandReqQ>
  2030d4:	fe842783          	lw	a5,-24(s0)
  2030d8:	fec42683          	lw	a3,-20(s0)
  2030dc:	068e                	slli	a3,a3,0x3
  2030de:	97b6                	add	a5,a5,a3
  2030e0:	078e                	slli	a5,a5,0x3
  2030e2:	97ba                	add	a5,a5,a4
  2030e4:	577d                	li	a4,-1
  2030e6:	00e79023          	sh	a4,0(a5)
  2030ea:	002107b7          	lui	a5,0x210
  2030ee:	e6878713          	addi	a4,a5,-408 # 20fe68 <nandReqQ>
  2030f2:	fe842783          	lw	a5,-24(s0)
  2030f6:	fec42683          	lw	a3,-20(s0)
  2030fa:	068e                	slli	a3,a3,0x3
  2030fc:	97b6                	add	a5,a5,a3
  2030fe:	078e                	slli	a5,a5,0x3
  203100:	97ba                	add	a5,a5,a4
  203102:	577d                	li	a4,-1
  203104:	00e79123          	sh	a4,2(a5)
  203108:	002107b7          	lui	a5,0x210
  20310c:	e6878713          	addi	a4,a5,-408 # 20fe68 <nandReqQ>
  203110:	fe842783          	lw	a5,-24(s0)
  203114:	fec42683          	lw	a3,-20(s0)
  203118:	068e                	slli	a3,a3,0x3
  20311a:	97b6                	add	a5,a5,a3
  20311c:	078e                	slli	a5,a5,0x3
  20311e:	97ba                	add	a5,a5,a4
  203120:	00079223          	sh	zero,4(a5)
  203124:	fe842783          	lw	a5,-24(s0)
  203128:	2785                	addiw	a5,a5,1
  20312a:	fef42423          	sw	a5,-24(s0)
  20312e:	fe842783          	lw	a5,-24(s0)
  203132:	0007871b          	sext.w	a4,a5
  203136:	479d                	li	a5,7
  203138:	f2e7dee3          	bge	a5,a4,203074 <InitReqPool+0xa6>
  20313c:	fec42783          	lw	a5,-20(s0)
  203140:	2785                	addiw	a5,a5,1
  203142:	fef42623          	sw	a5,-20(s0)
  203146:	fec42783          	lw	a5,-20(s0)
  20314a:	0007871b          	sext.w	a4,a5
  20314e:	479d                	li	a5,7
  203150:	f0e7dfe3          	bge	a5,a4,20306e <InitReqPool+0xa0>
  203154:	fe042223          	sw	zero,-28(s0)
  203158:	a86d                	j	203212 <InitReqPool+0x244>
  20315a:	002107b7          	lui	a5,0x210
  20315e:	e507b703          	ld	a4,-432(a5) # 20fe50 <reqPoolPtr>
  203162:	fe442683          	lw	a3,-28(s0)
  203166:	03400793          	li	a5,52
  20316a:	02f687b3          	mul	a5,a3,a5
  20316e:	97ba                	add	a5,a5,a4
  203170:	4398                	lw	a4,0(a5)
  203172:	f0f77713          	andi	a4,a4,-241
  203176:	01076713          	ori	a4,a4,16
  20317a:	c398                	sw	a4,0(a5)
  20317c:	002107b7          	lui	a5,0x210
  203180:	e507b703          	ld	a4,-432(a5) # 20fe50 <reqPoolPtr>
  203184:	fe442683          	lw	a3,-28(s0)
  203188:	03400793          	li	a5,52
  20318c:	02f687b3          	mul	a5,a3,a5
  203190:	97ba                	add	a5,a5,a4
  203192:	577d                	li	a4,-1
  203194:	02e79823          	sh	a4,48(a5)
  203198:	002107b7          	lui	a5,0x210
  20319c:	e507b703          	ld	a4,-432(a5) # 20fe50 <reqPoolPtr>
  2031a0:	fe442683          	lw	a3,-28(s0)
  2031a4:	03400793          	li	a5,52
  2031a8:	02f687b3          	mul	a5,a3,a5
  2031ac:	97ba                	add	a5,a5,a4
  2031ae:	577d                	li	a4,-1
  2031b0:	02e79923          	sh	a4,50(a5)
  2031b4:	fe442783          	lw	a5,-28(s0)
  2031b8:	17c2                	slli	a5,a5,0x30
  2031ba:	93c1                	srli	a5,a5,0x30
  2031bc:	00210737          	lui	a4,0x210
  2031c0:	e5073683          	ld	a3,-432(a4) # 20fe50 <reqPoolPtr>
  2031c4:	37fd                	addiw	a5,a5,-1
  2031c6:	03079713          	slli	a4,a5,0x30
  2031ca:	9341                	srli	a4,a4,0x30
  2031cc:	fe442603          	lw	a2,-28(s0)
  2031d0:	03400793          	li	a5,52
  2031d4:	02f607b3          	mul	a5,a2,a5
  2031d8:	97b6                	add	a5,a5,a3
  2031da:	02e79623          	sh	a4,44(a5)
  2031de:	fe442783          	lw	a5,-28(s0)
  2031e2:	17c2                	slli	a5,a5,0x30
  2031e4:	93c1                	srli	a5,a5,0x30
  2031e6:	00210737          	lui	a4,0x210
  2031ea:	e5073683          	ld	a3,-432(a4) # 20fe50 <reqPoolPtr>
  2031ee:	2785                	addiw	a5,a5,1
  2031f0:	03079713          	slli	a4,a5,0x30
  2031f4:	9341                	srli	a4,a4,0x30
  2031f6:	fe442603          	lw	a2,-28(s0)
  2031fa:	03400793          	li	a5,52
  2031fe:	02f607b3          	mul	a5,a2,a5
  203202:	97b6                	add	a5,a5,a3
  203204:	02e79723          	sh	a4,46(a5)
  203208:	fe442783          	lw	a5,-28(s0)
  20320c:	2785                	addiw	a5,a5,1
  20320e:	fef42223          	sw	a5,-28(s0)
  203212:	fe442783          	lw	a5,-28(s0)
  203216:	0007871b          	sext.w	a4,a5
  20321a:	6789                	lui	a5,0x2
  20321c:	f2f74fe3          	blt	a4,a5,20315a <InitReqPool+0x18c>
  203220:	002107b7          	lui	a5,0x210
  203224:	e507b783          	ld	a5,-432(a5) # 20fe50 <reqPoolPtr>
  203228:	577d                	li	a4,-1
  20322a:	02e79623          	sh	a4,44(a5)
  20322e:	002107b7          	lui	a5,0x210
  203232:	e507b703          	ld	a4,-432(a5) # 20fe50 <reqPoolPtr>
  203236:	000687b7          	lui	a5,0x68
  20323a:	97ba                	add	a5,a5,a4
  20323c:	577d                	li	a4,-1
  20323e:	fee79d23          	sh	a4,-6(a5) # 67ffa <start-0x198006>
  203242:	002107b7          	lui	a5,0x210
  203246:	e5878793          	addi	a5,a5,-424 # 20fe58 <freeReqQ>
  20324a:	6709                	lui	a4,0x2
  20324c:	00e79223          	sh	a4,4(a5)
  203250:	002107b7          	lui	a5,0x210
  203254:	c207ac23          	sw	zero,-968(a5) # 20fc38 <notCompletedNandReqCnt>
  203258:	002107b7          	lui	a5,0x210
  20325c:	0607a423          	sw	zero,104(a5) # 210068 <blockedReqCnt>
  203260:	0001                	nop
  203262:	6462                	ld	s0,24(sp)
  203264:	6105                	addi	sp,sp,32
  203266:	8082                	ret

0000000000203268 <PutToFreeReqQ>:
  203268:	1101                	addi	sp,sp,-32
  20326a:	ec22                	sd	s0,24(sp)
  20326c:	1000                	addi	s0,sp,32
  20326e:	87aa                	mv	a5,a0
  203270:	fef42623          	sw	a5,-20(s0)
  203274:	002107b7          	lui	a5,0x210
  203278:	e5878793          	addi	a5,a5,-424 # 20fe58 <freeReqQ>
  20327c:	0027d783          	lhu	a5,2(a5)
  203280:	0007871b          	sext.w	a4,a5
  203284:	67c1                	lui	a5,0x10
  203286:	17fd                	addi	a5,a5,-1
  203288:	08f70763          	beq	a4,a5,203316 <PutToFreeReqQ+0xae>
  20328c:	002107b7          	lui	a5,0x210
  203290:	e507b683          	ld	a3,-432(a5) # 20fe50 <reqPoolPtr>
  203294:	002107b7          	lui	a5,0x210
  203298:	e5878793          	addi	a5,a5,-424 # 20fe58 <freeReqQ>
  20329c:	0027d703          	lhu	a4,2(a5)
  2032a0:	fec46603          	lwu	a2,-20(s0)
  2032a4:	03400793          	li	a5,52
  2032a8:	02f607b3          	mul	a5,a2,a5
  2032ac:	97b6                	add	a5,a5,a3
  2032ae:	02e79623          	sh	a4,44(a5)
  2032b2:	002107b7          	lui	a5,0x210
  2032b6:	e507b703          	ld	a4,-432(a5) # 20fe50 <reqPoolPtr>
  2032ba:	fec46683          	lwu	a3,-20(s0)
  2032be:	03400793          	li	a5,52
  2032c2:	02f687b3          	mul	a5,a3,a5
  2032c6:	97ba                	add	a5,a5,a4
  2032c8:	577d                	li	a4,-1
  2032ca:	02e79723          	sh	a4,46(a5)
  2032ce:	002107b7          	lui	a5,0x210
  2032d2:	e507b683          	ld	a3,-432(a5) # 20fe50 <reqPoolPtr>
  2032d6:	002107b7          	lui	a5,0x210
  2032da:	e5878793          	addi	a5,a5,-424 # 20fe58 <freeReqQ>
  2032de:	0027d783          	lhu	a5,2(a5)
  2032e2:	0007861b          	sext.w	a2,a5
  2032e6:	fec42783          	lw	a5,-20(s0)
  2032ea:	03079713          	slli	a4,a5,0x30
  2032ee:	9341                	srli	a4,a4,0x30
  2032f0:	03400793          	li	a5,52
  2032f4:	02f607b3          	mul	a5,a2,a5
  2032f8:	97b6                	add	a5,a5,a3
  2032fa:	02e79723          	sh	a4,46(a5)
  2032fe:	fec42783          	lw	a5,-20(s0)
  203302:	03079713          	slli	a4,a5,0x30
  203306:	9341                	srli	a4,a4,0x30
  203308:	002107b7          	lui	a5,0x210
  20330c:	e5878793          	addi	a5,a5,-424 # 20fe58 <freeReqQ>
  203310:	00e79123          	sh	a4,2(a5)
  203314:	a08d                	j	203376 <PutToFreeReqQ+0x10e>
  203316:	002107b7          	lui	a5,0x210
  20331a:	e507b703          	ld	a4,-432(a5) # 20fe50 <reqPoolPtr>
  20331e:	fec46683          	lwu	a3,-20(s0)
  203322:	03400793          	li	a5,52
  203326:	02f687b3          	mul	a5,a3,a5
  20332a:	97ba                	add	a5,a5,a4
  20332c:	577d                	li	a4,-1
  20332e:	02e79623          	sh	a4,44(a5)
  203332:	002107b7          	lui	a5,0x210
  203336:	e507b703          	ld	a4,-432(a5) # 20fe50 <reqPoolPtr>
  20333a:	fec46683          	lwu	a3,-20(s0)
  20333e:	03400793          	li	a5,52
  203342:	02f687b3          	mul	a5,a3,a5
  203346:	97ba                	add	a5,a5,a4
  203348:	577d                	li	a4,-1
  20334a:	02e79723          	sh	a4,46(a5)
  20334e:	fec42783          	lw	a5,-20(s0)
  203352:	03079713          	slli	a4,a5,0x30
  203356:	9341                	srli	a4,a4,0x30
  203358:	002107b7          	lui	a5,0x210
  20335c:	e4e79c23          	sh	a4,-424(a5) # 20fe58 <freeReqQ>
  203360:	fec42783          	lw	a5,-20(s0)
  203364:	03079713          	slli	a4,a5,0x30
  203368:	9341                	srli	a4,a4,0x30
  20336a:	002107b7          	lui	a5,0x210
  20336e:	e5878793          	addi	a5,a5,-424 # 20fe58 <freeReqQ>
  203372:	00e79123          	sh	a4,2(a5)
  203376:	002107b7          	lui	a5,0x210
  20337a:	e507b703          	ld	a4,-432(a5) # 20fe50 <reqPoolPtr>
  20337e:	fec46683          	lwu	a3,-20(s0)
  203382:	03400793          	li	a5,52
  203386:	02f687b3          	mul	a5,a3,a5
  20338a:	97ba                	add	a5,a5,a4
  20338c:	4398                	lw	a4,0(a5)
  20338e:	f0f77713          	andi	a4,a4,-241
  203392:	01076713          	ori	a4,a4,16
  203396:	c398                	sw	a4,0(a5)
  203398:	002107b7          	lui	a5,0x210
  20339c:	e5878793          	addi	a5,a5,-424 # 20fe58 <freeReqQ>
  2033a0:	0047d783          	lhu	a5,4(a5)
  2033a4:	2785                	addiw	a5,a5,1
  2033a6:	03079713          	slli	a4,a5,0x30
  2033aa:	9341                	srli	a4,a4,0x30
  2033ac:	002107b7          	lui	a5,0x210
  2033b0:	e5878793          	addi	a5,a5,-424 # 20fe58 <freeReqQ>
  2033b4:	00e79223          	sh	a4,4(a5)
  2033b8:	0001                	nop
  2033ba:	6462                	ld	s0,24(sp)
  2033bc:	6105                	addi	sp,sp,32
  2033be:	8082                	ret

00000000002033c0 <GetFromFreeReqQ>:
  2033c0:	1101                	addi	sp,sp,-32
  2033c2:	ec06                	sd	ra,24(sp)
  2033c4:	e822                	sd	s0,16(sp)
  2033c6:	1000                	addi	s0,sp,32
  2033c8:	002107b7          	lui	a5,0x210
  2033cc:	e587d783          	lhu	a5,-424(a5) # 20fe58 <freeReqQ>
  2033d0:	fef42623          	sw	a5,-20(s0)
  2033d4:	fec42783          	lw	a5,-20(s0)
  2033d8:	0007871b          	sext.w	a4,a5
  2033dc:	67c1                	lui	a5,0x10
  2033de:	17fd                	addi	a5,a5,-1
  2033e0:	00f71a63          	bne	a4,a5,2033f4 <GetFromFreeReqQ+0x34>
  2033e4:	292020ef          	jal	ra,205676 <SyncAvailFreeReq>
  2033e8:	002107b7          	lui	a5,0x210
  2033ec:	e587d783          	lhu	a5,-424(a5) # 20fe58 <freeReqQ>
  2033f0:	fef42623          	sw	a5,-20(s0)
  2033f4:	002107b7          	lui	a5,0x210
  2033f8:	e507b703          	ld	a4,-432(a5) # 20fe50 <reqPoolPtr>
  2033fc:	fec46683          	lwu	a3,-20(s0)
  203400:	03400793          	li	a5,52
  203404:	02f687b3          	mul	a5,a3,a5
  203408:	97ba                	add	a5,a5,a4
  20340a:	02e7d783          	lhu	a5,46(a5)
  20340e:	0007871b          	sext.w	a4,a5
  203412:	67c1                	lui	a5,0x10
  203414:	17fd                	addi	a5,a5,-1
  203416:	04f70f63          	beq	a4,a5,203474 <GetFromFreeReqQ+0xb4>
  20341a:	002107b7          	lui	a5,0x210
  20341e:	e507b703          	ld	a4,-432(a5) # 20fe50 <reqPoolPtr>
  203422:	fec46683          	lwu	a3,-20(s0)
  203426:	03400793          	li	a5,52
  20342a:	02f687b3          	mul	a5,a3,a5
  20342e:	97ba                	add	a5,a5,a4
  203430:	02e7d703          	lhu	a4,46(a5)
  203434:	002107b7          	lui	a5,0x210
  203438:	e4e79c23          	sh	a4,-424(a5) # 20fe58 <freeReqQ>
  20343c:	002107b7          	lui	a5,0x210
  203440:	e507b703          	ld	a4,-432(a5) # 20fe50 <reqPoolPtr>
  203444:	002107b7          	lui	a5,0x210
  203448:	e507b683          	ld	a3,-432(a5) # 20fe50 <reqPoolPtr>
  20344c:	fec46603          	lwu	a2,-20(s0)
  203450:	03400793          	li	a5,52
  203454:	02f607b3          	mul	a5,a2,a5
  203458:	97b6                	add	a5,a5,a3
  20345a:	02e7d783          	lhu	a5,46(a5)
  20345e:	0007869b          	sext.w	a3,a5
  203462:	03400793          	li	a5,52
  203466:	02f687b3          	mul	a5,a3,a5
  20346a:	97ba                	add	a5,a5,a4
  20346c:	577d                	li	a4,-1
  20346e:	02e79623          	sh	a4,44(a5)
  203472:	a829                	j	20348c <GetFromFreeReqQ+0xcc>
  203474:	002107b7          	lui	a5,0x210
  203478:	577d                	li	a4,-1
  20347a:	e4e79c23          	sh	a4,-424(a5) # 20fe58 <freeReqQ>
  20347e:	002107b7          	lui	a5,0x210
  203482:	e5878793          	addi	a5,a5,-424 # 20fe58 <freeReqQ>
  203486:	577d                	li	a4,-1
  203488:	00e79123          	sh	a4,2(a5)
  20348c:	002107b7          	lui	a5,0x210
  203490:	e507b703          	ld	a4,-432(a5) # 20fe50 <reqPoolPtr>
  203494:	fec46683          	lwu	a3,-20(s0)
  203498:	03400793          	li	a5,52
  20349c:	02f687b3          	mul	a5,a3,a5
  2034a0:	97ba                	add	a5,a5,a4
  2034a2:	4398                	lw	a4,0(a5)
  2034a4:	f0f77713          	andi	a4,a4,-241
  2034a8:	c398                	sw	a4,0(a5)
  2034aa:	002107b7          	lui	a5,0x210
  2034ae:	e5878793          	addi	a5,a5,-424 # 20fe58 <freeReqQ>
  2034b2:	0047d783          	lhu	a5,4(a5)
  2034b6:	37fd                	addiw	a5,a5,-1
  2034b8:	03079713          	slli	a4,a5,0x30
  2034bc:	9341                	srli	a4,a4,0x30
  2034be:	002107b7          	lui	a5,0x210
  2034c2:	e5878793          	addi	a5,a5,-424 # 20fe58 <freeReqQ>
  2034c6:	00e79223          	sh	a4,4(a5)
  2034ca:	fec42783          	lw	a5,-20(s0)
  2034ce:	853e                	mv	a0,a5
  2034d0:	60e2                	ld	ra,24(sp)
  2034d2:	6442                	ld	s0,16(sp)
  2034d4:	6105                	addi	sp,sp,32
  2034d6:	8082                	ret

00000000002034d8 <PutToSliceReqQ>:
  2034d8:	1101                	addi	sp,sp,-32
  2034da:	ec22                	sd	s0,24(sp)
  2034dc:	1000                	addi	s0,sp,32
  2034de:	87aa                	mv	a5,a0
  2034e0:	fef42623          	sw	a5,-20(s0)
  2034e4:	002107b7          	lui	a5,0x210
  2034e8:	c4078793          	addi	a5,a5,-960 # 20fc40 <sliceReqQ>
  2034ec:	0027d783          	lhu	a5,2(a5)
  2034f0:	0007871b          	sext.w	a4,a5
  2034f4:	67c1                	lui	a5,0x10
  2034f6:	17fd                	addi	a5,a5,-1
  2034f8:	08f70763          	beq	a4,a5,203586 <PutToSliceReqQ+0xae>
  2034fc:	002107b7          	lui	a5,0x210
  203500:	e507b683          	ld	a3,-432(a5) # 20fe50 <reqPoolPtr>
  203504:	002107b7          	lui	a5,0x210
  203508:	c4078793          	addi	a5,a5,-960 # 20fc40 <sliceReqQ>
  20350c:	0027d703          	lhu	a4,2(a5)
  203510:	fec46603          	lwu	a2,-20(s0)
  203514:	03400793          	li	a5,52
  203518:	02f607b3          	mul	a5,a2,a5
  20351c:	97b6                	add	a5,a5,a3
  20351e:	02e79623          	sh	a4,44(a5)
  203522:	002107b7          	lui	a5,0x210
  203526:	e507b703          	ld	a4,-432(a5) # 20fe50 <reqPoolPtr>
  20352a:	fec46683          	lwu	a3,-20(s0)
  20352e:	03400793          	li	a5,52
  203532:	02f687b3          	mul	a5,a3,a5
  203536:	97ba                	add	a5,a5,a4
  203538:	577d                	li	a4,-1
  20353a:	02e79723          	sh	a4,46(a5)
  20353e:	002107b7          	lui	a5,0x210
  203542:	e507b683          	ld	a3,-432(a5) # 20fe50 <reqPoolPtr>
  203546:	002107b7          	lui	a5,0x210
  20354a:	c4078793          	addi	a5,a5,-960 # 20fc40 <sliceReqQ>
  20354e:	0027d783          	lhu	a5,2(a5)
  203552:	0007861b          	sext.w	a2,a5
  203556:	fec42783          	lw	a5,-20(s0)
  20355a:	03079713          	slli	a4,a5,0x30
  20355e:	9341                	srli	a4,a4,0x30
  203560:	03400793          	li	a5,52
  203564:	02f607b3          	mul	a5,a2,a5
  203568:	97b6                	add	a5,a5,a3
  20356a:	02e79723          	sh	a4,46(a5)
  20356e:	fec42783          	lw	a5,-20(s0)
  203572:	03079713          	slli	a4,a5,0x30
  203576:	9341                	srli	a4,a4,0x30
  203578:	002107b7          	lui	a5,0x210
  20357c:	c4078793          	addi	a5,a5,-960 # 20fc40 <sliceReqQ>
  203580:	00e79123          	sh	a4,2(a5)
  203584:	a08d                	j	2035e6 <PutToSliceReqQ+0x10e>
  203586:	002107b7          	lui	a5,0x210
  20358a:	e507b703          	ld	a4,-432(a5) # 20fe50 <reqPoolPtr>
  20358e:	fec46683          	lwu	a3,-20(s0)
  203592:	03400793          	li	a5,52
  203596:	02f687b3          	mul	a5,a3,a5
  20359a:	97ba                	add	a5,a5,a4
  20359c:	577d                	li	a4,-1
  20359e:	02e79623          	sh	a4,44(a5)
  2035a2:	002107b7          	lui	a5,0x210
  2035a6:	e507b703          	ld	a4,-432(a5) # 20fe50 <reqPoolPtr>
  2035aa:	fec46683          	lwu	a3,-20(s0)
  2035ae:	03400793          	li	a5,52
  2035b2:	02f687b3          	mul	a5,a3,a5
  2035b6:	97ba                	add	a5,a5,a4
  2035b8:	577d                	li	a4,-1
  2035ba:	02e79723          	sh	a4,46(a5)
  2035be:	fec42783          	lw	a5,-20(s0)
  2035c2:	03079713          	slli	a4,a5,0x30
  2035c6:	9341                	srli	a4,a4,0x30
  2035c8:	002107b7          	lui	a5,0x210
  2035cc:	c4e79023          	sh	a4,-960(a5) # 20fc40 <sliceReqQ>
  2035d0:	fec42783          	lw	a5,-20(s0)
  2035d4:	03079713          	slli	a4,a5,0x30
  2035d8:	9341                	srli	a4,a4,0x30
  2035da:	002107b7          	lui	a5,0x210
  2035de:	c4078793          	addi	a5,a5,-960 # 20fc40 <sliceReqQ>
  2035e2:	00e79123          	sh	a4,2(a5)
  2035e6:	002107b7          	lui	a5,0x210
  2035ea:	e507b703          	ld	a4,-432(a5) # 20fe50 <reqPoolPtr>
  2035ee:	fec46683          	lwu	a3,-20(s0)
  2035f2:	03400793          	li	a5,52
  2035f6:	02f687b3          	mul	a5,a3,a5
  2035fa:	97ba                	add	a5,a5,a4
  2035fc:	4398                	lw	a4,0(a5)
  2035fe:	f0f77713          	andi	a4,a4,-241
  203602:	02076713          	ori	a4,a4,32
  203606:	c398                	sw	a4,0(a5)
  203608:	002107b7          	lui	a5,0x210
  20360c:	c4078793          	addi	a5,a5,-960 # 20fc40 <sliceReqQ>
  203610:	0047d783          	lhu	a5,4(a5)
  203614:	2785                	addiw	a5,a5,1
  203616:	03079713          	slli	a4,a5,0x30
  20361a:	9341                	srli	a4,a4,0x30
  20361c:	002107b7          	lui	a5,0x210
  203620:	c4078793          	addi	a5,a5,-960 # 20fc40 <sliceReqQ>
  203624:	00e79223          	sh	a4,4(a5)
  203628:	0001                	nop
  20362a:	6462                	ld	s0,24(sp)
  20362c:	6105                	addi	sp,sp,32
  20362e:	8082                	ret

0000000000203630 <GetFromSliceReqQ>:
  203630:	1101                	addi	sp,sp,-32
  203632:	ec22                	sd	s0,24(sp)
  203634:	1000                	addi	s0,sp,32
  203636:	002107b7          	lui	a5,0x210
  20363a:	c407d783          	lhu	a5,-960(a5) # 20fc40 <sliceReqQ>
  20363e:	fef42623          	sw	a5,-20(s0)
  203642:	fec42783          	lw	a5,-20(s0)
  203646:	0007871b          	sext.w	a4,a5
  20364a:	67c1                	lui	a5,0x10
  20364c:	17fd                	addi	a5,a5,-1
  20364e:	00f71563          	bne	a4,a5,203658 <GetFromSliceReqQ+0x28>
  203652:	67c1                	lui	a5,0x10
  203654:	17fd                	addi	a5,a5,-1
  203656:	a8f1                	j	203732 <GetFromSliceReqQ+0x102>
  203658:	002107b7          	lui	a5,0x210
  20365c:	e507b703          	ld	a4,-432(a5) # 20fe50 <reqPoolPtr>
  203660:	fec46683          	lwu	a3,-20(s0)
  203664:	03400793          	li	a5,52
  203668:	02f687b3          	mul	a5,a3,a5
  20366c:	97ba                	add	a5,a5,a4
  20366e:	02e7d783          	lhu	a5,46(a5)
  203672:	0007871b          	sext.w	a4,a5
  203676:	67c1                	lui	a5,0x10
  203678:	17fd                	addi	a5,a5,-1
  20367a:	04f70f63          	beq	a4,a5,2036d8 <GetFromSliceReqQ+0xa8>
  20367e:	002107b7          	lui	a5,0x210
  203682:	e507b703          	ld	a4,-432(a5) # 20fe50 <reqPoolPtr>
  203686:	fec46683          	lwu	a3,-20(s0)
  20368a:	03400793          	li	a5,52
  20368e:	02f687b3          	mul	a5,a3,a5
  203692:	97ba                	add	a5,a5,a4
  203694:	02e7d703          	lhu	a4,46(a5)
  203698:	002107b7          	lui	a5,0x210
  20369c:	c4e79023          	sh	a4,-960(a5) # 20fc40 <sliceReqQ>
  2036a0:	002107b7          	lui	a5,0x210
  2036a4:	e507b703          	ld	a4,-432(a5) # 20fe50 <reqPoolPtr>
  2036a8:	002107b7          	lui	a5,0x210
  2036ac:	e507b683          	ld	a3,-432(a5) # 20fe50 <reqPoolPtr>
  2036b0:	fec46603          	lwu	a2,-20(s0)
  2036b4:	03400793          	li	a5,52
  2036b8:	02f607b3          	mul	a5,a2,a5
  2036bc:	97b6                	add	a5,a5,a3
  2036be:	02e7d783          	lhu	a5,46(a5)
  2036c2:	0007869b          	sext.w	a3,a5
  2036c6:	03400793          	li	a5,52
  2036ca:	02f687b3          	mul	a5,a3,a5
  2036ce:	97ba                	add	a5,a5,a4
  2036d0:	577d                	li	a4,-1
  2036d2:	02e79623          	sh	a4,44(a5)
  2036d6:	a829                	j	2036f0 <GetFromSliceReqQ+0xc0>
  2036d8:	002107b7          	lui	a5,0x210
  2036dc:	577d                	li	a4,-1
  2036de:	c4e79023          	sh	a4,-960(a5) # 20fc40 <sliceReqQ>
  2036e2:	002107b7          	lui	a5,0x210
  2036e6:	c4078793          	addi	a5,a5,-960 # 20fc40 <sliceReqQ>
  2036ea:	577d                	li	a4,-1
  2036ec:	00e79123          	sh	a4,2(a5)
  2036f0:	002107b7          	lui	a5,0x210
  2036f4:	e507b703          	ld	a4,-432(a5) # 20fe50 <reqPoolPtr>
  2036f8:	fec46683          	lwu	a3,-20(s0)
  2036fc:	03400793          	li	a5,52
  203700:	02f687b3          	mul	a5,a3,a5
  203704:	97ba                	add	a5,a5,a4
  203706:	4398                	lw	a4,0(a5)
  203708:	f0f77713          	andi	a4,a4,-241
  20370c:	c398                	sw	a4,0(a5)
  20370e:	002107b7          	lui	a5,0x210
  203712:	c4078793          	addi	a5,a5,-960 # 20fc40 <sliceReqQ>
  203716:	0047d783          	lhu	a5,4(a5)
  20371a:	37fd                	addiw	a5,a5,-1
  20371c:	03079713          	slli	a4,a5,0x30
  203720:	9341                	srli	a4,a4,0x30
  203722:	002107b7          	lui	a5,0x210
  203726:	c4078793          	addi	a5,a5,-960 # 20fc40 <sliceReqQ>
  20372a:	00e79223          	sh	a4,4(a5)
  20372e:	fec42783          	lw	a5,-20(s0)
  203732:	853e                	mv	a0,a5
  203734:	6462                	ld	s0,24(sp)
  203736:	6105                	addi	sp,sp,32
  203738:	8082                	ret

000000000020373a <PutToBlockedByBufDepReqQ>:
  20373a:	1101                	addi	sp,sp,-32
  20373c:	ec22                	sd	s0,24(sp)
  20373e:	1000                	addi	s0,sp,32
  203740:	87aa                	mv	a5,a0
  203742:	fef42623          	sw	a5,-20(s0)
  203746:	002107b7          	lui	a5,0x210
  20374a:	c4878793          	addi	a5,a5,-952 # 20fc48 <blockedByBufDepReqQ>
  20374e:	0027d783          	lhu	a5,2(a5)
  203752:	0007871b          	sext.w	a4,a5
  203756:	67c1                	lui	a5,0x10
  203758:	17fd                	addi	a5,a5,-1
  20375a:	08f70763          	beq	a4,a5,2037e8 <PutToBlockedByBufDepReqQ+0xae>
  20375e:	002107b7          	lui	a5,0x210
  203762:	e507b683          	ld	a3,-432(a5) # 20fe50 <reqPoolPtr>
  203766:	002107b7          	lui	a5,0x210
  20376a:	c4878793          	addi	a5,a5,-952 # 20fc48 <blockedByBufDepReqQ>
  20376e:	0027d703          	lhu	a4,2(a5)
  203772:	fec46603          	lwu	a2,-20(s0)
  203776:	03400793          	li	a5,52
  20377a:	02f607b3          	mul	a5,a2,a5
  20377e:	97b6                	add	a5,a5,a3
  203780:	02e79623          	sh	a4,44(a5)
  203784:	002107b7          	lui	a5,0x210
  203788:	e507b703          	ld	a4,-432(a5) # 20fe50 <reqPoolPtr>
  20378c:	fec46683          	lwu	a3,-20(s0)
  203790:	03400793          	li	a5,52
  203794:	02f687b3          	mul	a5,a3,a5
  203798:	97ba                	add	a5,a5,a4
  20379a:	577d                	li	a4,-1
  20379c:	02e79723          	sh	a4,46(a5)
  2037a0:	002107b7          	lui	a5,0x210
  2037a4:	e507b683          	ld	a3,-432(a5) # 20fe50 <reqPoolPtr>
  2037a8:	002107b7          	lui	a5,0x210
  2037ac:	c4878793          	addi	a5,a5,-952 # 20fc48 <blockedByBufDepReqQ>
  2037b0:	0027d783          	lhu	a5,2(a5)
  2037b4:	0007861b          	sext.w	a2,a5
  2037b8:	fec42783          	lw	a5,-20(s0)
  2037bc:	03079713          	slli	a4,a5,0x30
  2037c0:	9341                	srli	a4,a4,0x30
  2037c2:	03400793          	li	a5,52
  2037c6:	02f607b3          	mul	a5,a2,a5
  2037ca:	97b6                	add	a5,a5,a3
  2037cc:	02e79723          	sh	a4,46(a5)
  2037d0:	fec42783          	lw	a5,-20(s0)
  2037d4:	03079713          	slli	a4,a5,0x30
  2037d8:	9341                	srli	a4,a4,0x30
  2037da:	002107b7          	lui	a5,0x210
  2037de:	c4878793          	addi	a5,a5,-952 # 20fc48 <blockedByBufDepReqQ>
  2037e2:	00e79123          	sh	a4,2(a5)
  2037e6:	a08d                	j	203848 <PutToBlockedByBufDepReqQ+0x10e>
  2037e8:	002107b7          	lui	a5,0x210
  2037ec:	e507b703          	ld	a4,-432(a5) # 20fe50 <reqPoolPtr>
  2037f0:	fec46683          	lwu	a3,-20(s0)
  2037f4:	03400793          	li	a5,52
  2037f8:	02f687b3          	mul	a5,a3,a5
  2037fc:	97ba                	add	a5,a5,a4
  2037fe:	577d                	li	a4,-1
  203800:	02e79623          	sh	a4,44(a5)
  203804:	002107b7          	lui	a5,0x210
  203808:	e507b703          	ld	a4,-432(a5) # 20fe50 <reqPoolPtr>
  20380c:	fec46683          	lwu	a3,-20(s0)
  203810:	03400793          	li	a5,52
  203814:	02f687b3          	mul	a5,a3,a5
  203818:	97ba                	add	a5,a5,a4
  20381a:	577d                	li	a4,-1
  20381c:	02e79723          	sh	a4,46(a5)
  203820:	fec42783          	lw	a5,-20(s0)
  203824:	03079713          	slli	a4,a5,0x30
  203828:	9341                	srli	a4,a4,0x30
  20382a:	002107b7          	lui	a5,0x210
  20382e:	c4e79423          	sh	a4,-952(a5) # 20fc48 <blockedByBufDepReqQ>
  203832:	fec42783          	lw	a5,-20(s0)
  203836:	03079713          	slli	a4,a5,0x30
  20383a:	9341                	srli	a4,a4,0x30
  20383c:	002107b7          	lui	a5,0x210
  203840:	c4878793          	addi	a5,a5,-952 # 20fc48 <blockedByBufDepReqQ>
  203844:	00e79123          	sh	a4,2(a5)
  203848:	002107b7          	lui	a5,0x210
  20384c:	e507b703          	ld	a4,-432(a5) # 20fe50 <reqPoolPtr>
  203850:	fec46683          	lwu	a3,-20(s0)
  203854:	03400793          	li	a5,52
  203858:	02f687b3          	mul	a5,a3,a5
  20385c:	97ba                	add	a5,a5,a4
  20385e:	4398                	lw	a4,0(a5)
  203860:	f0f77713          	andi	a4,a4,-241
  203864:	03076713          	ori	a4,a4,48
  203868:	c398                	sw	a4,0(a5)
  20386a:	002107b7          	lui	a5,0x210
  20386e:	c4878793          	addi	a5,a5,-952 # 20fc48 <blockedByBufDepReqQ>
  203872:	0047d783          	lhu	a5,4(a5)
  203876:	2785                	addiw	a5,a5,1
  203878:	03079713          	slli	a4,a5,0x30
  20387c:	9341                	srli	a4,a4,0x30
  20387e:	002107b7          	lui	a5,0x210
  203882:	c4878793          	addi	a5,a5,-952 # 20fc48 <blockedByBufDepReqQ>
  203886:	00e79223          	sh	a4,4(a5)
  20388a:	002107b7          	lui	a5,0x210
  20388e:	0687a783          	lw	a5,104(a5) # 210068 <blockedReqCnt>
  203892:	2785                	addiw	a5,a5,1
  203894:	0007871b          	sext.w	a4,a5
  203898:	002107b7          	lui	a5,0x210
  20389c:	06e7a423          	sw	a4,104(a5) # 210068 <blockedReqCnt>
  2038a0:	0001                	nop
  2038a2:	6462                	ld	s0,24(sp)
  2038a4:	6105                	addi	sp,sp,32
  2038a6:	8082                	ret

00000000002038a8 <SelectiveGetFromBlockedByBufDepReqQ>:
  2038a8:	7179                	addi	sp,sp,-48
  2038aa:	f406                	sd	ra,40(sp)
  2038ac:	f022                	sd	s0,32(sp)
  2038ae:	1800                	addi	s0,sp,48
  2038b0:	87aa                	mv	a5,a0
  2038b2:	fcf42e23          	sw	a5,-36(s0)
  2038b6:	fdc42783          	lw	a5,-36(s0)
  2038ba:	0007871b          	sext.w	a4,a5
  2038be:	67c1                	lui	a5,0x10
  2038c0:	17fd                	addi	a5,a5,-1
  2038c2:	00f71863          	bne	a4,a5,2038d2 <SelectiveGetFromBlockedByBufDepReqQ+0x2a>
  2038c6:	0020f7b7          	lui	a5,0x20f
  2038ca:	15878513          	addi	a0,a5,344 # 20f158 <nvme_main+0x7e0>
  2038ce:	54b000ef          	jal	ra,204618 <cpl_print>
  2038d2:	002107b7          	lui	a5,0x210
  2038d6:	e507b703          	ld	a4,-432(a5) # 20fe50 <reqPoolPtr>
  2038da:	fdc46683          	lwu	a3,-36(s0)
  2038de:	03400793          	li	a5,52
  2038e2:	02f687b3          	mul	a5,a3,a5
  2038e6:	97ba                	add	a5,a5,a4
  2038e8:	02c7d783          	lhu	a5,44(a5)
  2038ec:	fef42623          	sw	a5,-20(s0)
  2038f0:	002107b7          	lui	a5,0x210
  2038f4:	e507b703          	ld	a4,-432(a5) # 20fe50 <reqPoolPtr>
  2038f8:	fdc46683          	lwu	a3,-36(s0)
  2038fc:	03400793          	li	a5,52
  203900:	02f687b3          	mul	a5,a3,a5
  203904:	97ba                	add	a5,a5,a4
  203906:	02e7d783          	lhu	a5,46(a5)
  20390a:	fef42423          	sw	a5,-24(s0)
  20390e:	fe842783          	lw	a5,-24(s0)
  203912:	0007871b          	sext.w	a4,a5
  203916:	67c1                	lui	a5,0x10
  203918:	17fd                	addi	a5,a5,-1
  20391a:	04f70f63          	beq	a4,a5,203978 <SelectiveGetFromBlockedByBufDepReqQ+0xd0>
  20391e:	fec42783          	lw	a5,-20(s0)
  203922:	0007871b          	sext.w	a4,a5
  203926:	67c1                	lui	a5,0x10
  203928:	17fd                	addi	a5,a5,-1
  20392a:	04f70763          	beq	a4,a5,203978 <SelectiveGetFromBlockedByBufDepReqQ+0xd0>
  20392e:	002107b7          	lui	a5,0x210
  203932:	e507b683          	ld	a3,-432(a5) # 20fe50 <reqPoolPtr>
  203936:	fe842783          	lw	a5,-24(s0)
  20393a:	03079713          	slli	a4,a5,0x30
  20393e:	9341                	srli	a4,a4,0x30
  203940:	fec46603          	lwu	a2,-20(s0)
  203944:	03400793          	li	a5,52
  203948:	02f607b3          	mul	a5,a2,a5
  20394c:	97b6                	add	a5,a5,a3
  20394e:	02e79723          	sh	a4,46(a5)
  203952:	002107b7          	lui	a5,0x210
  203956:	e507b683          	ld	a3,-432(a5) # 20fe50 <reqPoolPtr>
  20395a:	fec42783          	lw	a5,-20(s0)
  20395e:	03079713          	slli	a4,a5,0x30
  203962:	9341                	srli	a4,a4,0x30
  203964:	fe846603          	lwu	a2,-24(s0)
  203968:	03400793          	li	a5,52
  20396c:	02f607b3          	mul	a5,a2,a5
  203970:	97b6                	add	a5,a5,a3
  203972:	02e79623          	sh	a4,44(a5)
  203976:	a87d                	j	203a34 <SelectiveGetFromBlockedByBufDepReqQ+0x18c>
  203978:	fe842783          	lw	a5,-24(s0)
  20397c:	0007871b          	sext.w	a4,a5
  203980:	67c1                	lui	a5,0x10
  203982:	17fd                	addi	a5,a5,-1
  203984:	04f71463          	bne	a4,a5,2039cc <SelectiveGetFromBlockedByBufDepReqQ+0x124>
  203988:	fec42783          	lw	a5,-20(s0)
  20398c:	0007871b          	sext.w	a4,a5
  203990:	67c1                	lui	a5,0x10
  203992:	17fd                	addi	a5,a5,-1
  203994:	02f70c63          	beq	a4,a5,2039cc <SelectiveGetFromBlockedByBufDepReqQ+0x124>
  203998:	002107b7          	lui	a5,0x210
  20399c:	e507b703          	ld	a4,-432(a5) # 20fe50 <reqPoolPtr>
  2039a0:	fec46683          	lwu	a3,-20(s0)
  2039a4:	03400793          	li	a5,52
  2039a8:	02f687b3          	mul	a5,a3,a5
  2039ac:	97ba                	add	a5,a5,a4
  2039ae:	577d                	li	a4,-1
  2039b0:	02e79723          	sh	a4,46(a5)
  2039b4:	fec42783          	lw	a5,-20(s0)
  2039b8:	03079713          	slli	a4,a5,0x30
  2039bc:	9341                	srli	a4,a4,0x30
  2039be:	002107b7          	lui	a5,0x210
  2039c2:	c4878793          	addi	a5,a5,-952 # 20fc48 <blockedByBufDepReqQ>
  2039c6:	00e79123          	sh	a4,2(a5)
  2039ca:	a0ad                	j	203a34 <SelectiveGetFromBlockedByBufDepReqQ+0x18c>
  2039cc:	fe842783          	lw	a5,-24(s0)
  2039d0:	0007871b          	sext.w	a4,a5
  2039d4:	67c1                	lui	a5,0x10
  2039d6:	17fd                	addi	a5,a5,-1
  2039d8:	04f70263          	beq	a4,a5,203a1c <SelectiveGetFromBlockedByBufDepReqQ+0x174>
  2039dc:	fec42783          	lw	a5,-20(s0)
  2039e0:	0007871b          	sext.w	a4,a5
  2039e4:	67c1                	lui	a5,0x10
  2039e6:	17fd                	addi	a5,a5,-1
  2039e8:	02f71a63          	bne	a4,a5,203a1c <SelectiveGetFromBlockedByBufDepReqQ+0x174>
  2039ec:	002107b7          	lui	a5,0x210
  2039f0:	e507b703          	ld	a4,-432(a5) # 20fe50 <reqPoolPtr>
  2039f4:	fe846683          	lwu	a3,-24(s0)
  2039f8:	03400793          	li	a5,52
  2039fc:	02f687b3          	mul	a5,a3,a5
  203a00:	97ba                	add	a5,a5,a4
  203a02:	577d                	li	a4,-1
  203a04:	02e79623          	sh	a4,44(a5)
  203a08:	fe842783          	lw	a5,-24(s0)
  203a0c:	03079713          	slli	a4,a5,0x30
  203a10:	9341                	srli	a4,a4,0x30
  203a12:	002107b7          	lui	a5,0x210
  203a16:	c4e79423          	sh	a4,-952(a5) # 20fc48 <blockedByBufDepReqQ>
  203a1a:	a829                	j	203a34 <SelectiveGetFromBlockedByBufDepReqQ+0x18c>
  203a1c:	002107b7          	lui	a5,0x210
  203a20:	577d                	li	a4,-1
  203a22:	c4e79423          	sh	a4,-952(a5) # 20fc48 <blockedByBufDepReqQ>
  203a26:	002107b7          	lui	a5,0x210
  203a2a:	c4878793          	addi	a5,a5,-952 # 20fc48 <blockedByBufDepReqQ>
  203a2e:	577d                	li	a4,-1
  203a30:	00e79123          	sh	a4,2(a5)
  203a34:	002107b7          	lui	a5,0x210
  203a38:	e507b703          	ld	a4,-432(a5) # 20fe50 <reqPoolPtr>
  203a3c:	fdc46683          	lwu	a3,-36(s0)
  203a40:	03400793          	li	a5,52
  203a44:	02f687b3          	mul	a5,a3,a5
  203a48:	97ba                	add	a5,a5,a4
  203a4a:	4398                	lw	a4,0(a5)
  203a4c:	f0f77713          	andi	a4,a4,-241
  203a50:	c398                	sw	a4,0(a5)
  203a52:	002107b7          	lui	a5,0x210
  203a56:	c4878793          	addi	a5,a5,-952 # 20fc48 <blockedByBufDepReqQ>
  203a5a:	0047d783          	lhu	a5,4(a5)
  203a5e:	37fd                	addiw	a5,a5,-1
  203a60:	03079713          	slli	a4,a5,0x30
  203a64:	9341                	srli	a4,a4,0x30
  203a66:	002107b7          	lui	a5,0x210
  203a6a:	c4878793          	addi	a5,a5,-952 # 20fc48 <blockedByBufDepReqQ>
  203a6e:	00e79223          	sh	a4,4(a5)
  203a72:	002107b7          	lui	a5,0x210
  203a76:	0687a783          	lw	a5,104(a5) # 210068 <blockedReqCnt>
  203a7a:	37fd                	addiw	a5,a5,-1
  203a7c:	0007871b          	sext.w	a4,a5
  203a80:	002107b7          	lui	a5,0x210
  203a84:	06e7a423          	sw	a4,104(a5) # 210068 <blockedReqCnt>
  203a88:	0001                	nop
  203a8a:	70a2                	ld	ra,40(sp)
  203a8c:	7402                	ld	s0,32(sp)
  203a8e:	6145                	addi	sp,sp,48
  203a90:	8082                	ret

0000000000203a92 <PutToBlockedByRowAddrDepReqQ>:
  203a92:	1101                	addi	sp,sp,-32
  203a94:	ec22                	sd	s0,24(sp)
  203a96:	1000                	addi	s0,sp,32
  203a98:	87aa                	mv	a5,a0
  203a9a:	86ae                	mv	a3,a1
  203a9c:	8732                	mv	a4,a2
  203a9e:	fef42623          	sw	a5,-20(s0)
  203aa2:	87b6                	mv	a5,a3
  203aa4:	fef42423          	sw	a5,-24(s0)
  203aa8:	87ba                	mv	a5,a4
  203aaa:	fef42223          	sw	a5,-28(s0)
  203aae:	002107b7          	lui	a5,0x210
  203ab2:	c5078713          	addi	a4,a5,-944 # 20fc50 <blockedByRowAddrDepReqQ>
  203ab6:	fe446783          	lwu	a5,-28(s0)
  203aba:	fe846683          	lwu	a3,-24(s0)
  203abe:	068e                	slli	a3,a3,0x3
  203ac0:	97b6                	add	a5,a5,a3
  203ac2:	078e                	slli	a5,a5,0x3
  203ac4:	97ba                	add	a5,a5,a4
  203ac6:	0027d783          	lhu	a5,2(a5)
  203aca:	0007871b          	sext.w	a4,a5
  203ace:	67c1                	lui	a5,0x10
  203ad0:	17fd                	addi	a5,a5,-1
  203ad2:	0af70f63          	beq	a4,a5,203b90 <PutToBlockedByRowAddrDepReqQ+0xfe>
  203ad6:	002107b7          	lui	a5,0x210
  203ada:	e507b683          	ld	a3,-432(a5) # 20fe50 <reqPoolPtr>
  203ade:	002107b7          	lui	a5,0x210
  203ae2:	c5078713          	addi	a4,a5,-944 # 20fc50 <blockedByRowAddrDepReqQ>
  203ae6:	fe446783          	lwu	a5,-28(s0)
  203aea:	fe846603          	lwu	a2,-24(s0)
  203aee:	060e                	slli	a2,a2,0x3
  203af0:	97b2                	add	a5,a5,a2
  203af2:	078e                	slli	a5,a5,0x3
  203af4:	97ba                	add	a5,a5,a4
  203af6:	0027d703          	lhu	a4,2(a5)
  203afa:	fec46603          	lwu	a2,-20(s0)
  203afe:	03400793          	li	a5,52
  203b02:	02f607b3          	mul	a5,a2,a5
  203b06:	97b6                	add	a5,a5,a3
  203b08:	02e79623          	sh	a4,44(a5)
  203b0c:	002107b7          	lui	a5,0x210
  203b10:	e507b703          	ld	a4,-432(a5) # 20fe50 <reqPoolPtr>
  203b14:	fec46683          	lwu	a3,-20(s0)
  203b18:	03400793          	li	a5,52
  203b1c:	02f687b3          	mul	a5,a3,a5
  203b20:	97ba                	add	a5,a5,a4
  203b22:	577d                	li	a4,-1
  203b24:	02e79723          	sh	a4,46(a5)
  203b28:	002107b7          	lui	a5,0x210
  203b2c:	e507b683          	ld	a3,-432(a5) # 20fe50 <reqPoolPtr>
  203b30:	002107b7          	lui	a5,0x210
  203b34:	c5078713          	addi	a4,a5,-944 # 20fc50 <blockedByRowAddrDepReqQ>
  203b38:	fe446783          	lwu	a5,-28(s0)
  203b3c:	fe846603          	lwu	a2,-24(s0)
  203b40:	060e                	slli	a2,a2,0x3
  203b42:	97b2                	add	a5,a5,a2
  203b44:	078e                	slli	a5,a5,0x3
  203b46:	97ba                	add	a5,a5,a4
  203b48:	0027d783          	lhu	a5,2(a5)
  203b4c:	0007861b          	sext.w	a2,a5
  203b50:	fec42783          	lw	a5,-20(s0)
  203b54:	03079713          	slli	a4,a5,0x30
  203b58:	9341                	srli	a4,a4,0x30
  203b5a:	03400793          	li	a5,52
  203b5e:	02f607b3          	mul	a5,a2,a5
  203b62:	97b6                	add	a5,a5,a3
  203b64:	02e79723          	sh	a4,46(a5)
  203b68:	fec42783          	lw	a5,-20(s0)
  203b6c:	03079713          	slli	a4,a5,0x30
  203b70:	9341                	srli	a4,a4,0x30
  203b72:	002107b7          	lui	a5,0x210
  203b76:	c5078693          	addi	a3,a5,-944 # 20fc50 <blockedByRowAddrDepReqQ>
  203b7a:	fe446783          	lwu	a5,-28(s0)
  203b7e:	fe846603          	lwu	a2,-24(s0)
  203b82:	060e                	slli	a2,a2,0x3
  203b84:	97b2                	add	a5,a5,a2
  203b86:	078e                	slli	a5,a5,0x3
  203b88:	97b6                	add	a5,a5,a3
  203b8a:	00e79123          	sh	a4,2(a5)
  203b8e:	a059                	j	203c14 <PutToBlockedByRowAddrDepReqQ+0x182>
  203b90:	002107b7          	lui	a5,0x210
  203b94:	e507b703          	ld	a4,-432(a5) # 20fe50 <reqPoolPtr>
  203b98:	fec46683          	lwu	a3,-20(s0)
  203b9c:	03400793          	li	a5,52
  203ba0:	02f687b3          	mul	a5,a3,a5
  203ba4:	97ba                	add	a5,a5,a4
  203ba6:	577d                	li	a4,-1
  203ba8:	02e79623          	sh	a4,44(a5)
  203bac:	002107b7          	lui	a5,0x210
  203bb0:	e507b703          	ld	a4,-432(a5) # 20fe50 <reqPoolPtr>
  203bb4:	fec46683          	lwu	a3,-20(s0)
  203bb8:	03400793          	li	a5,52
  203bbc:	02f687b3          	mul	a5,a3,a5
  203bc0:	97ba                	add	a5,a5,a4
  203bc2:	577d                	li	a4,-1
  203bc4:	02e79723          	sh	a4,46(a5)
  203bc8:	fec42783          	lw	a5,-20(s0)
  203bcc:	03079713          	slli	a4,a5,0x30
  203bd0:	9341                	srli	a4,a4,0x30
  203bd2:	002107b7          	lui	a5,0x210
  203bd6:	c5078693          	addi	a3,a5,-944 # 20fc50 <blockedByRowAddrDepReqQ>
  203bda:	fe446783          	lwu	a5,-28(s0)
  203bde:	fe846603          	lwu	a2,-24(s0)
  203be2:	060e                	slli	a2,a2,0x3
  203be4:	97b2                	add	a5,a5,a2
  203be6:	078e                	slli	a5,a5,0x3
  203be8:	97b6                	add	a5,a5,a3
  203bea:	00e79023          	sh	a4,0(a5)
  203bee:	fec42783          	lw	a5,-20(s0)
  203bf2:	03079713          	slli	a4,a5,0x30
  203bf6:	9341                	srli	a4,a4,0x30
  203bf8:	002107b7          	lui	a5,0x210
  203bfc:	c5078693          	addi	a3,a5,-944 # 20fc50 <blockedByRowAddrDepReqQ>
  203c00:	fe446783          	lwu	a5,-28(s0)
  203c04:	fe846603          	lwu	a2,-24(s0)
  203c08:	060e                	slli	a2,a2,0x3
  203c0a:	97b2                	add	a5,a5,a2
  203c0c:	078e                	slli	a5,a5,0x3
  203c0e:	97b6                	add	a5,a5,a3
  203c10:	00e79123          	sh	a4,2(a5)
  203c14:	002107b7          	lui	a5,0x210
  203c18:	e507b703          	ld	a4,-432(a5) # 20fe50 <reqPoolPtr>
  203c1c:	fec46683          	lwu	a3,-20(s0)
  203c20:	03400793          	li	a5,52
  203c24:	02f687b3          	mul	a5,a3,a5
  203c28:	97ba                	add	a5,a5,a4
  203c2a:	4398                	lw	a4,0(a5)
  203c2c:	f0f77713          	andi	a4,a4,-241
  203c30:	04076713          	ori	a4,a4,64
  203c34:	c398                	sw	a4,0(a5)
  203c36:	002107b7          	lui	a5,0x210
  203c3a:	c5078713          	addi	a4,a5,-944 # 20fc50 <blockedByRowAddrDepReqQ>
  203c3e:	fe446783          	lwu	a5,-28(s0)
  203c42:	fe846683          	lwu	a3,-24(s0)
  203c46:	068e                	slli	a3,a3,0x3
  203c48:	97b6                	add	a5,a5,a3
  203c4a:	078e                	slli	a5,a5,0x3
  203c4c:	97ba                	add	a5,a5,a4
  203c4e:	0047d783          	lhu	a5,4(a5)
  203c52:	2785                	addiw	a5,a5,1
  203c54:	03079713          	slli	a4,a5,0x30
  203c58:	9341                	srli	a4,a4,0x30
  203c5a:	002107b7          	lui	a5,0x210
  203c5e:	c5078693          	addi	a3,a5,-944 # 20fc50 <blockedByRowAddrDepReqQ>
  203c62:	fe446783          	lwu	a5,-28(s0)
  203c66:	fe846603          	lwu	a2,-24(s0)
  203c6a:	060e                	slli	a2,a2,0x3
  203c6c:	97b2                	add	a5,a5,a2
  203c6e:	078e                	slli	a5,a5,0x3
  203c70:	97b6                	add	a5,a5,a3
  203c72:	00e79223          	sh	a4,4(a5)
  203c76:	002107b7          	lui	a5,0x210
  203c7a:	0687a783          	lw	a5,104(a5) # 210068 <blockedReqCnt>
  203c7e:	2785                	addiw	a5,a5,1
  203c80:	0007871b          	sext.w	a4,a5
  203c84:	002107b7          	lui	a5,0x210
  203c88:	06e7a423          	sw	a4,104(a5) # 210068 <blockedReqCnt>
  203c8c:	0001                	nop
  203c8e:	6462                	ld	s0,24(sp)
  203c90:	6105                	addi	sp,sp,32
  203c92:	8082                	ret

0000000000203c94 <SelectiveGetFromBlockedByRowAddrDepReqQ>:
  203c94:	7179                	addi	sp,sp,-48
  203c96:	f406                	sd	ra,40(sp)
  203c98:	f022                	sd	s0,32(sp)
  203c9a:	1800                	addi	s0,sp,48
  203c9c:	87aa                	mv	a5,a0
  203c9e:	86ae                	mv	a3,a1
  203ca0:	8732                	mv	a4,a2
  203ca2:	fcf42e23          	sw	a5,-36(s0)
  203ca6:	87b6                	mv	a5,a3
  203ca8:	fcf42c23          	sw	a5,-40(s0)
  203cac:	87ba                	mv	a5,a4
  203cae:	fcf42a23          	sw	a5,-44(s0)
  203cb2:	fdc42783          	lw	a5,-36(s0)
  203cb6:	0007871b          	sext.w	a4,a5
  203cba:	67c1                	lui	a5,0x10
  203cbc:	17fd                	addi	a5,a5,-1
  203cbe:	00f71863          	bne	a4,a5,203cce <SelectiveGetFromBlockedByRowAddrDepReqQ+0x3a>
  203cc2:	0020f7b7          	lui	a5,0x20f
  203cc6:	15878513          	addi	a0,a5,344 # 20f158 <nvme_main+0x7e0>
  203cca:	14f000ef          	jal	ra,204618 <cpl_print>
  203cce:	002107b7          	lui	a5,0x210
  203cd2:	e507b703          	ld	a4,-432(a5) # 20fe50 <reqPoolPtr>
  203cd6:	fdc46683          	lwu	a3,-36(s0)
  203cda:	03400793          	li	a5,52
  203cde:	02f687b3          	mul	a5,a3,a5
  203ce2:	97ba                	add	a5,a5,a4
  203ce4:	02c7d783          	lhu	a5,44(a5)
  203ce8:	fef42623          	sw	a5,-20(s0)
  203cec:	002107b7          	lui	a5,0x210
  203cf0:	e507b703          	ld	a4,-432(a5) # 20fe50 <reqPoolPtr>
  203cf4:	fdc46683          	lwu	a3,-36(s0)
  203cf8:	03400793          	li	a5,52
  203cfc:	02f687b3          	mul	a5,a3,a5
  203d00:	97ba                	add	a5,a5,a4
  203d02:	02e7d783          	lhu	a5,46(a5)
  203d06:	fef42423          	sw	a5,-24(s0)
  203d0a:	fe842783          	lw	a5,-24(s0)
  203d0e:	0007871b          	sext.w	a4,a5
  203d12:	67c1                	lui	a5,0x10
  203d14:	17fd                	addi	a5,a5,-1
  203d16:	04f70f63          	beq	a4,a5,203d74 <SelectiveGetFromBlockedByRowAddrDepReqQ+0xe0>
  203d1a:	fec42783          	lw	a5,-20(s0)
  203d1e:	0007871b          	sext.w	a4,a5
  203d22:	67c1                	lui	a5,0x10
  203d24:	17fd                	addi	a5,a5,-1
  203d26:	04f70763          	beq	a4,a5,203d74 <SelectiveGetFromBlockedByRowAddrDepReqQ+0xe0>
  203d2a:	002107b7          	lui	a5,0x210
  203d2e:	e507b683          	ld	a3,-432(a5) # 20fe50 <reqPoolPtr>
  203d32:	fe842783          	lw	a5,-24(s0)
  203d36:	03079713          	slli	a4,a5,0x30
  203d3a:	9341                	srli	a4,a4,0x30
  203d3c:	fec46603          	lwu	a2,-20(s0)
  203d40:	03400793          	li	a5,52
  203d44:	02f607b3          	mul	a5,a2,a5
  203d48:	97b6                	add	a5,a5,a3
  203d4a:	02e79723          	sh	a4,46(a5)
  203d4e:	002107b7          	lui	a5,0x210
  203d52:	e507b683          	ld	a3,-432(a5) # 20fe50 <reqPoolPtr>
  203d56:	fec42783          	lw	a5,-20(s0)
  203d5a:	03079713          	slli	a4,a5,0x30
  203d5e:	9341                	srli	a4,a4,0x30
  203d60:	fe846603          	lwu	a2,-24(s0)
  203d64:	03400793          	li	a5,52
  203d68:	02f607b3          	mul	a5,a2,a5
  203d6c:	97b6                	add	a5,a5,a3
  203d6e:	02e79623          	sh	a4,44(a5)
  203d72:	a219                	j	203e78 <SelectiveGetFromBlockedByRowAddrDepReqQ+0x1e4>
  203d74:	fe842783          	lw	a5,-24(s0)
  203d78:	0007871b          	sext.w	a4,a5
  203d7c:	67c1                	lui	a5,0x10
  203d7e:	17fd                	addi	a5,a5,-1
  203d80:	04f71c63          	bne	a4,a5,203dd8 <SelectiveGetFromBlockedByRowAddrDepReqQ+0x144>
  203d84:	fec42783          	lw	a5,-20(s0)
  203d88:	0007871b          	sext.w	a4,a5
  203d8c:	67c1                	lui	a5,0x10
  203d8e:	17fd                	addi	a5,a5,-1
  203d90:	04f70463          	beq	a4,a5,203dd8 <SelectiveGetFromBlockedByRowAddrDepReqQ+0x144>
  203d94:	002107b7          	lui	a5,0x210
  203d98:	e507b703          	ld	a4,-432(a5) # 20fe50 <reqPoolPtr>
  203d9c:	fec46683          	lwu	a3,-20(s0)
  203da0:	03400793          	li	a5,52
  203da4:	02f687b3          	mul	a5,a3,a5
  203da8:	97ba                	add	a5,a5,a4
  203daa:	577d                	li	a4,-1
  203dac:	02e79723          	sh	a4,46(a5)
  203db0:	fec42783          	lw	a5,-20(s0)
  203db4:	03079713          	slli	a4,a5,0x30
  203db8:	9341                	srli	a4,a4,0x30
  203dba:	002107b7          	lui	a5,0x210
  203dbe:	c5078693          	addi	a3,a5,-944 # 20fc50 <blockedByRowAddrDepReqQ>
  203dc2:	fd446783          	lwu	a5,-44(s0)
  203dc6:	fd846603          	lwu	a2,-40(s0)
  203dca:	060e                	slli	a2,a2,0x3
  203dcc:	97b2                	add	a5,a5,a2
  203dce:	078e                	slli	a5,a5,0x3
  203dd0:	97b6                	add	a5,a5,a3
  203dd2:	00e79123          	sh	a4,2(a5)
  203dd6:	a04d                	j	203e78 <SelectiveGetFromBlockedByRowAddrDepReqQ+0x1e4>
  203dd8:	fe842783          	lw	a5,-24(s0)
  203ddc:	0007871b          	sext.w	a4,a5
  203de0:	67c1                	lui	a5,0x10
  203de2:	17fd                	addi	a5,a5,-1
  203de4:	04f70c63          	beq	a4,a5,203e3c <SelectiveGetFromBlockedByRowAddrDepReqQ+0x1a8>
  203de8:	fec42783          	lw	a5,-20(s0)
  203dec:	0007871b          	sext.w	a4,a5
  203df0:	67c1                	lui	a5,0x10
  203df2:	17fd                	addi	a5,a5,-1
  203df4:	04f71463          	bne	a4,a5,203e3c <SelectiveGetFromBlockedByRowAddrDepReqQ+0x1a8>
  203df8:	002107b7          	lui	a5,0x210
  203dfc:	e507b703          	ld	a4,-432(a5) # 20fe50 <reqPoolPtr>
  203e00:	fe846683          	lwu	a3,-24(s0)
  203e04:	03400793          	li	a5,52
  203e08:	02f687b3          	mul	a5,a3,a5
  203e0c:	97ba                	add	a5,a5,a4
  203e0e:	577d                	li	a4,-1
  203e10:	02e79623          	sh	a4,44(a5)
  203e14:	fe842783          	lw	a5,-24(s0)
  203e18:	03079713          	slli	a4,a5,0x30
  203e1c:	9341                	srli	a4,a4,0x30
  203e1e:	002107b7          	lui	a5,0x210
  203e22:	c5078693          	addi	a3,a5,-944 # 20fc50 <blockedByRowAddrDepReqQ>
  203e26:	fd446783          	lwu	a5,-44(s0)
  203e2a:	fd846603          	lwu	a2,-40(s0)
  203e2e:	060e                	slli	a2,a2,0x3
  203e30:	97b2                	add	a5,a5,a2
  203e32:	078e                	slli	a5,a5,0x3
  203e34:	97b6                	add	a5,a5,a3
  203e36:	00e79023          	sh	a4,0(a5)
  203e3a:	a83d                	j	203e78 <SelectiveGetFromBlockedByRowAddrDepReqQ+0x1e4>
  203e3c:	002107b7          	lui	a5,0x210
  203e40:	c5078713          	addi	a4,a5,-944 # 20fc50 <blockedByRowAddrDepReqQ>
  203e44:	fd446783          	lwu	a5,-44(s0)
  203e48:	fd846683          	lwu	a3,-40(s0)
  203e4c:	068e                	slli	a3,a3,0x3
  203e4e:	97b6                	add	a5,a5,a3
  203e50:	078e                	slli	a5,a5,0x3
  203e52:	97ba                	add	a5,a5,a4
  203e54:	577d                	li	a4,-1
  203e56:	00e79023          	sh	a4,0(a5)
  203e5a:	002107b7          	lui	a5,0x210
  203e5e:	c5078713          	addi	a4,a5,-944 # 20fc50 <blockedByRowAddrDepReqQ>
  203e62:	fd446783          	lwu	a5,-44(s0)
  203e66:	fd846683          	lwu	a3,-40(s0)
  203e6a:	068e                	slli	a3,a3,0x3
  203e6c:	97b6                	add	a5,a5,a3
  203e6e:	078e                	slli	a5,a5,0x3
  203e70:	97ba                	add	a5,a5,a4
  203e72:	577d                	li	a4,-1
  203e74:	00e79123          	sh	a4,2(a5)
  203e78:	002107b7          	lui	a5,0x210
  203e7c:	e507b703          	ld	a4,-432(a5) # 20fe50 <reqPoolPtr>
  203e80:	fdc46683          	lwu	a3,-36(s0)
  203e84:	03400793          	li	a5,52
  203e88:	02f687b3          	mul	a5,a3,a5
  203e8c:	97ba                	add	a5,a5,a4
  203e8e:	4398                	lw	a4,0(a5)
  203e90:	f0f77713          	andi	a4,a4,-241
  203e94:	c398                	sw	a4,0(a5)
  203e96:	002107b7          	lui	a5,0x210
  203e9a:	c5078713          	addi	a4,a5,-944 # 20fc50 <blockedByRowAddrDepReqQ>
  203e9e:	fd446783          	lwu	a5,-44(s0)
  203ea2:	fd846683          	lwu	a3,-40(s0)
  203ea6:	068e                	slli	a3,a3,0x3
  203ea8:	97b6                	add	a5,a5,a3
  203eaa:	078e                	slli	a5,a5,0x3
  203eac:	97ba                	add	a5,a5,a4
  203eae:	0047d783          	lhu	a5,4(a5)
  203eb2:	37fd                	addiw	a5,a5,-1
  203eb4:	03079713          	slli	a4,a5,0x30
  203eb8:	9341                	srli	a4,a4,0x30
  203eba:	002107b7          	lui	a5,0x210
  203ebe:	c5078693          	addi	a3,a5,-944 # 20fc50 <blockedByRowAddrDepReqQ>
  203ec2:	fd446783          	lwu	a5,-44(s0)
  203ec6:	fd846603          	lwu	a2,-40(s0)
  203eca:	060e                	slli	a2,a2,0x3
  203ecc:	97b2                	add	a5,a5,a2
  203ece:	078e                	slli	a5,a5,0x3
  203ed0:	97b6                	add	a5,a5,a3
  203ed2:	00e79223          	sh	a4,4(a5)
  203ed6:	002107b7          	lui	a5,0x210
  203eda:	0687a783          	lw	a5,104(a5) # 210068 <blockedReqCnt>
  203ede:	37fd                	addiw	a5,a5,-1
  203ee0:	0007871b          	sext.w	a4,a5
  203ee4:	002107b7          	lui	a5,0x210
  203ee8:	06e7a423          	sw	a4,104(a5) # 210068 <blockedReqCnt>
  203eec:	0001                	nop
  203eee:	70a2                	ld	ra,40(sp)
  203ef0:	7402                	ld	s0,32(sp)
  203ef2:	6145                	addi	sp,sp,48
  203ef4:	8082                	ret

0000000000203ef6 <PutToNvmeDmaReqQ>:
  203ef6:	1101                	addi	sp,sp,-32
  203ef8:	ec22                	sd	s0,24(sp)
  203efa:	1000                	addi	s0,sp,32
  203efc:	87aa                	mv	a5,a0
  203efe:	fef42623          	sw	a5,-20(s0)
  203f02:	002107b7          	lui	a5,0x210
  203f06:	e6078793          	addi	a5,a5,-416 # 20fe60 <nvmeDmaReqQ>
  203f0a:	0027d783          	lhu	a5,2(a5)
  203f0e:	0007871b          	sext.w	a4,a5
  203f12:	67c1                	lui	a5,0x10
  203f14:	17fd                	addi	a5,a5,-1
  203f16:	08f70763          	beq	a4,a5,203fa4 <PutToNvmeDmaReqQ+0xae>
  203f1a:	002107b7          	lui	a5,0x210
  203f1e:	e507b683          	ld	a3,-432(a5) # 20fe50 <reqPoolPtr>
  203f22:	002107b7          	lui	a5,0x210
  203f26:	e6078793          	addi	a5,a5,-416 # 20fe60 <nvmeDmaReqQ>
  203f2a:	0027d703          	lhu	a4,2(a5)
  203f2e:	fec46603          	lwu	a2,-20(s0)
  203f32:	03400793          	li	a5,52
  203f36:	02f607b3          	mul	a5,a2,a5
  203f3a:	97b6                	add	a5,a5,a3
  203f3c:	02e79623          	sh	a4,44(a5)
  203f40:	002107b7          	lui	a5,0x210
  203f44:	e507b703          	ld	a4,-432(a5) # 20fe50 <reqPoolPtr>
  203f48:	fec46683          	lwu	a3,-20(s0)
  203f4c:	03400793          	li	a5,52
  203f50:	02f687b3          	mul	a5,a3,a5
  203f54:	97ba                	add	a5,a5,a4
  203f56:	577d                	li	a4,-1
  203f58:	02e79723          	sh	a4,46(a5)
  203f5c:	002107b7          	lui	a5,0x210
  203f60:	e507b683          	ld	a3,-432(a5) # 20fe50 <reqPoolPtr>
  203f64:	002107b7          	lui	a5,0x210
  203f68:	e6078793          	addi	a5,a5,-416 # 20fe60 <nvmeDmaReqQ>
  203f6c:	0027d783          	lhu	a5,2(a5)
  203f70:	0007861b          	sext.w	a2,a5
  203f74:	fec42783          	lw	a5,-20(s0)
  203f78:	03079713          	slli	a4,a5,0x30
  203f7c:	9341                	srli	a4,a4,0x30
  203f7e:	03400793          	li	a5,52
  203f82:	02f607b3          	mul	a5,a2,a5
  203f86:	97b6                	add	a5,a5,a3
  203f88:	02e79723          	sh	a4,46(a5)
  203f8c:	fec42783          	lw	a5,-20(s0)
  203f90:	03079713          	slli	a4,a5,0x30
  203f94:	9341                	srli	a4,a4,0x30
  203f96:	002107b7          	lui	a5,0x210
  203f9a:	e6078793          	addi	a5,a5,-416 # 20fe60 <nvmeDmaReqQ>
  203f9e:	00e79123          	sh	a4,2(a5)
  203fa2:	a08d                	j	204004 <PutToNvmeDmaReqQ+0x10e>
  203fa4:	002107b7          	lui	a5,0x210
  203fa8:	e507b703          	ld	a4,-432(a5) # 20fe50 <reqPoolPtr>
  203fac:	fec46683          	lwu	a3,-20(s0)
  203fb0:	03400793          	li	a5,52
  203fb4:	02f687b3          	mul	a5,a3,a5
  203fb8:	97ba                	add	a5,a5,a4
  203fba:	577d                	li	a4,-1
  203fbc:	02e79623          	sh	a4,44(a5)
  203fc0:	002107b7          	lui	a5,0x210
  203fc4:	e507b703          	ld	a4,-432(a5) # 20fe50 <reqPoolPtr>
  203fc8:	fec46683          	lwu	a3,-20(s0)
  203fcc:	03400793          	li	a5,52
  203fd0:	02f687b3          	mul	a5,a3,a5
  203fd4:	97ba                	add	a5,a5,a4
  203fd6:	577d                	li	a4,-1
  203fd8:	02e79723          	sh	a4,46(a5)
  203fdc:	fec42783          	lw	a5,-20(s0)
  203fe0:	03079713          	slli	a4,a5,0x30
  203fe4:	9341                	srli	a4,a4,0x30
  203fe6:	002107b7          	lui	a5,0x210
  203fea:	e6e79023          	sh	a4,-416(a5) # 20fe60 <nvmeDmaReqQ>
  203fee:	fec42783          	lw	a5,-20(s0)
  203ff2:	03079713          	slli	a4,a5,0x30
  203ff6:	9341                	srli	a4,a4,0x30
  203ff8:	002107b7          	lui	a5,0x210
  203ffc:	e6078793          	addi	a5,a5,-416 # 20fe60 <nvmeDmaReqQ>
  204000:	00e79123          	sh	a4,2(a5)
  204004:	002107b7          	lui	a5,0x210
  204008:	e507b703          	ld	a4,-432(a5) # 20fe50 <reqPoolPtr>
  20400c:	fec46683          	lwu	a3,-20(s0)
  204010:	03400793          	li	a5,52
  204014:	02f687b3          	mul	a5,a3,a5
  204018:	97ba                	add	a5,a5,a4
  20401a:	4398                	lw	a4,0(a5)
  20401c:	f0f77713          	andi	a4,a4,-241
  204020:	05076713          	ori	a4,a4,80
  204024:	c398                	sw	a4,0(a5)
  204026:	002107b7          	lui	a5,0x210
  20402a:	e6078793          	addi	a5,a5,-416 # 20fe60 <nvmeDmaReqQ>
  20402e:	0047d783          	lhu	a5,4(a5)
  204032:	2785                	addiw	a5,a5,1
  204034:	03079713          	slli	a4,a5,0x30
  204038:	9341                	srli	a4,a4,0x30
  20403a:	002107b7          	lui	a5,0x210
  20403e:	e6078793          	addi	a5,a5,-416 # 20fe60 <nvmeDmaReqQ>
  204042:	00e79223          	sh	a4,4(a5)
  204046:	0001                	nop
  204048:	6462                	ld	s0,24(sp)
  20404a:	6105                	addi	sp,sp,32
  20404c:	8082                	ret

000000000020404e <SelectiveGetFromNvmeDmaReqQ>:
  20404e:	7179                	addi	sp,sp,-48
  204050:	f406                	sd	ra,40(sp)
  204052:	f022                	sd	s0,32(sp)
  204054:	1800                	addi	s0,sp,48
  204056:	87aa                	mv	a5,a0
  204058:	fcf42e23          	sw	a5,-36(s0)
  20405c:	002107b7          	lui	a5,0x210
  204060:	e507b703          	ld	a4,-432(a5) # 20fe50 <reqPoolPtr>
  204064:	fdc46683          	lwu	a3,-36(s0)
  204068:	03400793          	li	a5,52
  20406c:	02f687b3          	mul	a5,a3,a5
  204070:	97ba                	add	a5,a5,a4
  204072:	02c7d783          	lhu	a5,44(a5)
  204076:	fef42623          	sw	a5,-20(s0)
  20407a:	002107b7          	lui	a5,0x210
  20407e:	e507b703          	ld	a4,-432(a5) # 20fe50 <reqPoolPtr>
  204082:	fdc46683          	lwu	a3,-36(s0)
  204086:	03400793          	li	a5,52
  20408a:	02f687b3          	mul	a5,a3,a5
  20408e:	97ba                	add	a5,a5,a4
  204090:	02e7d783          	lhu	a5,46(a5)
  204094:	fef42423          	sw	a5,-24(s0)
  204098:	fe842783          	lw	a5,-24(s0)
  20409c:	0007871b          	sext.w	a4,a5
  2040a0:	67c1                	lui	a5,0x10
  2040a2:	17fd                	addi	a5,a5,-1
  2040a4:	04f70f63          	beq	a4,a5,204102 <SelectiveGetFromNvmeDmaReqQ+0xb4>
  2040a8:	fec42783          	lw	a5,-20(s0)
  2040ac:	0007871b          	sext.w	a4,a5
  2040b0:	67c1                	lui	a5,0x10
  2040b2:	17fd                	addi	a5,a5,-1
  2040b4:	04f70763          	beq	a4,a5,204102 <SelectiveGetFromNvmeDmaReqQ+0xb4>
  2040b8:	002107b7          	lui	a5,0x210
  2040bc:	e507b683          	ld	a3,-432(a5) # 20fe50 <reqPoolPtr>
  2040c0:	fe842783          	lw	a5,-24(s0)
  2040c4:	03079713          	slli	a4,a5,0x30
  2040c8:	9341                	srli	a4,a4,0x30
  2040ca:	fec46603          	lwu	a2,-20(s0)
  2040ce:	03400793          	li	a5,52
  2040d2:	02f607b3          	mul	a5,a2,a5
  2040d6:	97b6                	add	a5,a5,a3
  2040d8:	02e79723          	sh	a4,46(a5)
  2040dc:	002107b7          	lui	a5,0x210
  2040e0:	e507b683          	ld	a3,-432(a5) # 20fe50 <reqPoolPtr>
  2040e4:	fec42783          	lw	a5,-20(s0)
  2040e8:	03079713          	slli	a4,a5,0x30
  2040ec:	9341                	srli	a4,a4,0x30
  2040ee:	fe846603          	lwu	a2,-24(s0)
  2040f2:	03400793          	li	a5,52
  2040f6:	02f607b3          	mul	a5,a2,a5
  2040fa:	97b6                	add	a5,a5,a3
  2040fc:	02e79623          	sh	a4,44(a5)
  204100:	a87d                	j	2041be <SelectiveGetFromNvmeDmaReqQ+0x170>
  204102:	fe842783          	lw	a5,-24(s0)
  204106:	0007871b          	sext.w	a4,a5
  20410a:	67c1                	lui	a5,0x10
  20410c:	17fd                	addi	a5,a5,-1
  20410e:	04f71463          	bne	a4,a5,204156 <SelectiveGetFromNvmeDmaReqQ+0x108>
  204112:	fec42783          	lw	a5,-20(s0)
  204116:	0007871b          	sext.w	a4,a5
  20411a:	67c1                	lui	a5,0x10
  20411c:	17fd                	addi	a5,a5,-1
  20411e:	02f70c63          	beq	a4,a5,204156 <SelectiveGetFromNvmeDmaReqQ+0x108>
  204122:	002107b7          	lui	a5,0x210
  204126:	e507b703          	ld	a4,-432(a5) # 20fe50 <reqPoolPtr>
  20412a:	fec46683          	lwu	a3,-20(s0)
  20412e:	03400793          	li	a5,52
  204132:	02f687b3          	mul	a5,a3,a5
  204136:	97ba                	add	a5,a5,a4
  204138:	577d                	li	a4,-1
  20413a:	02e79723          	sh	a4,46(a5)
  20413e:	fec42783          	lw	a5,-20(s0)
  204142:	03079713          	slli	a4,a5,0x30
  204146:	9341                	srli	a4,a4,0x30
  204148:	002107b7          	lui	a5,0x210
  20414c:	e6078793          	addi	a5,a5,-416 # 20fe60 <nvmeDmaReqQ>
  204150:	00e79123          	sh	a4,2(a5)
  204154:	a0ad                	j	2041be <SelectiveGetFromNvmeDmaReqQ+0x170>
  204156:	fe842783          	lw	a5,-24(s0)
  20415a:	0007871b          	sext.w	a4,a5
  20415e:	67c1                	lui	a5,0x10
  204160:	17fd                	addi	a5,a5,-1
  204162:	04f70263          	beq	a4,a5,2041a6 <SelectiveGetFromNvmeDmaReqQ+0x158>
  204166:	fec42783          	lw	a5,-20(s0)
  20416a:	0007871b          	sext.w	a4,a5
  20416e:	67c1                	lui	a5,0x10
  204170:	17fd                	addi	a5,a5,-1
  204172:	02f71a63          	bne	a4,a5,2041a6 <SelectiveGetFromNvmeDmaReqQ+0x158>
  204176:	002107b7          	lui	a5,0x210
  20417a:	e507b703          	ld	a4,-432(a5) # 20fe50 <reqPoolPtr>
  20417e:	fe846683          	lwu	a3,-24(s0)
  204182:	03400793          	li	a5,52
  204186:	02f687b3          	mul	a5,a3,a5
  20418a:	97ba                	add	a5,a5,a4
  20418c:	577d                	li	a4,-1
  20418e:	02e79623          	sh	a4,44(a5)
  204192:	fe842783          	lw	a5,-24(s0)
  204196:	03079713          	slli	a4,a5,0x30
  20419a:	9341                	srli	a4,a4,0x30
  20419c:	002107b7          	lui	a5,0x210
  2041a0:	e6e79023          	sh	a4,-416(a5) # 20fe60 <nvmeDmaReqQ>
  2041a4:	a829                	j	2041be <SelectiveGetFromNvmeDmaReqQ+0x170>
  2041a6:	002107b7          	lui	a5,0x210
  2041aa:	577d                	li	a4,-1
  2041ac:	e6e79023          	sh	a4,-416(a5) # 20fe60 <nvmeDmaReqQ>
  2041b0:	002107b7          	lui	a5,0x210
  2041b4:	e6078793          	addi	a5,a5,-416 # 20fe60 <nvmeDmaReqQ>
  2041b8:	577d                	li	a4,-1
  2041ba:	00e79123          	sh	a4,2(a5)
  2041be:	002107b7          	lui	a5,0x210
  2041c2:	e507b703          	ld	a4,-432(a5) # 20fe50 <reqPoolPtr>
  2041c6:	fdc46683          	lwu	a3,-36(s0)
  2041ca:	03400793          	li	a5,52
  2041ce:	02f687b3          	mul	a5,a3,a5
  2041d2:	97ba                	add	a5,a5,a4
  2041d4:	4398                	lw	a4,0(a5)
  2041d6:	f0f77713          	andi	a4,a4,-241
  2041da:	c398                	sw	a4,0(a5)
  2041dc:	002107b7          	lui	a5,0x210
  2041e0:	e6078793          	addi	a5,a5,-416 # 20fe60 <nvmeDmaReqQ>
  2041e4:	0047d783          	lhu	a5,4(a5)
  2041e8:	37fd                	addiw	a5,a5,-1
  2041ea:	03079713          	slli	a4,a5,0x30
  2041ee:	9341                	srli	a4,a4,0x30
  2041f0:	002107b7          	lui	a5,0x210
  2041f4:	e6078793          	addi	a5,a5,-416 # 20fe60 <nvmeDmaReqQ>
  2041f8:	00e79223          	sh	a4,4(a5)
  2041fc:	fdc42783          	lw	a5,-36(s0)
  204200:	853e                	mv	a0,a5
  204202:	866ff0ef          	jal	ra,203268 <PutToFreeReqQ>
  204206:	fdc42783          	lw	a5,-36(s0)
  20420a:	853e                	mv	a0,a5
  20420c:	61a070ef          	jal	ra,20b826 <ReleaseBlockedByBufDepReq>
  204210:	0001                	nop
  204212:	70a2                	ld	ra,40(sp)
  204214:	7402                	ld	s0,32(sp)
  204216:	6145                	addi	sp,sp,48
  204218:	8082                	ret

000000000020421a <PutToNandReqQ>:
  20421a:	1101                	addi	sp,sp,-32
  20421c:	ec22                	sd	s0,24(sp)
  20421e:	1000                	addi	s0,sp,32
  204220:	87aa                	mv	a5,a0
  204222:	86ae                	mv	a3,a1
  204224:	8732                	mv	a4,a2
  204226:	fef42623          	sw	a5,-20(s0)
  20422a:	87b6                	mv	a5,a3
  20422c:	fef42423          	sw	a5,-24(s0)
  204230:	87ba                	mv	a5,a4
  204232:	fef42223          	sw	a5,-28(s0)
  204236:	002107b7          	lui	a5,0x210
  20423a:	e6878713          	addi	a4,a5,-408 # 20fe68 <nandReqQ>
  20423e:	fe446783          	lwu	a5,-28(s0)
  204242:	fe846683          	lwu	a3,-24(s0)
  204246:	068e                	slli	a3,a3,0x3
  204248:	97b6                	add	a5,a5,a3
  20424a:	078e                	slli	a5,a5,0x3
  20424c:	97ba                	add	a5,a5,a4
  20424e:	0027d783          	lhu	a5,2(a5)
  204252:	0007871b          	sext.w	a4,a5
  204256:	67c1                	lui	a5,0x10
  204258:	17fd                	addi	a5,a5,-1
  20425a:	0af70f63          	beq	a4,a5,204318 <PutToNandReqQ+0xfe>
  20425e:	002107b7          	lui	a5,0x210
  204262:	e507b683          	ld	a3,-432(a5) # 20fe50 <reqPoolPtr>
  204266:	002107b7          	lui	a5,0x210
  20426a:	e6878713          	addi	a4,a5,-408 # 20fe68 <nandReqQ>
  20426e:	fe446783          	lwu	a5,-28(s0)
  204272:	fe846603          	lwu	a2,-24(s0)
  204276:	060e                	slli	a2,a2,0x3
  204278:	97b2                	add	a5,a5,a2
  20427a:	078e                	slli	a5,a5,0x3
  20427c:	97ba                	add	a5,a5,a4
  20427e:	0027d703          	lhu	a4,2(a5)
  204282:	fec46603          	lwu	a2,-20(s0)
  204286:	03400793          	li	a5,52
  20428a:	02f607b3          	mul	a5,a2,a5
  20428e:	97b6                	add	a5,a5,a3
  204290:	02e79623          	sh	a4,44(a5)
  204294:	002107b7          	lui	a5,0x210
  204298:	e507b703          	ld	a4,-432(a5) # 20fe50 <reqPoolPtr>
  20429c:	fec46683          	lwu	a3,-20(s0)
  2042a0:	03400793          	li	a5,52
  2042a4:	02f687b3          	mul	a5,a3,a5
  2042a8:	97ba                	add	a5,a5,a4
  2042aa:	577d                	li	a4,-1
  2042ac:	02e79723          	sh	a4,46(a5)
  2042b0:	002107b7          	lui	a5,0x210
  2042b4:	e507b683          	ld	a3,-432(a5) # 20fe50 <reqPoolPtr>
  2042b8:	002107b7          	lui	a5,0x210
  2042bc:	e6878713          	addi	a4,a5,-408 # 20fe68 <nandReqQ>
  2042c0:	fe446783          	lwu	a5,-28(s0)
  2042c4:	fe846603          	lwu	a2,-24(s0)
  2042c8:	060e                	slli	a2,a2,0x3
  2042ca:	97b2                	add	a5,a5,a2
  2042cc:	078e                	slli	a5,a5,0x3
  2042ce:	97ba                	add	a5,a5,a4
  2042d0:	0027d783          	lhu	a5,2(a5)
  2042d4:	0007861b          	sext.w	a2,a5
  2042d8:	fec42783          	lw	a5,-20(s0)
  2042dc:	03079713          	slli	a4,a5,0x30
  2042e0:	9341                	srli	a4,a4,0x30
  2042e2:	03400793          	li	a5,52
  2042e6:	02f607b3          	mul	a5,a2,a5
  2042ea:	97b6                	add	a5,a5,a3
  2042ec:	02e79723          	sh	a4,46(a5)
  2042f0:	fec42783          	lw	a5,-20(s0)
  2042f4:	03079713          	slli	a4,a5,0x30
  2042f8:	9341                	srli	a4,a4,0x30
  2042fa:	002107b7          	lui	a5,0x210
  2042fe:	e6878693          	addi	a3,a5,-408 # 20fe68 <nandReqQ>
  204302:	fe446783          	lwu	a5,-28(s0)
  204306:	fe846603          	lwu	a2,-24(s0)
  20430a:	060e                	slli	a2,a2,0x3
  20430c:	97b2                	add	a5,a5,a2
  20430e:	078e                	slli	a5,a5,0x3
  204310:	97b6                	add	a5,a5,a3
  204312:	00e79123          	sh	a4,2(a5)
  204316:	a059                	j	20439c <PutToNandReqQ+0x182>
  204318:	002107b7          	lui	a5,0x210
  20431c:	e507b703          	ld	a4,-432(a5) # 20fe50 <reqPoolPtr>
  204320:	fec46683          	lwu	a3,-20(s0)
  204324:	03400793          	li	a5,52
  204328:	02f687b3          	mul	a5,a3,a5
  20432c:	97ba                	add	a5,a5,a4
  20432e:	577d                	li	a4,-1
  204330:	02e79623          	sh	a4,44(a5)
  204334:	002107b7          	lui	a5,0x210
  204338:	e507b703          	ld	a4,-432(a5) # 20fe50 <reqPoolPtr>
  20433c:	fec46683          	lwu	a3,-20(s0)
  204340:	03400793          	li	a5,52
  204344:	02f687b3          	mul	a5,a3,a5
  204348:	97ba                	add	a5,a5,a4
  20434a:	577d                	li	a4,-1
  20434c:	02e79723          	sh	a4,46(a5)
  204350:	fec42783          	lw	a5,-20(s0)
  204354:	03079713          	slli	a4,a5,0x30
  204358:	9341                	srli	a4,a4,0x30
  20435a:	002107b7          	lui	a5,0x210
  20435e:	e6878693          	addi	a3,a5,-408 # 20fe68 <nandReqQ>
  204362:	fe446783          	lwu	a5,-28(s0)
  204366:	fe846603          	lwu	a2,-24(s0)
  20436a:	060e                	slli	a2,a2,0x3
  20436c:	97b2                	add	a5,a5,a2
  20436e:	078e                	slli	a5,a5,0x3
  204370:	97b6                	add	a5,a5,a3
  204372:	00e79023          	sh	a4,0(a5)
  204376:	fec42783          	lw	a5,-20(s0)
  20437a:	03079713          	slli	a4,a5,0x30
  20437e:	9341                	srli	a4,a4,0x30
  204380:	002107b7          	lui	a5,0x210
  204384:	e6878693          	addi	a3,a5,-408 # 20fe68 <nandReqQ>
  204388:	fe446783          	lwu	a5,-28(s0)
  20438c:	fe846603          	lwu	a2,-24(s0)
  204390:	060e                	slli	a2,a2,0x3
  204392:	97b2                	add	a5,a5,a2
  204394:	078e                	slli	a5,a5,0x3
  204396:	97b6                	add	a5,a5,a3
  204398:	00e79123          	sh	a4,2(a5)
  20439c:	002107b7          	lui	a5,0x210
  2043a0:	e507b703          	ld	a4,-432(a5) # 20fe50 <reqPoolPtr>
  2043a4:	fec46683          	lwu	a3,-20(s0)
  2043a8:	03400793          	li	a5,52
  2043ac:	02f687b3          	mul	a5,a3,a5
  2043b0:	97ba                	add	a5,a5,a4
  2043b2:	4398                	lw	a4,0(a5)
  2043b4:	f0f77713          	andi	a4,a4,-241
  2043b8:	06076713          	ori	a4,a4,96
  2043bc:	c398                	sw	a4,0(a5)
  2043be:	002107b7          	lui	a5,0x210
  2043c2:	e6878713          	addi	a4,a5,-408 # 20fe68 <nandReqQ>
  2043c6:	fe446783          	lwu	a5,-28(s0)
  2043ca:	fe846683          	lwu	a3,-24(s0)
  2043ce:	068e                	slli	a3,a3,0x3
  2043d0:	97b6                	add	a5,a5,a3
  2043d2:	078e                	slli	a5,a5,0x3
  2043d4:	97ba                	add	a5,a5,a4
  2043d6:	0047d783          	lhu	a5,4(a5)
  2043da:	2785                	addiw	a5,a5,1
  2043dc:	03079713          	slli	a4,a5,0x30
  2043e0:	9341                	srli	a4,a4,0x30
  2043e2:	002107b7          	lui	a5,0x210
  2043e6:	e6878693          	addi	a3,a5,-408 # 20fe68 <nandReqQ>
  2043ea:	fe446783          	lwu	a5,-28(s0)
  2043ee:	fe846603          	lwu	a2,-24(s0)
  2043f2:	060e                	slli	a2,a2,0x3
  2043f4:	97b2                	add	a5,a5,a2
  2043f6:	078e                	slli	a5,a5,0x3
  2043f8:	97b6                	add	a5,a5,a3
  2043fa:	00e79223          	sh	a4,4(a5)
  2043fe:	002107b7          	lui	a5,0x210
  204402:	c387a783          	lw	a5,-968(a5) # 20fc38 <notCompletedNandReqCnt>
  204406:	2785                	addiw	a5,a5,1
  204408:	0007871b          	sext.w	a4,a5
  20440c:	002107b7          	lui	a5,0x210
  204410:	c2e7ac23          	sw	a4,-968(a5) # 20fc38 <notCompletedNandReqCnt>
  204414:	0001                	nop
  204416:	6462                	ld	s0,24(sp)
  204418:	6105                	addi	sp,sp,32
  20441a:	8082                	ret

000000000020441c <GetFromNandReqQ>:
  20441c:	7179                	addi	sp,sp,-48
  20441e:	f406                	sd	ra,40(sp)
  204420:	f022                	sd	s0,32(sp)
  204422:	1800                	addi	s0,sp,48
  204424:	87aa                	mv	a5,a0
  204426:	8736                	mv	a4,a3
  204428:	fcf42e23          	sw	a5,-36(s0)
  20442c:	87ae                	mv	a5,a1
  20442e:	fcf42c23          	sw	a5,-40(s0)
  204432:	87b2                	mv	a5,a2
  204434:	fcf42a23          	sw	a5,-44(s0)
  204438:	87ba                	mv	a5,a4
  20443a:	fcf42823          	sw	a5,-48(s0)
  20443e:	002107b7          	lui	a5,0x210
  204442:	e6878713          	addi	a4,a5,-408 # 20fe68 <nandReqQ>
  204446:	fd846783          	lwu	a5,-40(s0)
  20444a:	fdc46683          	lwu	a3,-36(s0)
  20444e:	068e                	slli	a3,a3,0x3
  204450:	97b6                	add	a5,a5,a3
  204452:	078e                	slli	a5,a5,0x3
  204454:	97ba                	add	a5,a5,a4
  204456:	0007d783          	lhu	a5,0(a5)
  20445a:	fef42623          	sw	a5,-20(s0)
  20445e:	fec42783          	lw	a5,-20(s0)
  204462:	0007871b          	sext.w	a4,a5
  204466:	67c1                	lui	a5,0x10
  204468:	17fd                	addi	a5,a5,-1
  20446a:	00f71863          	bne	a4,a5,20447a <GetFromNandReqQ+0x5e>
  20446e:	0020f7b7          	lui	a5,0x20f
  204472:	18078513          	addi	a0,a5,384 # 20f180 <nvme_main+0x808>
  204476:	1a2000ef          	jal	ra,204618 <cpl_print>
  20447a:	002107b7          	lui	a5,0x210
  20447e:	e507b703          	ld	a4,-432(a5) # 20fe50 <reqPoolPtr>
  204482:	fec46683          	lwu	a3,-20(s0)
  204486:	03400793          	li	a5,52
  20448a:	02f687b3          	mul	a5,a3,a5
  20448e:	97ba                	add	a5,a5,a4
  204490:	02e7d783          	lhu	a5,46(a5)
  204494:	0007871b          	sext.w	a4,a5
  204498:	67c1                	lui	a5,0x10
  20449a:	17fd                	addi	a5,a5,-1
  20449c:	06f70963          	beq	a4,a5,20450e <GetFromNandReqQ+0xf2>
  2044a0:	002107b7          	lui	a5,0x210
  2044a4:	e507b703          	ld	a4,-432(a5) # 20fe50 <reqPoolPtr>
  2044a8:	fec46683          	lwu	a3,-20(s0)
  2044ac:	03400793          	li	a5,52
  2044b0:	02f687b3          	mul	a5,a3,a5
  2044b4:	97ba                	add	a5,a5,a4
  2044b6:	02e7d703          	lhu	a4,46(a5)
  2044ba:	002107b7          	lui	a5,0x210
  2044be:	e6878693          	addi	a3,a5,-408 # 20fe68 <nandReqQ>
  2044c2:	fd846783          	lwu	a5,-40(s0)
  2044c6:	fdc46603          	lwu	a2,-36(s0)
  2044ca:	060e                	slli	a2,a2,0x3
  2044cc:	97b2                	add	a5,a5,a2
  2044ce:	078e                	slli	a5,a5,0x3
  2044d0:	97b6                	add	a5,a5,a3
  2044d2:	00e79023          	sh	a4,0(a5)
  2044d6:	002107b7          	lui	a5,0x210
  2044da:	e507b703          	ld	a4,-432(a5) # 20fe50 <reqPoolPtr>
  2044de:	002107b7          	lui	a5,0x210
  2044e2:	e507b683          	ld	a3,-432(a5) # 20fe50 <reqPoolPtr>
  2044e6:	fec46603          	lwu	a2,-20(s0)
  2044ea:	03400793          	li	a5,52
  2044ee:	02f607b3          	mul	a5,a2,a5
  2044f2:	97b6                	add	a5,a5,a3
  2044f4:	02e7d783          	lhu	a5,46(a5)
  2044f8:	0007869b          	sext.w	a3,a5
  2044fc:	03400793          	li	a5,52
  204500:	02f687b3          	mul	a5,a3,a5
  204504:	97ba                	add	a5,a5,a4
  204506:	577d                	li	a4,-1
  204508:	02e79623          	sh	a4,44(a5)
  20450c:	a83d                	j	20454a <GetFromNandReqQ+0x12e>
  20450e:	002107b7          	lui	a5,0x210
  204512:	e6878713          	addi	a4,a5,-408 # 20fe68 <nandReqQ>
  204516:	fd846783          	lwu	a5,-40(s0)
  20451a:	fdc46683          	lwu	a3,-36(s0)
  20451e:	068e                	slli	a3,a3,0x3
  204520:	97b6                	add	a5,a5,a3
  204522:	078e                	slli	a5,a5,0x3
  204524:	97ba                	add	a5,a5,a4
  204526:	577d                	li	a4,-1
  204528:	00e79023          	sh	a4,0(a5)
  20452c:	002107b7          	lui	a5,0x210
  204530:	e6878713          	addi	a4,a5,-408 # 20fe68 <nandReqQ>
  204534:	fd846783          	lwu	a5,-40(s0)
  204538:	fdc46683          	lwu	a3,-36(s0)
  20453c:	068e                	slli	a3,a3,0x3
  20453e:	97b6                	add	a5,a5,a3
  204540:	078e                	slli	a5,a5,0x3
  204542:	97ba                	add	a5,a5,a4
  204544:	577d                	li	a4,-1
  204546:	00e79123          	sh	a4,2(a5)
  20454a:	002107b7          	lui	a5,0x210
  20454e:	e507b703          	ld	a4,-432(a5) # 20fe50 <reqPoolPtr>
  204552:	fec46683          	lwu	a3,-20(s0)
  204556:	03400793          	li	a5,52
  20455a:	02f687b3          	mul	a5,a3,a5
  20455e:	97ba                	add	a5,a5,a4
  204560:	4398                	lw	a4,0(a5)
  204562:	f0f77713          	andi	a4,a4,-241
  204566:	c398                	sw	a4,0(a5)
  204568:	002107b7          	lui	a5,0x210
  20456c:	e6878713          	addi	a4,a5,-408 # 20fe68 <nandReqQ>
  204570:	fd846783          	lwu	a5,-40(s0)
  204574:	fdc46683          	lwu	a3,-36(s0)
  204578:	068e                	slli	a3,a3,0x3
  20457a:	97b6                	add	a5,a5,a3
  20457c:	078e                	slli	a5,a5,0x3
  20457e:	97ba                	add	a5,a5,a4
  204580:	0047d783          	lhu	a5,4(a5)
  204584:	37fd                	addiw	a5,a5,-1
  204586:	03079713          	slli	a4,a5,0x30
  20458a:	9341                	srli	a4,a4,0x30
  20458c:	002107b7          	lui	a5,0x210
  204590:	e6878693          	addi	a3,a5,-408 # 20fe68 <nandReqQ>
  204594:	fd846783          	lwu	a5,-40(s0)
  204598:	fdc46603          	lwu	a2,-36(s0)
  20459c:	060e                	slli	a2,a2,0x3
  20459e:	97b2                	add	a5,a5,a2
  2045a0:	078e                	slli	a5,a5,0x3
  2045a2:	97b6                	add	a5,a5,a3
  2045a4:	00e79223          	sh	a4,4(a5)
  2045a8:	002107b7          	lui	a5,0x210
  2045ac:	c387a783          	lw	a5,-968(a5) # 20fc38 <notCompletedNandReqCnt>
  2045b0:	37fd                	addiw	a5,a5,-1
  2045b2:	0007871b          	sext.w	a4,a5
  2045b6:	002107b7          	lui	a5,0x210
  2045ba:	c2e7ac23          	sw	a4,-968(a5) # 20fc38 <notCompletedNandReqCnt>
  2045be:	fec42783          	lw	a5,-20(s0)
  2045c2:	853e                	mv	a0,a5
  2045c4:	ca5fe0ef          	jal	ra,203268 <PutToFreeReqQ>
  2045c8:	fec42783          	lw	a5,-20(s0)
  2045cc:	853e                	mv	a0,a5
  2045ce:	258070ef          	jal	ra,20b826 <ReleaseBlockedByBufDepReq>
  2045d2:	0001                	nop
  2045d4:	70a2                	ld	ra,40(sp)
  2045d6:	7402                	ld	s0,32(sp)
  2045d8:	6145                	addi	sp,sp,48
  2045da:	8082                	ret

00000000002045dc <XUartPs_SendByte>:
  2045dc:	02c5071b          	addiw	a4,a0,44
  2045e0:	1702                	slli	a4,a4,0x20
  2045e2:	9301                	srli	a4,a4,0x20
  2045e4:	431c                	lw	a5,0(a4)
  2045e6:	8bc1                	andi	a5,a5,16
  2045e8:	fff5                	bnez	a5,2045e4 <XUartPs_SendByte+0x8>
  2045ea:	0305051b          	addiw	a0,a0,48
  2045ee:	1502                	slli	a0,a0,0x20
  2045f0:	2581                	sext.w	a1,a1
  2045f2:	9101                	srli	a0,a0,0x20
  2045f4:	c10c                	sw	a1,0(a0)
  2045f6:	8082                	ret

00000000002045f8 <outbyte>:
  2045f8:	38000737          	lui	a4,0x38000
  2045fc:	40b70713          	addi	a4,a4,1035 # 3800040b <g_nvmeTask+0x37df02c3>
  204600:	070a                	slli	a4,a4,0x2
  204602:	431c                	lw	a5,0(a4)
  204604:	8bc1                	andi	a5,a5,16
  204606:	fff5                	bnez	a5,204602 <outbyte+0xa>
  204608:	0e0007b7          	lui	a5,0xe000
  20460c:	10378793          	addi	a5,a5,259 # e000103 <g_nvmeTask+0xddeffbb>
  204610:	2501                	sext.w	a0,a0
  204612:	0792                	slli	a5,a5,0x4
  204614:	c388                	sw	a0,0(a5)
  204616:	8082                	ret

0000000000204618 <cpl_print>:
  204618:	00054683          	lbu	a3,0(a0) # 11144000 <g_nvmeTask+0x10f33eb8>
  20461c:	c685                	beqz	a3,204644 <cpl_print+0x2c>
  20461e:	38000737          	lui	a4,0x38000
  204622:	0e000637          	lui	a2,0xe000
  204626:	40b70713          	addi	a4,a4,1035 # 3800040b <g_nvmeTask+0x37df02c3>
  20462a:	10360613          	addi	a2,a2,259 # e000103 <g_nvmeTask+0xddeffbb>
  20462e:	070a                	slli	a4,a4,0x2
  204630:	0612                	slli	a2,a2,0x4
  204632:	431c                	lw	a5,0(a4)
  204634:	8bc1                	andi	a5,a5,16
  204636:	fff5                	bnez	a5,204632 <cpl_print+0x1a>
  204638:	2681                	sext.w	a3,a3
  20463a:	c214                	sw	a3,0(a2)
  20463c:	00154683          	lbu	a3,1(a0)
  204640:	0505                	addi	a0,a0,1
  204642:	fae5                	bnez	a3,204632 <cpl_print+0x1a>
  204644:	8082                	ret

0000000000204646 <cpl_printint>:
  204646:	c151                	beqz	a0,2046ca <cpl_printint+0x84>
  204648:	1141                	addi	sp,sp,-16
  20464a:	872a                	mv	a4,a0
  20464c:	4781                	li	a5,0
  20464e:	4829                	li	a6,10
  204650:	4625                	li	a2,9
  204652:	0007069b          	sext.w	a3,a4
  204656:	85be                	mv	a1,a5
  204658:	0307573b          	divuw	a4,a4,a6
  20465c:	2785                	addiw	a5,a5,1
  20465e:	fed66ae3          	bltu	a2,a3,204652 <cpl_printint+0xc>
  204662:	00f106b3          	add	a3,sp,a5
  204666:	4629                	li	a2,10
  204668:	48a5                	li	a7,9
  20466a:	16fd                	addi	a3,a3,-1
  20466c:	0005081b          	sext.w	a6,a0
  204670:	02c5773b          	remuw	a4,a0,a2
  204674:	0307071b          	addiw	a4,a4,48
  204678:	00e68023          	sb	a4,0(a3)
  20467c:	02c5553b          	divuw	a0,a0,a2
  204680:	ff08e5e3          	bltu	a7,a6,20466a <cpl_printint+0x24>
  204684:	0818                	addi	a4,sp,16
  204686:	97ba                	add	a5,a5,a4
  204688:	4729                	li	a4,10
  20468a:	fee78823          	sb	a4,-16(a5)
  20468e:	2589                	addiw	a1,a1,2
  204690:	081c                	addi	a5,sp,16
  204692:	97ae                	add	a5,a5,a1
  204694:	fe078823          	sb	zero,-16(a5)
  204698:	00014683          	lbu	a3,0(sp)
  20469c:	c68d                	beqz	a3,2046c6 <cpl_printint+0x80>
  20469e:	38000737          	lui	a4,0x38000
  2046a2:	0e0005b7          	lui	a1,0xe000
  2046a6:	40b70713          	addi	a4,a4,1035 # 3800040b <g_nvmeTask+0x37df02c3>
  2046aa:	10358593          	addi	a1,a1,259 # e000103 <g_nvmeTask+0xddeffbb>
  2046ae:	860a                	mv	a2,sp
  2046b0:	070a                	slli	a4,a4,0x2
  2046b2:	0592                	slli	a1,a1,0x4
  2046b4:	431c                	lw	a5,0(a4)
  2046b6:	8bc1                	andi	a5,a5,16
  2046b8:	fff5                	bnez	a5,2046b4 <cpl_printint+0x6e>
  2046ba:	2681                	sext.w	a3,a3
  2046bc:	c194                	sw	a3,0(a1)
  2046be:	00164683          	lbu	a3,1(a2)
  2046c2:	0605                	addi	a2,a2,1
  2046c4:	fae5                	bnez	a3,2046b4 <cpl_printint+0x6e>
  2046c6:	0141                	addi	sp,sp,16
  2046c8:	8082                	ret
  2046ca:	38000737          	lui	a4,0x38000
  2046ce:	0e0005b7          	lui	a1,0xe000
  2046d2:	00210637          	lui	a2,0x210
  2046d6:	40b70713          	addi	a4,a4,1035 # 3800040b <g_nvmeTask+0x37df02c3>
  2046da:	10358593          	addi	a1,a1,259 # e000103 <g_nvmeTask+0xddeffbb>
  2046de:	82860613          	addi	a2,a2,-2008 # 20f828 <nvme_main+0xeb0>
  2046e2:	03000693          	li	a3,48
  2046e6:	070a                	slli	a4,a4,0x2
  2046e8:	0592                	slli	a1,a1,0x4
  2046ea:	431c                	lw	a5,0(a4)
  2046ec:	8bc1                	andi	a5,a5,16
  2046ee:	fff5                	bnez	a5,2046ea <cpl_printint+0xa4>
  2046f0:	2681                	sext.w	a3,a3
  2046f2:	c194                	sw	a3,0(a1)
  2046f4:	00164683          	lbu	a3,1(a2)
  2046f8:	0605                	addi	a2,a2,1
  2046fa:	fae5                	bnez	a3,2046ea <cpl_printint+0xa4>
  2046fc:	8082                	ret

00000000002046fe <cpl_printint_no_enter>:
  2046fe:	c149                	beqz	a0,204780 <cpl_printint_no_enter+0x82>
  204700:	1141                	addi	sp,sp,-16
  204702:	872a                	mv	a4,a0
  204704:	4781                	li	a5,0
  204706:	4829                	li	a6,10
  204708:	4625                	li	a2,9
  20470a:	0007069b          	sext.w	a3,a4
  20470e:	85be                	mv	a1,a5
  204710:	0307573b          	divuw	a4,a4,a6
  204714:	2785                	addiw	a5,a5,1
  204716:	fed66ae3          	bltu	a2,a3,20470a <cpl_printint_no_enter+0xc>
  20471a:	00f106b3          	add	a3,sp,a5
  20471e:	4629                	li	a2,10
  204720:	48a5                	li	a7,9
  204722:	16fd                	addi	a3,a3,-1
  204724:	0005081b          	sext.w	a6,a0
  204728:	02c5773b          	remuw	a4,a0,a2
  20472c:	0307071b          	addiw	a4,a4,48
  204730:	00e68023          	sb	a4,0(a3)
  204734:	02c5553b          	divuw	a0,a0,a2
  204738:	ff08e5e3          	bltu	a7,a6,204722 <cpl_printint_no_enter+0x24>
  20473c:	0818                	addi	a4,sp,16
  20473e:	97ba                	add	a5,a5,a4
  204740:	2589                	addiw	a1,a1,2
  204742:	ff178823          	sb	a7,-16(a5)
  204746:	00b707b3          	add	a5,a4,a1
  20474a:	fe078823          	sb	zero,-16(a5)
  20474e:	00014683          	lbu	a3,0(sp)
  204752:	c68d                	beqz	a3,20477c <cpl_printint_no_enter+0x7e>
  204754:	38000737          	lui	a4,0x38000
  204758:	0e0005b7          	lui	a1,0xe000
  20475c:	40b70713          	addi	a4,a4,1035 # 3800040b <g_nvmeTask+0x37df02c3>
  204760:	10358593          	addi	a1,a1,259 # e000103 <g_nvmeTask+0xddeffbb>
  204764:	860a                	mv	a2,sp
  204766:	070a                	slli	a4,a4,0x2
  204768:	0592                	slli	a1,a1,0x4
  20476a:	431c                	lw	a5,0(a4)
  20476c:	8bc1                	andi	a5,a5,16
  20476e:	fff5                	bnez	a5,20476a <cpl_printint_no_enter+0x6c>
  204770:	2681                	sext.w	a3,a3
  204772:	c194                	sw	a3,0(a1)
  204774:	00164683          	lbu	a3,1(a2)
  204778:	0605                	addi	a2,a2,1
  20477a:	fae5                	bnez	a3,20476a <cpl_printint_no_enter+0x6c>
  20477c:	0141                	addi	sp,sp,16
  20477e:	8082                	ret
  204780:	38000737          	lui	a4,0x38000
  204784:	0e0005b7          	lui	a1,0xe000
  204788:	00210637          	lui	a2,0x210
  20478c:	40b70713          	addi	a4,a4,1035 # 3800040b <g_nvmeTask+0x37df02c3>
  204790:	10358593          	addi	a1,a1,259 # e000103 <g_nvmeTask+0xddeffbb>
  204794:	83060613          	addi	a2,a2,-2000 # 20f830 <nvme_main+0xeb8>
  204798:	03000693          	li	a3,48
  20479c:	070a                	slli	a4,a4,0x2
  20479e:	0592                	slli	a1,a1,0x4
  2047a0:	431c                	lw	a5,0(a4)
  2047a2:	8bc1                	andi	a5,a5,16
  2047a4:	fff5                	bnez	a5,2047a0 <cpl_printint_no_enter+0xa2>
  2047a6:	2681                	sext.w	a3,a3
  2047a8:	c194                	sw	a3,0(a1)
  2047aa:	00164683          	lbu	a3,1(a2)
  2047ae:	0605                	addi	a2,a2,1
  2047b0:	fae5                	bnez	a3,2047a0 <cpl_printint_no_enter+0xa2>
  2047b2:	8082                	ret

00000000002047b4 <cpl_Out32>:
  2047b4:	c10c                	sw	a1,0(a0)
  2047b6:	8082                	ret

00000000002047b8 <cpl_In32>:
  2047b8:	4108                	lw	a0,0(a0)
  2047ba:	2501                	sext.w	a0,a0
  2047bc:	8082                	ret

00000000002047be <Uart_ResetTxFifo>:
  2047be:	1502                	slli	a0,a0,0x20
  2047c0:	9101                	srli	a0,a0,0x20
  2047c2:	411c                	lw	a5,0(a0)
  2047c4:	2781                	sext.w	a5,a5
  2047c6:	0027e713          	ori	a4,a5,2
  2047ca:	c118                	sw	a4,0(a0)
  2047cc:	9bf5                	andi	a5,a5,-3
  2047ce:	c11c                	sw	a5,0(a0)
  2047d0:	8082                	ret

00000000002047d2 <InitDataBuf>:
  2047d2:	1101                	addi	sp,sp,-32
  2047d4:	ec22                	sd	s0,24(sp)
  2047d6:	1000                	addi	s0,sp,32
  2047d8:	002107b7          	lui	a5,0x210
  2047dc:	18000737          	lui	a4,0x18000
  2047e0:	06e7b823          	sd	a4,112(a5) # 210070 <dataBufMapPtr>
  2047e4:	002107b7          	lui	a5,0x210
  2047e8:	18004737          	lui	a4,0x18004
  2047ec:	08e7b023          	sd	a4,128(a5) # 210080 <dataBufHashTablePtr>
  2047f0:	002107b7          	lui	a5,0x210
  2047f4:	18005737          	lui	a4,0x18005
  2047f8:	06e7bc23          	sd	a4,120(a5) # 210078 <tempDataBufMapPtr>
  2047fc:	fe042623          	sw	zero,-20(s0)
  204800:	a8c5                	j	2048f0 <InitDataBuf+0x11e>
  204802:	002107b7          	lui	a5,0x210
  204806:	0707b703          	ld	a4,112(a5) # 210070 <dataBufMapPtr>
  20480a:	fec42783          	lw	a5,-20(s0)
  20480e:	0792                	slli	a5,a5,0x4
  204810:	97ba                	add	a5,a5,a4
  204812:	577d                	li	a4,-1
  204814:	c398                	sw	a4,0(a5)
  204816:	fec42783          	lw	a5,-20(s0)
  20481a:	17c2                	slli	a5,a5,0x30
  20481c:	93c1                	srli	a5,a5,0x30
  20481e:	00210737          	lui	a4,0x210
  204822:	07073683          	ld	a3,112(a4) # 210070 <dataBufMapPtr>
  204826:	37fd                	addiw	a5,a5,-1
  204828:	03079713          	slli	a4,a5,0x30
  20482c:	9341                	srli	a4,a4,0x30
  20482e:	fec42783          	lw	a5,-20(s0)
  204832:	0792                	slli	a5,a5,0x4
  204834:	97b6                	add	a5,a5,a3
  204836:	00e79223          	sh	a4,4(a5)
  20483a:	fec42783          	lw	a5,-20(s0)
  20483e:	17c2                	slli	a5,a5,0x30
  204840:	93c1                	srli	a5,a5,0x30
  204842:	00210737          	lui	a4,0x210
  204846:	07073683          	ld	a3,112(a4) # 210070 <dataBufMapPtr>
  20484a:	2785                	addiw	a5,a5,1
  20484c:	03079713          	slli	a4,a5,0x30
  204850:	9341                	srli	a4,a4,0x30
  204852:	fec42783          	lw	a5,-20(s0)
  204856:	0792                	slli	a5,a5,0x4
  204858:	97b6                	add	a5,a5,a3
  20485a:	00e79323          	sh	a4,6(a5)
  20485e:	002107b7          	lui	a5,0x210
  204862:	0707b703          	ld	a4,112(a5) # 210070 <dataBufMapPtr>
  204866:	fec42783          	lw	a5,-20(s0)
  20486a:	0792                	slli	a5,a5,0x4
  20486c:	97ba                	add	a5,a5,a4
  20486e:	47d4                	lw	a3,12(a5)
  204870:	7741                	lui	a4,0xffff0
  204872:	177d                	addi	a4,a4,-1
  204874:	8f75                	and	a4,a4,a3
  204876:	c7d8                	sw	a4,12(a5)
  204878:	002107b7          	lui	a5,0x210
  20487c:	0707b703          	ld	a4,112(a5) # 210070 <dataBufMapPtr>
  204880:	fec42783          	lw	a5,-20(s0)
  204884:	0792                	slli	a5,a5,0x4
  204886:	97ba                	add	a5,a5,a4
  204888:	577d                	li	a4,-1
  20488a:	00e79423          	sh	a4,8(a5)
  20488e:	002107b7          	lui	a5,0x210
  204892:	0807b703          	ld	a4,128(a5) # 210080 <dataBufHashTablePtr>
  204896:	fec42783          	lw	a5,-20(s0)
  20489a:	078a                	slli	a5,a5,0x2
  20489c:	97ba                	add	a5,a5,a4
  20489e:	577d                	li	a4,-1
  2048a0:	00e79023          	sh	a4,0(a5)
  2048a4:	002107b7          	lui	a5,0x210
  2048a8:	0807b703          	ld	a4,128(a5) # 210080 <dataBufHashTablePtr>
  2048ac:	fec42783          	lw	a5,-20(s0)
  2048b0:	078a                	slli	a5,a5,0x2
  2048b2:	97ba                	add	a5,a5,a4
  2048b4:	577d                	li	a4,-1
  2048b6:	00e79123          	sh	a4,2(a5)
  2048ba:	002107b7          	lui	a5,0x210
  2048be:	0707b703          	ld	a4,112(a5) # 210070 <dataBufMapPtr>
  2048c2:	fec42783          	lw	a5,-20(s0)
  2048c6:	0792                	slli	a5,a5,0x4
  2048c8:	97ba                	add	a5,a5,a4
  2048ca:	577d                	li	a4,-1
  2048cc:	00e79523          	sh	a4,10(a5)
  2048d0:	002107b7          	lui	a5,0x210
  2048d4:	0707b703          	ld	a4,112(a5) # 210070 <dataBufMapPtr>
  2048d8:	fec42783          	lw	a5,-20(s0)
  2048dc:	0792                	slli	a5,a5,0x4
  2048de:	97ba                	add	a5,a5,a4
  2048e0:	577d                	li	a4,-1
  2048e2:	00e79623          	sh	a4,12(a5)
  2048e6:	fec42783          	lw	a5,-20(s0)
  2048ea:	2785                	addiw	a5,a5,1
  2048ec:	fef42623          	sw	a5,-20(s0)
  2048f0:	fec42783          	lw	a5,-20(s0)
  2048f4:	0007871b          	sext.w	a4,a5
  2048f8:	3ff00793          	li	a5,1023
  2048fc:	f0e7d3e3          	bge	a5,a4,204802 <InitDataBuf+0x30>
  204900:	002107b7          	lui	a5,0x210
  204904:	0707b783          	ld	a5,112(a5) # 210070 <dataBufMapPtr>
  204908:	577d                	li	a4,-1
  20490a:	00e79223          	sh	a4,4(a5)
  20490e:	002107b7          	lui	a5,0x210
  204912:	0707b703          	ld	a4,112(a5) # 210070 <dataBufMapPtr>
  204916:	6791                	lui	a5,0x4
  204918:	97ba                	add	a5,a5,a4
  20491a:	577d                	li	a4,-1
  20491c:	fee79b23          	sh	a4,-10(a5) # 3ff6 <start-0x1fc00a>
  204920:	002107b7          	lui	a5,0x210
  204924:	08079423          	sh	zero,136(a5) # 210088 <dataBufLruList>
  204928:	002107b7          	lui	a5,0x210
  20492c:	08878793          	addi	a5,a5,136 # 210088 <dataBufLruList>
  204930:	3ff00713          	li	a4,1023
  204934:	00e79123          	sh	a4,2(a5)
  204938:	fe042623          	sw	zero,-20(s0)
  20493c:	a00d                	j	20495e <InitDataBuf+0x18c>
  20493e:	002107b7          	lui	a5,0x210
  204942:	0787b703          	ld	a4,120(a5) # 210078 <tempDataBufMapPtr>
  204946:	fec42783          	lw	a5,-20(s0)
  20494a:	078a                	slli	a5,a5,0x2
  20494c:	97ba                	add	a5,a5,a4
  20494e:	577d                	li	a4,-1
  204950:	00e79023          	sh	a4,0(a5)
  204954:	fec42783          	lw	a5,-20(s0)
  204958:	2785                	addiw	a5,a5,1
  20495a:	fef42623          	sw	a5,-20(s0)
  20495e:	fec42783          	lw	a5,-20(s0)
  204962:	0007871b          	sext.w	a4,a5
  204966:	03f00793          	li	a5,63
  20496a:	fce7dae3          	bge	a5,a4,20493e <InitDataBuf+0x16c>
  20496e:	0001                	nop
  204970:	0001                	nop
  204972:	6462                	ld	s0,24(sp)
  204974:	6105                	addi	sp,sp,32
  204976:	8082                	ret

0000000000204978 <CheckDataBufHit>:
  204978:	7179                	addi	sp,sp,-48
  20497a:	f422                	sd	s0,40(sp)
  20497c:	1800                	addi	s0,sp,48
  20497e:	87aa                	mv	a5,a0
  204980:	fcf42e23          	sw	a5,-36(s0)
  204984:	002107b7          	lui	a5,0x210
  204988:	e507b703          	ld	a4,-432(a5) # 20fe50 <reqPoolPtr>
  20498c:	fdc46683          	lwu	a3,-36(s0)
  204990:	03400793          	li	a5,52
  204994:	02f687b3          	mul	a5,a3,a5
  204998:	97ba                	add	a5,a5,a4
  20499a:	47dc                	lw	a5,12(a5)
  20499c:	fef42423          	sw	a5,-24(s0)
  2049a0:	002107b7          	lui	a5,0x210
  2049a4:	0807b703          	ld	a4,128(a5) # 210080 <dataBufHashTablePtr>
  2049a8:	fe842783          	lw	a5,-24(s0)
  2049ac:	3ff7f793          	andi	a5,a5,1023
  2049b0:	2781                	sext.w	a5,a5
  2049b2:	1782                	slli	a5,a5,0x20
  2049b4:	9381                	srli	a5,a5,0x20
  2049b6:	078a                	slli	a5,a5,0x2
  2049b8:	97ba                	add	a5,a5,a4
  2049ba:	0007d783          	lhu	a5,0(a5)
  2049be:	fef42623          	sw	a5,-20(s0)
  2049c2:	accd                	j	204cb4 <CheckDataBufHit+0x33c>
  2049c4:	002107b7          	lui	a5,0x210
  2049c8:	0707b703          	ld	a4,112(a5) # 210070 <dataBufMapPtr>
  2049cc:	fec46783          	lwu	a5,-20(s0)
  2049d0:	0792                	slli	a5,a5,0x4
  2049d2:	97ba                	add	a5,a5,a4
  2049d4:	4398                	lw	a4,0(a5)
  2049d6:	fe842783          	lw	a5,-24(s0)
  2049da:	2781                	sext.w	a5,a5
  2049dc:	2ce79063          	bne	a5,a4,204c9c <CheckDataBufHit+0x324>
  2049e0:	002107b7          	lui	a5,0x210
  2049e4:	0707b703          	ld	a4,112(a5) # 210070 <dataBufMapPtr>
  2049e8:	fec46783          	lwu	a5,-20(s0)
  2049ec:	0792                	slli	a5,a5,0x4
  2049ee:	97ba                	add	a5,a5,a4
  2049f0:	0067d783          	lhu	a5,6(a5)
  2049f4:	0007871b          	sext.w	a4,a5
  2049f8:	67c1                	lui	a5,0x10
  2049fa:	17fd                	addi	a5,a5,-1
  2049fc:	0af70163          	beq	a4,a5,204a9e <CheckDataBufHit+0x126>
  204a00:	002107b7          	lui	a5,0x210
  204a04:	0707b703          	ld	a4,112(a5) # 210070 <dataBufMapPtr>
  204a08:	fec46783          	lwu	a5,-20(s0)
  204a0c:	0792                	slli	a5,a5,0x4
  204a0e:	97ba                	add	a5,a5,a4
  204a10:	0047d783          	lhu	a5,4(a5)
  204a14:	0007871b          	sext.w	a4,a5
  204a18:	67c1                	lui	a5,0x10
  204a1a:	17fd                	addi	a5,a5,-1
  204a1c:	08f70163          	beq	a4,a5,204a9e <CheckDataBufHit+0x126>
  204a20:	002107b7          	lui	a5,0x210
  204a24:	0707b703          	ld	a4,112(a5) # 210070 <dataBufMapPtr>
  204a28:	002107b7          	lui	a5,0x210
  204a2c:	0707b683          	ld	a3,112(a5) # 210070 <dataBufMapPtr>
  204a30:	002107b7          	lui	a5,0x210
  204a34:	0707b603          	ld	a2,112(a5) # 210070 <dataBufMapPtr>
  204a38:	fec46783          	lwu	a5,-20(s0)
  204a3c:	0792                	slli	a5,a5,0x4
  204a3e:	97b2                	add	a5,a5,a2
  204a40:	0047d783          	lhu	a5,4(a5)
  204a44:	0007861b          	sext.w	a2,a5
  204a48:	fec46783          	lwu	a5,-20(s0)
  204a4c:	0792                	slli	a5,a5,0x4
  204a4e:	97ba                	add	a5,a5,a4
  204a50:	0067d703          	lhu	a4,6(a5)
  204a54:	00461793          	slli	a5,a2,0x4
  204a58:	97b6                	add	a5,a5,a3
  204a5a:	00e79323          	sh	a4,6(a5)
  204a5e:	002107b7          	lui	a5,0x210
  204a62:	0707b703          	ld	a4,112(a5) # 210070 <dataBufMapPtr>
  204a66:	002107b7          	lui	a5,0x210
  204a6a:	0707b683          	ld	a3,112(a5) # 210070 <dataBufMapPtr>
  204a6e:	002107b7          	lui	a5,0x210
  204a72:	0707b603          	ld	a2,112(a5) # 210070 <dataBufMapPtr>
  204a76:	fec46783          	lwu	a5,-20(s0)
  204a7a:	0792                	slli	a5,a5,0x4
  204a7c:	97b2                	add	a5,a5,a2
  204a7e:	0067d783          	lhu	a5,6(a5)
  204a82:	0007861b          	sext.w	a2,a5
  204a86:	fec46783          	lwu	a5,-20(s0)
  204a8a:	0792                	slli	a5,a5,0x4
  204a8c:	97ba                	add	a5,a5,a4
  204a8e:	0047d703          	lhu	a4,4(a5)
  204a92:	00461793          	slli	a5,a2,0x4
  204a96:	97b6                	add	a5,a5,a3
  204a98:	00e79223          	sh	a4,4(a5)
  204a9c:	a22d                	j	204bc6 <CheckDataBufHit+0x24e>
  204a9e:	002107b7          	lui	a5,0x210
  204aa2:	0707b703          	ld	a4,112(a5) # 210070 <dataBufMapPtr>
  204aa6:	fec46783          	lwu	a5,-20(s0)
  204aaa:	0792                	slli	a5,a5,0x4
  204aac:	97ba                	add	a5,a5,a4
  204aae:	0067d783          	lhu	a5,6(a5)
  204ab2:	0007871b          	sext.w	a4,a5
  204ab6:	67c1                	lui	a5,0x10
  204ab8:	17fd                	addi	a5,a5,-1
  204aba:	06f71763          	bne	a4,a5,204b28 <CheckDataBufHit+0x1b0>
  204abe:	002107b7          	lui	a5,0x210
  204ac2:	0707b703          	ld	a4,112(a5) # 210070 <dataBufMapPtr>
  204ac6:	fec46783          	lwu	a5,-20(s0)
  204aca:	0792                	slli	a5,a5,0x4
  204acc:	97ba                	add	a5,a5,a4
  204ace:	0047d783          	lhu	a5,4(a5)
  204ad2:	0007871b          	sext.w	a4,a5
  204ad6:	67c1                	lui	a5,0x10
  204ad8:	17fd                	addi	a5,a5,-1
  204ada:	04f70763          	beq	a4,a5,204b28 <CheckDataBufHit+0x1b0>
  204ade:	002107b7          	lui	a5,0x210
  204ae2:	0707b703          	ld	a4,112(a5) # 210070 <dataBufMapPtr>
  204ae6:	002107b7          	lui	a5,0x210
  204aea:	0707b683          	ld	a3,112(a5) # 210070 <dataBufMapPtr>
  204aee:	fec46783          	lwu	a5,-20(s0)
  204af2:	0792                	slli	a5,a5,0x4
  204af4:	97b6                	add	a5,a5,a3
  204af6:	0047d783          	lhu	a5,4(a5)
  204afa:	2781                	sext.w	a5,a5
  204afc:	0792                	slli	a5,a5,0x4
  204afe:	97ba                	add	a5,a5,a4
  204b00:	577d                	li	a4,-1
  204b02:	00e79323          	sh	a4,6(a5)
  204b06:	002107b7          	lui	a5,0x210
  204b0a:	0707b703          	ld	a4,112(a5) # 210070 <dataBufMapPtr>
  204b0e:	fec46783          	lwu	a5,-20(s0)
  204b12:	0792                	slli	a5,a5,0x4
  204b14:	97ba                	add	a5,a5,a4
  204b16:	0047d703          	lhu	a4,4(a5)
  204b1a:	002107b7          	lui	a5,0x210
  204b1e:	08878793          	addi	a5,a5,136 # 210088 <dataBufLruList>
  204b22:	00e79123          	sh	a4,2(a5)
  204b26:	a045                	j	204bc6 <CheckDataBufHit+0x24e>
  204b28:	002107b7          	lui	a5,0x210
  204b2c:	0707b703          	ld	a4,112(a5) # 210070 <dataBufMapPtr>
  204b30:	fec46783          	lwu	a5,-20(s0)
  204b34:	0792                	slli	a5,a5,0x4
  204b36:	97ba                	add	a5,a5,a4
  204b38:	0067d783          	lhu	a5,6(a5)
  204b3c:	0007871b          	sext.w	a4,a5
  204b40:	67c1                	lui	a5,0x10
  204b42:	17fd                	addi	a5,a5,-1
  204b44:	06f70563          	beq	a4,a5,204bae <CheckDataBufHit+0x236>
  204b48:	002107b7          	lui	a5,0x210
  204b4c:	0707b703          	ld	a4,112(a5) # 210070 <dataBufMapPtr>
  204b50:	fec46783          	lwu	a5,-20(s0)
  204b54:	0792                	slli	a5,a5,0x4
  204b56:	97ba                	add	a5,a5,a4
  204b58:	0047d783          	lhu	a5,4(a5)
  204b5c:	0007871b          	sext.w	a4,a5
  204b60:	67c1                	lui	a5,0x10
  204b62:	17fd                	addi	a5,a5,-1
  204b64:	04f71563          	bne	a4,a5,204bae <CheckDataBufHit+0x236>
  204b68:	002107b7          	lui	a5,0x210
  204b6c:	0707b703          	ld	a4,112(a5) # 210070 <dataBufMapPtr>
  204b70:	002107b7          	lui	a5,0x210
  204b74:	0707b683          	ld	a3,112(a5) # 210070 <dataBufMapPtr>
  204b78:	fec46783          	lwu	a5,-20(s0)
  204b7c:	0792                	slli	a5,a5,0x4
  204b7e:	97b6                	add	a5,a5,a3
  204b80:	0067d783          	lhu	a5,6(a5)
  204b84:	2781                	sext.w	a5,a5
  204b86:	0792                	slli	a5,a5,0x4
  204b88:	97ba                	add	a5,a5,a4
  204b8a:	577d                	li	a4,-1
  204b8c:	00e79223          	sh	a4,4(a5)
  204b90:	002107b7          	lui	a5,0x210
  204b94:	0707b703          	ld	a4,112(a5) # 210070 <dataBufMapPtr>
  204b98:	fec46783          	lwu	a5,-20(s0)
  204b9c:	0792                	slli	a5,a5,0x4
  204b9e:	97ba                	add	a5,a5,a4
  204ba0:	0067d703          	lhu	a4,6(a5)
  204ba4:	002107b7          	lui	a5,0x210
  204ba8:	08e79423          	sh	a4,136(a5) # 210088 <dataBufLruList>
  204bac:	a829                	j	204bc6 <CheckDataBufHit+0x24e>
  204bae:	002107b7          	lui	a5,0x210
  204bb2:	08878793          	addi	a5,a5,136 # 210088 <dataBufLruList>
  204bb6:	577d                	li	a4,-1
  204bb8:	00e79123          	sh	a4,2(a5)
  204bbc:	002107b7          	lui	a5,0x210
  204bc0:	577d                	li	a4,-1
  204bc2:	08e79423          	sh	a4,136(a5) # 210088 <dataBufLruList>
  204bc6:	002107b7          	lui	a5,0x210
  204bca:	0887d783          	lhu	a5,136(a5) # 210088 <dataBufLruList>
  204bce:	0007871b          	sext.w	a4,a5
  204bd2:	67c1                	lui	a5,0x10
  204bd4:	17fd                	addi	a5,a5,-1
  204bd6:	06f70663          	beq	a4,a5,204c42 <CheckDataBufHit+0x2ca>
  204bda:	002107b7          	lui	a5,0x210
  204bde:	0707b703          	ld	a4,112(a5) # 210070 <dataBufMapPtr>
  204be2:	fec46783          	lwu	a5,-20(s0)
  204be6:	0792                	slli	a5,a5,0x4
  204be8:	97ba                	add	a5,a5,a4
  204bea:	577d                	li	a4,-1
  204bec:	00e79223          	sh	a4,4(a5)
  204bf0:	002107b7          	lui	a5,0x210
  204bf4:	0707b683          	ld	a3,112(a5) # 210070 <dataBufMapPtr>
  204bf8:	002107b7          	lui	a5,0x210
  204bfc:	0887d703          	lhu	a4,136(a5) # 210088 <dataBufLruList>
  204c00:	fec46783          	lwu	a5,-20(s0)
  204c04:	0792                	slli	a5,a5,0x4
  204c06:	97b6                	add	a5,a5,a3
  204c08:	00e79323          	sh	a4,6(a5)
  204c0c:	002107b7          	lui	a5,0x210
  204c10:	0707b683          	ld	a3,112(a5) # 210070 <dataBufMapPtr>
  204c14:	002107b7          	lui	a5,0x210
  204c18:	0887d783          	lhu	a5,136(a5) # 210088 <dataBufLruList>
  204c1c:	2781                	sext.w	a5,a5
  204c1e:	fec42703          	lw	a4,-20(s0)
  204c22:	1742                	slli	a4,a4,0x30
  204c24:	9341                	srli	a4,a4,0x30
  204c26:	0792                	slli	a5,a5,0x4
  204c28:	97b6                	add	a5,a5,a3
  204c2a:	00e79223          	sh	a4,4(a5)
  204c2e:	fec42783          	lw	a5,-20(s0)
  204c32:	03079713          	slli	a4,a5,0x30
  204c36:	9341                	srli	a4,a4,0x30
  204c38:	002107b7          	lui	a5,0x210
  204c3c:	08e79423          	sh	a4,136(a5) # 210088 <dataBufLruList>
  204c40:	a899                	j	204c96 <CheckDataBufHit+0x31e>
  204c42:	002107b7          	lui	a5,0x210
  204c46:	0707b703          	ld	a4,112(a5) # 210070 <dataBufMapPtr>
  204c4a:	fec46783          	lwu	a5,-20(s0)
  204c4e:	0792                	slli	a5,a5,0x4
  204c50:	97ba                	add	a5,a5,a4
  204c52:	577d                	li	a4,-1
  204c54:	00e79223          	sh	a4,4(a5)
  204c58:	002107b7          	lui	a5,0x210
  204c5c:	0707b703          	ld	a4,112(a5) # 210070 <dataBufMapPtr>
  204c60:	fec46783          	lwu	a5,-20(s0)
  204c64:	0792                	slli	a5,a5,0x4
  204c66:	97ba                	add	a5,a5,a4
  204c68:	577d                	li	a4,-1
  204c6a:	00e79323          	sh	a4,6(a5)
  204c6e:	fec42783          	lw	a5,-20(s0)
  204c72:	03079713          	slli	a4,a5,0x30
  204c76:	9341                	srli	a4,a4,0x30
  204c78:	002107b7          	lui	a5,0x210
  204c7c:	08e79423          	sh	a4,136(a5) # 210088 <dataBufLruList>
  204c80:	fec42783          	lw	a5,-20(s0)
  204c84:	03079713          	slli	a4,a5,0x30
  204c88:	9341                	srli	a4,a4,0x30
  204c8a:	002107b7          	lui	a5,0x210
  204c8e:	08878793          	addi	a5,a5,136 # 210088 <dataBufLruList>
  204c92:	00e79123          	sh	a4,2(a5)
  204c96:	fec42783          	lw	a5,-20(s0)
  204c9a:	a03d                	j	204cc8 <CheckDataBufHit+0x350>
  204c9c:	002107b7          	lui	a5,0x210
  204ca0:	0707b703          	ld	a4,112(a5) # 210070 <dataBufMapPtr>
  204ca4:	fec46783          	lwu	a5,-20(s0)
  204ca8:	0792                	slli	a5,a5,0x4
  204caa:	97ba                	add	a5,a5,a4
  204cac:	00c7d783          	lhu	a5,12(a5)
  204cb0:	fef42623          	sw	a5,-20(s0)
  204cb4:	fec42783          	lw	a5,-20(s0)
  204cb8:	0007871b          	sext.w	a4,a5
  204cbc:	67c1                	lui	a5,0x10
  204cbe:	17fd                	addi	a5,a5,-1
  204cc0:	d0f712e3          	bne	a4,a5,2049c4 <CheckDataBufHit+0x4c>
  204cc4:	67c1                	lui	a5,0x10
  204cc6:	17fd                	addi	a5,a5,-1
  204cc8:	853e                	mv	a0,a5
  204cca:	7422                	ld	s0,40(sp)
  204ccc:	6145                	addi	sp,sp,48
  204cce:	8082                	ret

0000000000204cd0 <AllocateDataBuf>:
  204cd0:	1101                	addi	sp,sp,-32
  204cd2:	ec06                	sd	ra,24(sp)
  204cd4:	e822                	sd	s0,16(sp)
  204cd6:	1000                	addi	s0,sp,32
  204cd8:	002107b7          	lui	a5,0x210
  204cdc:	08878793          	addi	a5,a5,136 # 210088 <dataBufLruList>
  204ce0:	0027d783          	lhu	a5,2(a5)
  204ce4:	fef42623          	sw	a5,-20(s0)
  204ce8:	fec42783          	lw	a5,-20(s0)
  204cec:	0007871b          	sext.w	a4,a5
  204cf0:	67c1                	lui	a5,0x10
  204cf2:	17fd                	addi	a5,a5,-1
  204cf4:	00f71863          	bne	a4,a5,204d04 <AllocateDataBuf+0x34>
  204cf8:	0020f7b7          	lui	a5,0x20f
  204cfc:	1c078513          	addi	a0,a5,448 # 20f1c0 <nvme_main+0x848>
  204d00:	919ff0ef          	jal	ra,204618 <cpl_print>
  204d04:	002107b7          	lui	a5,0x210
  204d08:	0707b703          	ld	a4,112(a5) # 210070 <dataBufMapPtr>
  204d0c:	fec46783          	lwu	a5,-20(s0)
  204d10:	0792                	slli	a5,a5,0x4
  204d12:	97ba                	add	a5,a5,a4
  204d14:	0047d783          	lhu	a5,4(a5)
  204d18:	0007871b          	sext.w	a4,a5
  204d1c:	67c1                	lui	a5,0x10
  204d1e:	17fd                	addi	a5,a5,-1
  204d20:	0af70a63          	beq	a4,a5,204dd4 <AllocateDataBuf+0x104>
  204d24:	002107b7          	lui	a5,0x210
  204d28:	0707b703          	ld	a4,112(a5) # 210070 <dataBufMapPtr>
  204d2c:	002107b7          	lui	a5,0x210
  204d30:	0707b683          	ld	a3,112(a5) # 210070 <dataBufMapPtr>
  204d34:	fec46783          	lwu	a5,-20(s0)
  204d38:	0792                	slli	a5,a5,0x4
  204d3a:	97b6                	add	a5,a5,a3
  204d3c:	0047d783          	lhu	a5,4(a5)
  204d40:	2781                	sext.w	a5,a5
  204d42:	0792                	slli	a5,a5,0x4
  204d44:	97ba                	add	a5,a5,a4
  204d46:	577d                	li	a4,-1
  204d48:	00e79323          	sh	a4,6(a5)
  204d4c:	002107b7          	lui	a5,0x210
  204d50:	0707b703          	ld	a4,112(a5) # 210070 <dataBufMapPtr>
  204d54:	fec46783          	lwu	a5,-20(s0)
  204d58:	0792                	slli	a5,a5,0x4
  204d5a:	97ba                	add	a5,a5,a4
  204d5c:	0047d703          	lhu	a4,4(a5)
  204d60:	002107b7          	lui	a5,0x210
  204d64:	08878793          	addi	a5,a5,136 # 210088 <dataBufLruList>
  204d68:	00e79123          	sh	a4,2(a5)
  204d6c:	002107b7          	lui	a5,0x210
  204d70:	0707b703          	ld	a4,112(a5) # 210070 <dataBufMapPtr>
  204d74:	fec46783          	lwu	a5,-20(s0)
  204d78:	0792                	slli	a5,a5,0x4
  204d7a:	97ba                	add	a5,a5,a4
  204d7c:	577d                	li	a4,-1
  204d7e:	00e79223          	sh	a4,4(a5)
  204d82:	002107b7          	lui	a5,0x210
  204d86:	0707b683          	ld	a3,112(a5) # 210070 <dataBufMapPtr>
  204d8a:	002107b7          	lui	a5,0x210
  204d8e:	0887d703          	lhu	a4,136(a5) # 210088 <dataBufLruList>
  204d92:	fec46783          	lwu	a5,-20(s0)
  204d96:	0792                	slli	a5,a5,0x4
  204d98:	97b6                	add	a5,a5,a3
  204d9a:	00e79323          	sh	a4,6(a5)
  204d9e:	002107b7          	lui	a5,0x210
  204da2:	0707b683          	ld	a3,112(a5) # 210070 <dataBufMapPtr>
  204da6:	002107b7          	lui	a5,0x210
  204daa:	0887d783          	lhu	a5,136(a5) # 210088 <dataBufLruList>
  204dae:	2781                	sext.w	a5,a5
  204db0:	fec42703          	lw	a4,-20(s0)
  204db4:	1742                	slli	a4,a4,0x30
  204db6:	9341                	srli	a4,a4,0x30
  204db8:	0792                	slli	a5,a5,0x4
  204dba:	97b6                	add	a5,a5,a3
  204dbc:	00e79223          	sh	a4,4(a5)
  204dc0:	fec42783          	lw	a5,-20(s0)
  204dc4:	03079713          	slli	a4,a5,0x30
  204dc8:	9341                	srli	a4,a4,0x30
  204dca:	002107b7          	lui	a5,0x210
  204dce:	08e79423          	sh	a4,136(a5) # 210088 <dataBufLruList>
  204dd2:	a899                	j	204e28 <AllocateDataBuf+0x158>
  204dd4:	002107b7          	lui	a5,0x210
  204dd8:	0707b703          	ld	a4,112(a5) # 210070 <dataBufMapPtr>
  204ddc:	fec46783          	lwu	a5,-20(s0)
  204de0:	0792                	slli	a5,a5,0x4
  204de2:	97ba                	add	a5,a5,a4
  204de4:	577d                	li	a4,-1
  204de6:	00e79223          	sh	a4,4(a5)
  204dea:	002107b7          	lui	a5,0x210
  204dee:	0707b703          	ld	a4,112(a5) # 210070 <dataBufMapPtr>
  204df2:	fec46783          	lwu	a5,-20(s0)
  204df6:	0792                	slli	a5,a5,0x4
  204df8:	97ba                	add	a5,a5,a4
  204dfa:	577d                	li	a4,-1
  204dfc:	00e79323          	sh	a4,6(a5)
  204e00:	fec42783          	lw	a5,-20(s0)
  204e04:	03079713          	slli	a4,a5,0x30
  204e08:	9341                	srli	a4,a4,0x30
  204e0a:	002107b7          	lui	a5,0x210
  204e0e:	08e79423          	sh	a4,136(a5) # 210088 <dataBufLruList>
  204e12:	fec42783          	lw	a5,-20(s0)
  204e16:	03079713          	slli	a4,a5,0x30
  204e1a:	9341                	srli	a4,a4,0x30
  204e1c:	002107b7          	lui	a5,0x210
  204e20:	08878793          	addi	a5,a5,136 # 210088 <dataBufLruList>
  204e24:	00e79123          	sh	a4,2(a5)
  204e28:	fec42783          	lw	a5,-20(s0)
  204e2c:	853e                	mv	a0,a5
  204e2e:	2f8000ef          	jal	ra,205126 <SelectiveGetFromDataBufHashList>
  204e32:	fec42783          	lw	a5,-20(s0)
  204e36:	853e                	mv	a0,a5
  204e38:	60e2                	ld	ra,24(sp)
  204e3a:	6442                	ld	s0,16(sp)
  204e3c:	6105                	addi	sp,sp,32
  204e3e:	8082                	ret

0000000000204e40 <UpdateDataBufEntryInfoBlockingReq>:
  204e40:	1101                	addi	sp,sp,-32
  204e42:	ec22                	sd	s0,24(sp)
  204e44:	1000                	addi	s0,sp,32
  204e46:	87aa                	mv	a5,a0
  204e48:	872e                	mv	a4,a1
  204e4a:	fef42623          	sw	a5,-20(s0)
  204e4e:	87ba                	mv	a5,a4
  204e50:	fef42423          	sw	a5,-24(s0)
  204e54:	002107b7          	lui	a5,0x210
  204e58:	0707b703          	ld	a4,112(a5) # 210070 <dataBufMapPtr>
  204e5c:	fec46783          	lwu	a5,-20(s0)
  204e60:	0792                	slli	a5,a5,0x4
  204e62:	97ba                	add	a5,a5,a4
  204e64:	0087d783          	lhu	a5,8(a5)
  204e68:	0007871b          	sext.w	a4,a5
  204e6c:	67c1                	lui	a5,0x10
  204e6e:	17fd                	addi	a5,a5,-1
  204e70:	06f70863          	beq	a4,a5,204ee0 <UpdateDataBufEntryInfoBlockingReq+0xa0>
  204e74:	002107b7          	lui	a5,0x210
  204e78:	0707b703          	ld	a4,112(a5) # 210070 <dataBufMapPtr>
  204e7c:	002107b7          	lui	a5,0x210
  204e80:	e507b683          	ld	a3,-432(a5) # 20fe50 <reqPoolPtr>
  204e84:	fec46783          	lwu	a5,-20(s0)
  204e88:	0792                	slli	a5,a5,0x4
  204e8a:	97ba                	add	a5,a5,a4
  204e8c:	0087d703          	lhu	a4,8(a5)
  204e90:	fe846603          	lwu	a2,-24(s0)
  204e94:	03400793          	li	a5,52
  204e98:	02f607b3          	mul	a5,a2,a5
  204e9c:	97b6                	add	a5,a5,a3
  204e9e:	02e79823          	sh	a4,48(a5)
  204ea2:	002107b7          	lui	a5,0x210
  204ea6:	e507b683          	ld	a3,-432(a5) # 20fe50 <reqPoolPtr>
  204eaa:	002107b7          	lui	a5,0x210
  204eae:	e507b703          	ld	a4,-432(a5) # 20fe50 <reqPoolPtr>
  204eb2:	fe846603          	lwu	a2,-24(s0)
  204eb6:	03400793          	li	a5,52
  204eba:	02f607b3          	mul	a5,a2,a5
  204ebe:	97ba                	add	a5,a5,a4
  204ec0:	0307d783          	lhu	a5,48(a5)
  204ec4:	0007861b          	sext.w	a2,a5
  204ec8:	fe842783          	lw	a5,-24(s0)
  204ecc:	03079713          	slli	a4,a5,0x30
  204ed0:	9341                	srli	a4,a4,0x30
  204ed2:	03400793          	li	a5,52
  204ed6:	02f607b3          	mul	a5,a2,a5
  204eda:	97b6                	add	a5,a5,a3
  204edc:	02e79923          	sh	a4,50(a5)
  204ee0:	002107b7          	lui	a5,0x210
  204ee4:	0707b683          	ld	a3,112(a5) # 210070 <dataBufMapPtr>
  204ee8:	fe842783          	lw	a5,-24(s0)
  204eec:	03079713          	slli	a4,a5,0x30
  204ef0:	9341                	srli	a4,a4,0x30
  204ef2:	fec46783          	lwu	a5,-20(s0)
  204ef6:	0792                	slli	a5,a5,0x4
  204ef8:	97b6                	add	a5,a5,a3
  204efa:	00e79423          	sh	a4,8(a5)
  204efe:	0001                	nop
  204f00:	6462                	ld	s0,24(sp)
  204f02:	6105                	addi	sp,sp,32
  204f04:	8082                	ret

0000000000204f06 <AllocateTempDataBuf>:
  204f06:	1101                	addi	sp,sp,-32
  204f08:	ec22                	sd	s0,24(sp)
  204f0a:	1000                	addi	s0,sp,32
  204f0c:	87aa                	mv	a5,a0
  204f0e:	fef42623          	sw	a5,-20(s0)
  204f12:	fec42783          	lw	a5,-20(s0)
  204f16:	853e                	mv	a0,a5
  204f18:	6462                	ld	s0,24(sp)
  204f1a:	6105                	addi	sp,sp,32
  204f1c:	8082                	ret

0000000000204f1e <UpdateTempDataBufEntryInfoBlockingReq>:
  204f1e:	1101                	addi	sp,sp,-32
  204f20:	ec22                	sd	s0,24(sp)
  204f22:	1000                	addi	s0,sp,32
  204f24:	87aa                	mv	a5,a0
  204f26:	872e                	mv	a4,a1
  204f28:	fef42623          	sw	a5,-20(s0)
  204f2c:	87ba                	mv	a5,a4
  204f2e:	fef42423          	sw	a5,-24(s0)
  204f32:	002107b7          	lui	a5,0x210
  204f36:	0787b703          	ld	a4,120(a5) # 210078 <tempDataBufMapPtr>
  204f3a:	fec46783          	lwu	a5,-20(s0)
  204f3e:	078a                	slli	a5,a5,0x2
  204f40:	97ba                	add	a5,a5,a4
  204f42:	0007d783          	lhu	a5,0(a5)
  204f46:	0007871b          	sext.w	a4,a5
  204f4a:	67c1                	lui	a5,0x10
  204f4c:	17fd                	addi	a5,a5,-1
  204f4e:	06f70863          	beq	a4,a5,204fbe <UpdateTempDataBufEntryInfoBlockingReq+0xa0>
  204f52:	002107b7          	lui	a5,0x210
  204f56:	0787b703          	ld	a4,120(a5) # 210078 <tempDataBufMapPtr>
  204f5a:	002107b7          	lui	a5,0x210
  204f5e:	e507b683          	ld	a3,-432(a5) # 20fe50 <reqPoolPtr>
  204f62:	fec46783          	lwu	a5,-20(s0)
  204f66:	078a                	slli	a5,a5,0x2
  204f68:	97ba                	add	a5,a5,a4
  204f6a:	0007d703          	lhu	a4,0(a5)
  204f6e:	fe846603          	lwu	a2,-24(s0)
  204f72:	03400793          	li	a5,52
  204f76:	02f607b3          	mul	a5,a2,a5
  204f7a:	97b6                	add	a5,a5,a3
  204f7c:	02e79823          	sh	a4,48(a5)
  204f80:	002107b7          	lui	a5,0x210
  204f84:	e507b683          	ld	a3,-432(a5) # 20fe50 <reqPoolPtr>
  204f88:	002107b7          	lui	a5,0x210
  204f8c:	e507b703          	ld	a4,-432(a5) # 20fe50 <reqPoolPtr>
  204f90:	fe846603          	lwu	a2,-24(s0)
  204f94:	03400793          	li	a5,52
  204f98:	02f607b3          	mul	a5,a2,a5
  204f9c:	97ba                	add	a5,a5,a4
  204f9e:	0307d783          	lhu	a5,48(a5)
  204fa2:	0007861b          	sext.w	a2,a5
  204fa6:	fe842783          	lw	a5,-24(s0)
  204faa:	03079713          	slli	a4,a5,0x30
  204fae:	9341                	srli	a4,a4,0x30
  204fb0:	03400793          	li	a5,52
  204fb4:	02f607b3          	mul	a5,a2,a5
  204fb8:	97b6                	add	a5,a5,a3
  204fba:	02e79923          	sh	a4,50(a5)
  204fbe:	002107b7          	lui	a5,0x210
  204fc2:	0787b683          	ld	a3,120(a5) # 210078 <tempDataBufMapPtr>
  204fc6:	fe842783          	lw	a5,-24(s0)
  204fca:	03079713          	slli	a4,a5,0x30
  204fce:	9341                	srli	a4,a4,0x30
  204fd0:	fec46783          	lwu	a5,-20(s0)
  204fd4:	078a                	slli	a5,a5,0x2
  204fd6:	97b6                	add	a5,a5,a3
  204fd8:	00e79023          	sh	a4,0(a5)
  204fdc:	0001                	nop
  204fde:	6462                	ld	s0,24(sp)
  204fe0:	6105                	addi	sp,sp,32
  204fe2:	8082                	ret

0000000000204fe4 <PutToDataBufHashList>:
  204fe4:	7179                	addi	sp,sp,-48
  204fe6:	f422                	sd	s0,40(sp)
  204fe8:	1800                	addi	s0,sp,48
  204fea:	87aa                	mv	a5,a0
  204fec:	fcf42e23          	sw	a5,-36(s0)
  204ff0:	002107b7          	lui	a5,0x210
  204ff4:	0707b703          	ld	a4,112(a5) # 210070 <dataBufMapPtr>
  204ff8:	fdc46783          	lwu	a5,-36(s0)
  204ffc:	0792                	slli	a5,a5,0x4
  204ffe:	97ba                	add	a5,a5,a4
  205000:	439c                	lw	a5,0(a5)
  205002:	3ff7f793          	andi	a5,a5,1023
  205006:	fef42623          	sw	a5,-20(s0)
  20500a:	002107b7          	lui	a5,0x210
  20500e:	0807b703          	ld	a4,128(a5) # 210080 <dataBufHashTablePtr>
  205012:	fec46783          	lwu	a5,-20(s0)
  205016:	078a                	slli	a5,a5,0x2
  205018:	97ba                	add	a5,a5,a4
  20501a:	0027d783          	lhu	a5,2(a5)
  20501e:	0007871b          	sext.w	a4,a5
  205022:	67c1                	lui	a5,0x10
  205024:	17fd                	addi	a5,a5,-1
  205026:	08f70863          	beq	a4,a5,2050b6 <PutToDataBufHashList+0xd2>
  20502a:	002107b7          	lui	a5,0x210
  20502e:	0807b703          	ld	a4,128(a5) # 210080 <dataBufHashTablePtr>
  205032:	002107b7          	lui	a5,0x210
  205036:	0707b683          	ld	a3,112(a5) # 210070 <dataBufMapPtr>
  20503a:	fec46783          	lwu	a5,-20(s0)
  20503e:	078a                	slli	a5,a5,0x2
  205040:	97ba                	add	a5,a5,a4
  205042:	0027d703          	lhu	a4,2(a5)
  205046:	fdc46783          	lwu	a5,-36(s0)
  20504a:	0792                	slli	a5,a5,0x4
  20504c:	97b6                	add	a5,a5,a3
  20504e:	00e79523          	sh	a4,10(a5)
  205052:	002107b7          	lui	a5,0x210
  205056:	0707b703          	ld	a4,112(a5) # 210070 <dataBufMapPtr>
  20505a:	fdc46783          	lwu	a5,-36(s0)
  20505e:	0792                	slli	a5,a5,0x4
  205060:	97ba                	add	a5,a5,a4
  205062:	577d                	li	a4,-1
  205064:	00e79623          	sh	a4,12(a5)
  205068:	002107b7          	lui	a5,0x210
  20506c:	0707b683          	ld	a3,112(a5) # 210070 <dataBufMapPtr>
  205070:	002107b7          	lui	a5,0x210
  205074:	0807b703          	ld	a4,128(a5) # 210080 <dataBufHashTablePtr>
  205078:	fec46783          	lwu	a5,-20(s0)
  20507c:	078a                	slli	a5,a5,0x2
  20507e:	97ba                	add	a5,a5,a4
  205080:	0027d783          	lhu	a5,2(a5)
  205084:	2781                	sext.w	a5,a5
  205086:	fdc42703          	lw	a4,-36(s0)
  20508a:	1742                	slli	a4,a4,0x30
  20508c:	9341                	srli	a4,a4,0x30
  20508e:	0792                	slli	a5,a5,0x4
  205090:	97b6                	add	a5,a5,a3
  205092:	00e79623          	sh	a4,12(a5)
  205096:	002107b7          	lui	a5,0x210
  20509a:	0807b683          	ld	a3,128(a5) # 210080 <dataBufHashTablePtr>
  20509e:	fdc42783          	lw	a5,-36(s0)
  2050a2:	03079713          	slli	a4,a5,0x30
  2050a6:	9341                	srli	a4,a4,0x30
  2050a8:	fec46783          	lwu	a5,-20(s0)
  2050ac:	078a                	slli	a5,a5,0x2
  2050ae:	97b6                	add	a5,a5,a3
  2050b0:	00e79123          	sh	a4,2(a5)
  2050b4:	a0ad                	j	20511e <PutToDataBufHashList+0x13a>
  2050b6:	002107b7          	lui	a5,0x210
  2050ba:	0707b703          	ld	a4,112(a5) # 210070 <dataBufMapPtr>
  2050be:	fdc46783          	lwu	a5,-36(s0)
  2050c2:	0792                	slli	a5,a5,0x4
  2050c4:	97ba                	add	a5,a5,a4
  2050c6:	577d                	li	a4,-1
  2050c8:	00e79523          	sh	a4,10(a5)
  2050cc:	002107b7          	lui	a5,0x210
  2050d0:	0707b703          	ld	a4,112(a5) # 210070 <dataBufMapPtr>
  2050d4:	fdc46783          	lwu	a5,-36(s0)
  2050d8:	0792                	slli	a5,a5,0x4
  2050da:	97ba                	add	a5,a5,a4
  2050dc:	577d                	li	a4,-1
  2050de:	00e79623          	sh	a4,12(a5)
  2050e2:	002107b7          	lui	a5,0x210
  2050e6:	0807b683          	ld	a3,128(a5) # 210080 <dataBufHashTablePtr>
  2050ea:	fdc42783          	lw	a5,-36(s0)
  2050ee:	03079713          	slli	a4,a5,0x30
  2050f2:	9341                	srli	a4,a4,0x30
  2050f4:	fec46783          	lwu	a5,-20(s0)
  2050f8:	078a                	slli	a5,a5,0x2
  2050fa:	97b6                	add	a5,a5,a3
  2050fc:	00e79023          	sh	a4,0(a5)
  205100:	002107b7          	lui	a5,0x210
  205104:	0807b683          	ld	a3,128(a5) # 210080 <dataBufHashTablePtr>
  205108:	fdc42783          	lw	a5,-36(s0)
  20510c:	03079713          	slli	a4,a5,0x30
  205110:	9341                	srli	a4,a4,0x30
  205112:	fec46783          	lwu	a5,-20(s0)
  205116:	078a                	slli	a5,a5,0x2
  205118:	97b6                	add	a5,a5,a3
  20511a:	00e79123          	sh	a4,2(a5)
  20511e:	0001                	nop
  205120:	7422                	ld	s0,40(sp)
  205122:	6145                	addi	sp,sp,48
  205124:	8082                	ret

0000000000205126 <SelectiveGetFromDataBufHashList>:
  205126:	7179                	addi	sp,sp,-48
  205128:	f422                	sd	s0,40(sp)
  20512a:	1800                	addi	s0,sp,48
  20512c:	87aa                	mv	a5,a0
  20512e:	fcf42e23          	sw	a5,-36(s0)
  205132:	002107b7          	lui	a5,0x210
  205136:	0707b703          	ld	a4,112(a5) # 210070 <dataBufMapPtr>
  20513a:	fdc46783          	lwu	a5,-36(s0)
  20513e:	0792                	slli	a5,a5,0x4
  205140:	97ba                	add	a5,a5,a4
  205142:	439c                	lw	a5,0(a5)
  205144:	873e                	mv	a4,a5
  205146:	57fd                	li	a5,-1
  205148:	18f70363          	beq	a4,a5,2052ce <SelectiveGetFromDataBufHashList+0x1a8>
  20514c:	002107b7          	lui	a5,0x210
  205150:	0707b703          	ld	a4,112(a5) # 210070 <dataBufMapPtr>
  205154:	fdc46783          	lwu	a5,-36(s0)
  205158:	0792                	slli	a5,a5,0x4
  20515a:	97ba                	add	a5,a5,a4
  20515c:	00a7d783          	lhu	a5,10(a5)
  205160:	fef42623          	sw	a5,-20(s0)
  205164:	002107b7          	lui	a5,0x210
  205168:	0707b703          	ld	a4,112(a5) # 210070 <dataBufMapPtr>
  20516c:	fdc46783          	lwu	a5,-36(s0)
  205170:	0792                	slli	a5,a5,0x4
  205172:	97ba                	add	a5,a5,a4
  205174:	00c7d783          	lhu	a5,12(a5)
  205178:	fef42423          	sw	a5,-24(s0)
  20517c:	002107b7          	lui	a5,0x210
  205180:	0707b703          	ld	a4,112(a5) # 210070 <dataBufMapPtr>
  205184:	fdc46783          	lwu	a5,-36(s0)
  205188:	0792                	slli	a5,a5,0x4
  20518a:	97ba                	add	a5,a5,a4
  20518c:	439c                	lw	a5,0(a5)
  20518e:	3ff7f793          	andi	a5,a5,1023
  205192:	fef42223          	sw	a5,-28(s0)
  205196:	fe842783          	lw	a5,-24(s0)
  20519a:	0007871b          	sext.w	a4,a5
  20519e:	67c1                	lui	a5,0x10
  2051a0:	17fd                	addi	a5,a5,-1
  2051a2:	04f70963          	beq	a4,a5,2051f4 <SelectiveGetFromDataBufHashList+0xce>
  2051a6:	fec42783          	lw	a5,-20(s0)
  2051aa:	0007871b          	sext.w	a4,a5
  2051ae:	67c1                	lui	a5,0x10
  2051b0:	17fd                	addi	a5,a5,-1
  2051b2:	04f70163          	beq	a4,a5,2051f4 <SelectiveGetFromDataBufHashList+0xce>
  2051b6:	002107b7          	lui	a5,0x210
  2051ba:	0707b683          	ld	a3,112(a5) # 210070 <dataBufMapPtr>
  2051be:	fe842783          	lw	a5,-24(s0)
  2051c2:	03079713          	slli	a4,a5,0x30
  2051c6:	9341                	srli	a4,a4,0x30
  2051c8:	fec46783          	lwu	a5,-20(s0)
  2051cc:	0792                	slli	a5,a5,0x4
  2051ce:	97b6                	add	a5,a5,a3
  2051d0:	00e79623          	sh	a4,12(a5)
  2051d4:	002107b7          	lui	a5,0x210
  2051d8:	0707b683          	ld	a3,112(a5) # 210070 <dataBufMapPtr>
  2051dc:	fec42783          	lw	a5,-20(s0)
  2051e0:	03079713          	slli	a4,a5,0x30
  2051e4:	9341                	srli	a4,a4,0x30
  2051e6:	fe846783          	lwu	a5,-24(s0)
  2051ea:	0792                	slli	a5,a5,0x4
  2051ec:	97b6                	add	a5,a5,a3
  2051ee:	00e79523          	sh	a4,10(a5)
  2051f2:	a8f1                	j	2052ce <SelectiveGetFromDataBufHashList+0x1a8>
  2051f4:	fe842783          	lw	a5,-24(s0)
  2051f8:	0007871b          	sext.w	a4,a5
  2051fc:	67c1                	lui	a5,0x10
  2051fe:	17fd                	addi	a5,a5,-1
  205200:	04f71563          	bne	a4,a5,20524a <SelectiveGetFromDataBufHashList+0x124>
  205204:	fec42783          	lw	a5,-20(s0)
  205208:	0007871b          	sext.w	a4,a5
  20520c:	67c1                	lui	a5,0x10
  20520e:	17fd                	addi	a5,a5,-1
  205210:	02f70d63          	beq	a4,a5,20524a <SelectiveGetFromDataBufHashList+0x124>
  205214:	002107b7          	lui	a5,0x210
  205218:	0707b703          	ld	a4,112(a5) # 210070 <dataBufMapPtr>
  20521c:	fec46783          	lwu	a5,-20(s0)
  205220:	0792                	slli	a5,a5,0x4
  205222:	97ba                	add	a5,a5,a4
  205224:	577d                	li	a4,-1
  205226:	00e79623          	sh	a4,12(a5)
  20522a:	002107b7          	lui	a5,0x210
  20522e:	0807b683          	ld	a3,128(a5) # 210080 <dataBufHashTablePtr>
  205232:	fec42783          	lw	a5,-20(s0)
  205236:	03079713          	slli	a4,a5,0x30
  20523a:	9341                	srli	a4,a4,0x30
  20523c:	fe446783          	lwu	a5,-28(s0)
  205240:	078a                	slli	a5,a5,0x2
  205242:	97b6                	add	a5,a5,a3
  205244:	00e79123          	sh	a4,2(a5)
  205248:	a059                	j	2052ce <SelectiveGetFromDataBufHashList+0x1a8>
  20524a:	fe842783          	lw	a5,-24(s0)
  20524e:	0007871b          	sext.w	a4,a5
  205252:	67c1                	lui	a5,0x10
  205254:	17fd                	addi	a5,a5,-1
  205256:	04f70563          	beq	a4,a5,2052a0 <SelectiveGetFromDataBufHashList+0x17a>
  20525a:	fec42783          	lw	a5,-20(s0)
  20525e:	0007871b          	sext.w	a4,a5
  205262:	67c1                	lui	a5,0x10
  205264:	17fd                	addi	a5,a5,-1
  205266:	02f71d63          	bne	a4,a5,2052a0 <SelectiveGetFromDataBufHashList+0x17a>
  20526a:	002107b7          	lui	a5,0x210
  20526e:	0707b703          	ld	a4,112(a5) # 210070 <dataBufMapPtr>
  205272:	fe846783          	lwu	a5,-24(s0)
  205276:	0792                	slli	a5,a5,0x4
  205278:	97ba                	add	a5,a5,a4
  20527a:	577d                	li	a4,-1
  20527c:	00e79523          	sh	a4,10(a5)
  205280:	002107b7          	lui	a5,0x210
  205284:	0807b683          	ld	a3,128(a5) # 210080 <dataBufHashTablePtr>
  205288:	fe842783          	lw	a5,-24(s0)
  20528c:	03079713          	slli	a4,a5,0x30
  205290:	9341                	srli	a4,a4,0x30
  205292:	fe446783          	lwu	a5,-28(s0)
  205296:	078a                	slli	a5,a5,0x2
  205298:	97b6                	add	a5,a5,a3
  20529a:	00e79023          	sh	a4,0(a5)
  20529e:	a805                	j	2052ce <SelectiveGetFromDataBufHashList+0x1a8>
  2052a0:	002107b7          	lui	a5,0x210
  2052a4:	0807b703          	ld	a4,128(a5) # 210080 <dataBufHashTablePtr>
  2052a8:	fe446783          	lwu	a5,-28(s0)
  2052ac:	078a                	slli	a5,a5,0x2
  2052ae:	97ba                	add	a5,a5,a4
  2052b0:	577d                	li	a4,-1
  2052b2:	00e79023          	sh	a4,0(a5)
  2052b6:	002107b7          	lui	a5,0x210
  2052ba:	0807b703          	ld	a4,128(a5) # 210080 <dataBufHashTablePtr>
  2052be:	fe446783          	lwu	a5,-28(s0)
  2052c2:	078a                	slli	a5,a5,0x2
  2052c4:	97ba                	add	a5,a5,a4
  2052c6:	577d                	li	a4,-1
  2052c8:	00e79123          	sh	a4,2(a5)
  2052cc:	a009                	j	2052ce <SelectiveGetFromDataBufHashList+0x1a8>
  2052ce:	0001                	nop
  2052d0:	7422                	ld	s0,40(sp)
  2052d2:	6145                	addi	sp,sp,48
  2052d4:	8082                	ret

00000000002052d6 <InitReqScheduler>:
  2052d6:	1101                	addi	sp,sp,-32
  2052d8:	ec22                	sd	s0,24(sp)
  2052da:	1000                	addi	s0,sp,32
  2052dc:	002107b7          	lui	a5,0x210
  2052e0:	17000737          	lui	a4,0x17000
  2052e4:	0ae7b423          	sd	a4,168(a5) # 2100a8 <completeFlagTablePtr>
  2052e8:	002107b7          	lui	a5,0x210
  2052ec:	17000737          	lui	a4,0x17000
  2052f0:	10070713          	addi	a4,a4,256 # 17000100 <g_nvmeTask+0x16deffb8>
  2052f4:	08e7b823          	sd	a4,144(a5) # 210090 <statusReportTablePtr>
  2052f8:	002107b7          	lui	a5,0x210
  2052fc:	17000737          	lui	a4,0x17000
  205300:	20070713          	addi	a4,a4,512 # 17000200 <g_nvmeTask+0x16df00b8>
  205304:	0ae7b023          	sd	a4,160(a5) # 2100a0 <eccErrorInfoTablePtr>
  205308:	002107b7          	lui	a5,0x210
  20530c:	38a80737          	lui	a4,0x38a80
  205310:	70070713          	addi	a4,a4,1792 # 38a80700 <g_nvmeTask+0x388705b8>
  205314:	0ae7bc23          	sd	a4,184(a5) # 2100b8 <retryLimitTablePtr>
  205318:	002107b7          	lui	a5,0x210
  20531c:	38a80737          	lui	a4,0x38a80
  205320:	60070713          	addi	a4,a4,1536 # 38a80600 <g_nvmeTask+0x388704b8>
  205324:	0ae7b823          	sd	a4,176(a5) # 2100b0 <dieStateTablePtr>
  205328:	002107b7          	lui	a5,0x210
  20532c:	38a81737          	lui	a4,0x38a81
  205330:	80070713          	addi	a4,a4,-2048 # 38a80800 <g_nvmeTask+0x388706b8>
  205334:	08e7bc23          	sd	a4,152(a5) # 210098 <wayPriorityTablePtr>
  205338:	fe042623          	sw	zero,-20(s0)
  20533c:	acf1                	j	205618 <InitReqScheduler+0x342>
  20533e:	002107b7          	lui	a5,0x210
  205342:	0987b703          	ld	a4,152(a5) # 210098 <wayPriorityTablePtr>
  205346:	fec42783          	lw	a5,-20(s0)
  20534a:	078e                	slli	a5,a5,0x3
  20534c:	97ba                	add	a5,a5,a4
  20534e:	4398                	lw	a4,0(a5)
  205350:	9b41                	andi	a4,a4,-16
  205352:	c398                	sw	a4,0(a5)
  205354:	002107b7          	lui	a5,0x210
  205358:	0987b703          	ld	a4,152(a5) # 210098 <wayPriorityTablePtr>
  20535c:	fec42783          	lw	a5,-20(s0)
  205360:	078e                	slli	a5,a5,0x3
  205362:	97ba                	add	a5,a5,a4
  205364:	4398                	lw	a4,0(a5)
  205366:	f0f77713          	andi	a4,a4,-241
  20536a:	07076713          	ori	a4,a4,112
  20536e:	c398                	sw	a4,0(a5)
  205370:	002107b7          	lui	a5,0x210
  205374:	0987b703          	ld	a4,152(a5) # 210098 <wayPriorityTablePtr>
  205378:	fec42783          	lw	a5,-20(s0)
  20537c:	078e                	slli	a5,a5,0x3
  20537e:	97ba                	add	a5,a5,a4
  205380:	4394                	lw	a3,0(a5)
  205382:	6705                	lui	a4,0x1
  205384:	f0070713          	addi	a4,a4,-256 # f00 <start-0x1ff100>
  205388:	8f55                	or	a4,a4,a3
  20538a:	c398                	sw	a4,0(a5)
  20538c:	002107b7          	lui	a5,0x210
  205390:	0987b703          	ld	a4,152(a5) # 210098 <wayPriorityTablePtr>
  205394:	fec42783          	lw	a5,-20(s0)
  205398:	078e                	slli	a5,a5,0x3
  20539a:	97ba                	add	a5,a5,a4
  20539c:	4394                	lw	a3,0(a5)
  20539e:	673d                	lui	a4,0xf
  2053a0:	8f55                	or	a4,a4,a3
  2053a2:	c398                	sw	a4,0(a5)
  2053a4:	002107b7          	lui	a5,0x210
  2053a8:	0987b703          	ld	a4,152(a5) # 210098 <wayPriorityTablePtr>
  2053ac:	fec42783          	lw	a5,-20(s0)
  2053b0:	078e                	slli	a5,a5,0x3
  2053b2:	97ba                	add	a5,a5,a4
  2053b4:	43d4                	lw	a3,4(a5)
  2053b6:	6705                	lui	a4,0x1
  2053b8:	f0070713          	addi	a4,a4,-256 # f00 <start-0x1ff100>
  2053bc:	8f55                	or	a4,a4,a3
  2053be:	c3d8                	sw	a4,4(a5)
  2053c0:	002107b7          	lui	a5,0x210
  2053c4:	0987b703          	ld	a4,152(a5) # 210098 <wayPriorityTablePtr>
  2053c8:	fec42783          	lw	a5,-20(s0)
  2053cc:	078e                	slli	a5,a5,0x3
  2053ce:	97ba                	add	a5,a5,a4
  2053d0:	43d4                	lw	a3,4(a5)
  2053d2:	673d                	lui	a4,0xf
  2053d4:	8f55                	or	a4,a4,a3
  2053d6:	c3d8                	sw	a4,4(a5)
  2053d8:	002107b7          	lui	a5,0x210
  2053dc:	0987b703          	ld	a4,152(a5) # 210098 <wayPriorityTablePtr>
  2053e0:	fec42783          	lw	a5,-20(s0)
  2053e4:	078e                	slli	a5,a5,0x3
  2053e6:	97ba                	add	a5,a5,a4
  2053e8:	4394                	lw	a3,0(a5)
  2053ea:	000f0737          	lui	a4,0xf0
  2053ee:	8f55                	or	a4,a4,a3
  2053f0:	c398                	sw	a4,0(a5)
  2053f2:	002107b7          	lui	a5,0x210
  2053f6:	0987b703          	ld	a4,152(a5) # 210098 <wayPriorityTablePtr>
  2053fa:	fec42783          	lw	a5,-20(s0)
  2053fe:	078e                	slli	a5,a5,0x3
  205400:	97ba                	add	a5,a5,a4
  205402:	4394                	lw	a3,0(a5)
  205404:	00f00737          	lui	a4,0xf00
  205408:	8f55                	or	a4,a4,a3
  20540a:	c398                	sw	a4,0(a5)
  20540c:	002107b7          	lui	a5,0x210
  205410:	0987b703          	ld	a4,152(a5) # 210098 <wayPriorityTablePtr>
  205414:	fec42783          	lw	a5,-20(s0)
  205418:	078e                	slli	a5,a5,0x3
  20541a:	97ba                	add	a5,a5,a4
  20541c:	4394                	lw	a3,0(a5)
  20541e:	0f000737          	lui	a4,0xf000
  205422:	8f55                	or	a4,a4,a3
  205424:	c398                	sw	a4,0(a5)
  205426:	002107b7          	lui	a5,0x210
  20542a:	0987b703          	ld	a4,152(a5) # 210098 <wayPriorityTablePtr>
  20542e:	fec42783          	lw	a5,-20(s0)
  205432:	078e                	slli	a5,a5,0x3
  205434:	97ba                	add	a5,a5,a4
  205436:	4394                	lw	a3,0(a5)
  205438:	f0000737          	lui	a4,0xf0000
  20543c:	8f55                	or	a4,a4,a3
  20543e:	c398                	sw	a4,0(a5)
  205440:	002107b7          	lui	a5,0x210
  205444:	0987b703          	ld	a4,152(a5) # 210098 <wayPriorityTablePtr>
  205448:	fec42783          	lw	a5,-20(s0)
  20544c:	078e                	slli	a5,a5,0x3
  20544e:	97ba                	add	a5,a5,a4
  205450:	43d8                	lw	a4,4(a5)
  205452:	00f76713          	ori	a4,a4,15
  205456:	c3d8                	sw	a4,4(a5)
  205458:	002107b7          	lui	a5,0x210
  20545c:	0987b703          	ld	a4,152(a5) # 210098 <wayPriorityTablePtr>
  205460:	fec42783          	lw	a5,-20(s0)
  205464:	078e                	slli	a5,a5,0x3
  205466:	97ba                	add	a5,a5,a4
  205468:	43d8                	lw	a4,4(a5)
  20546a:	0f076713          	ori	a4,a4,240
  20546e:	c3d8                	sw	a4,4(a5)
  205470:	002107b7          	lui	a5,0x210
  205474:	0987b703          	ld	a4,152(a5) # 210098 <wayPriorityTablePtr>
  205478:	fec42783          	lw	a5,-20(s0)
  20547c:	078e                	slli	a5,a5,0x3
  20547e:	97ba                	add	a5,a5,a4
  205480:	43d4                	lw	a3,4(a5)
  205482:	000f0737          	lui	a4,0xf0
  205486:	8f55                	or	a4,a4,a3
  205488:	c3d8                	sw	a4,4(a5)
  20548a:	002107b7          	lui	a5,0x210
  20548e:	0987b703          	ld	a4,152(a5) # 210098 <wayPriorityTablePtr>
  205492:	fec42783          	lw	a5,-20(s0)
  205496:	078e                	slli	a5,a5,0x3
  205498:	97ba                	add	a5,a5,a4
  20549a:	43d4                	lw	a3,4(a5)
  20549c:	00f00737          	lui	a4,0xf00
  2054a0:	8f55                	or	a4,a4,a3
  2054a2:	c3d8                	sw	a4,4(a5)
  2054a4:	fe042423          	sw	zero,-24(s0)
  2054a8:	a21d                	j	2055ce <InitReqScheduler+0x2f8>
  2054aa:	002107b7          	lui	a5,0x210
  2054ae:	0b07b703          	ld	a4,176(a5) # 2100b0 <dieStateTablePtr>
  2054b2:	fe842783          	lw	a5,-24(s0)
  2054b6:	fec42683          	lw	a3,-20(s0)
  2054ba:	068e                	slli	a3,a3,0x3
  2054bc:	97b6                	add	a5,a5,a3
  2054be:	078a                	slli	a5,a5,0x2
  2054c0:	97ba                	add	a5,a5,a4
  2054c2:	00078023          	sb	zero,0(a5)
  2054c6:	002107b7          	lui	a5,0x210
  2054ca:	0b07b703          	ld	a4,176(a5) # 2100b0 <dieStateTablePtr>
  2054ce:	fe842783          	lw	a5,-24(s0)
  2054d2:	fec42683          	lw	a3,-20(s0)
  2054d6:	068e                	slli	a3,a3,0x3
  2054d8:	97b6                	add	a5,a5,a3
  2054da:	078a                	slli	a5,a5,0x2
  2054dc:	97ba                	add	a5,a5,a4
  2054de:	4394                	lw	a3,0(a5)
  2054e0:	777d                	lui	a4,0xfffff
  2054e2:	0ff70713          	addi	a4,a4,255 # fffffffffffff0ff <g_nvmeTask+0xffffffffffdeefb7>
  2054e6:	8f75                	and	a4,a4,a3
  2054e8:	c398                	sw	a4,0(a5)
  2054ea:	fe842783          	lw	a5,-24(s0)
  2054ee:	0ff7f793          	andi	a5,a5,255
  2054f2:	37fd                	addiw	a5,a5,-1
  2054f4:	0ff7f693          	andi	a3,a5,255
  2054f8:	002107b7          	lui	a5,0x210
  2054fc:	0b07b703          	ld	a4,176(a5) # 2100b0 <dieStateTablePtr>
  205500:	87b6                	mv	a5,a3
  205502:	8bbd                	andi	a5,a5,15
  205504:	0ff7f613          	andi	a2,a5,255
  205508:	fe842783          	lw	a5,-24(s0)
  20550c:	fec42683          	lw	a3,-20(s0)
  205510:	068e                	slli	a3,a3,0x3
  205512:	97b6                	add	a5,a5,a3
  205514:	078a                	slli	a5,a5,0x2
  205516:	97ba                	add	a5,a5,a4
  205518:	8732                	mv	a4,a2
  20551a:	8b3d                	andi	a4,a4,15
  20551c:	00c7171b          	slliw	a4,a4,0xc
  205520:	4390                	lw	a2,0(a5)
  205522:	76c5                	lui	a3,0xffff1
  205524:	16fd                	addi	a3,a3,-1
  205526:	8ef1                	and	a3,a3,a2
  205528:	8f55                	or	a4,a4,a3
  20552a:	c398                	sw	a4,0(a5)
  20552c:	fe842783          	lw	a5,-24(s0)
  205530:	0ff7f793          	andi	a5,a5,255
  205534:	2785                	addiw	a5,a5,1
  205536:	0ff7f693          	andi	a3,a5,255
  20553a:	002107b7          	lui	a5,0x210
  20553e:	0b07b703          	ld	a4,176(a5) # 2100b0 <dieStateTablePtr>
  205542:	87b6                	mv	a5,a3
  205544:	8bbd                	andi	a5,a5,15
  205546:	0ff7f613          	andi	a2,a5,255
  20554a:	fe842783          	lw	a5,-24(s0)
  20554e:	fec42683          	lw	a3,-20(s0)
  205552:	068e                	slli	a3,a3,0x3
  205554:	97b6                	add	a5,a5,a3
  205556:	078a                	slli	a5,a5,0x2
  205558:	97ba                	add	a5,a5,a4
  20555a:	8732                	mv	a4,a2
  20555c:	8b3d                	andi	a4,a4,15
  20555e:	0107171b          	slliw	a4,a4,0x10
  205562:	4390                	lw	a2,0(a5)
  205564:	fff106b7          	lui	a3,0xfff10
  205568:	16fd                	addi	a3,a3,-1
  20556a:	8ef1                	and	a3,a3,a2
  20556c:	8f55                	or	a4,a4,a3
  20556e:	c398                	sw	a4,0(a5)
  205570:	002107b7          	lui	a5,0x210
  205574:	0a87b703          	ld	a4,168(a5) # 2100a8 <completeFlagTablePtr>
  205578:	fe842783          	lw	a5,-24(s0)
  20557c:	fec42683          	lw	a3,-20(s0)
  205580:	068e                	slli	a3,a3,0x3
  205582:	97b6                	add	a5,a5,a3
  205584:	078a                	slli	a5,a5,0x2
  205586:	97ba                	add	a5,a5,a4
  205588:	0007a023          	sw	zero,0(a5)
  20558c:	002107b7          	lui	a5,0x210
  205590:	0907b703          	ld	a4,144(a5) # 210090 <statusReportTablePtr>
  205594:	fe842783          	lw	a5,-24(s0)
  205598:	fec42683          	lw	a3,-20(s0)
  20559c:	068e                	slli	a3,a3,0x3
  20559e:	97b6                	add	a5,a5,a3
  2055a0:	078a                	slli	a5,a5,0x2
  2055a2:	97ba                	add	a5,a5,a4
  2055a4:	0007a023          	sw	zero,0(a5)
  2055a8:	002107b7          	lui	a5,0x210
  2055ac:	0b87b703          	ld	a4,184(a5) # 2100b8 <retryLimitTablePtr>
  2055b0:	fe842783          	lw	a5,-24(s0)
  2055b4:	fec42683          	lw	a3,-20(s0)
  2055b8:	068e                	slli	a3,a3,0x3
  2055ba:	97b6                	add	a5,a5,a3
  2055bc:	078a                	slli	a5,a5,0x2
  2055be:	97ba                	add	a5,a5,a4
  2055c0:	4715                	li	a4,5
  2055c2:	c398                	sw	a4,0(a5)
  2055c4:	fe842783          	lw	a5,-24(s0)
  2055c8:	2785                	addiw	a5,a5,1
  2055ca:	fef42423          	sw	a5,-24(s0)
  2055ce:	fe842783          	lw	a5,-24(s0)
  2055d2:	0007871b          	sext.w	a4,a5
  2055d6:	479d                	li	a5,7
  2055d8:	ece7d9e3          	bge	a5,a4,2054aa <InitReqScheduler+0x1d4>
  2055dc:	002107b7          	lui	a5,0x210
  2055e0:	0b07b703          	ld	a4,176(a5) # 2100b0 <dieStateTablePtr>
  2055e4:	fec42783          	lw	a5,-20(s0)
  2055e8:	0796                	slli	a5,a5,0x5
  2055ea:	97ba                	add	a5,a5,a4
  2055ec:	4394                	lw	a3,0(a5)
  2055ee:	673d                	lui	a4,0xf
  2055f0:	8f55                	or	a4,a4,a3
  2055f2:	c398                	sw	a4,0(a5)
  2055f4:	002107b7          	lui	a5,0x210
  2055f8:	0b07b703          	ld	a4,176(a5) # 2100b0 <dieStateTablePtr>
  2055fc:	fec42783          	lw	a5,-20(s0)
  205600:	0796                	slli	a5,a5,0x5
  205602:	97ba                	add	a5,a5,a4
  205604:	4fd4                	lw	a3,28(a5)
  205606:	000f0737          	lui	a4,0xf0
  20560a:	8f55                	or	a4,a4,a3
  20560c:	cfd8                	sw	a4,28(a5)
  20560e:	fec42783          	lw	a5,-20(s0)
  205612:	2785                	addiw	a5,a5,1
  205614:	fef42623          	sw	a5,-20(s0)
  205618:	fec42783          	lw	a5,-20(s0)
  20561c:	0007871b          	sext.w	a4,a5
  205620:	479d                	li	a5,7
  205622:	d0e7dee3          	bge	a5,a4,20533e <InitReqScheduler+0x68>
  205626:	0001                	nop
  205628:	0001                	nop
  20562a:	6462                	ld	s0,24(sp)
  20562c:	6105                	addi	sp,sp,32
  20562e:	8082                	ret

0000000000205630 <SyncAllLowLevelReqDone>:
  205630:	1141                	addi	sp,sp,-16
  205632:	e406                	sd	ra,8(sp)
  205634:	e022                	sd	s0,0(sp)
  205636:	0800                	addi	s0,sp,16
  205638:	a029                	j	205642 <SyncAllLowLevelReqDone+0x12>
  20563a:	0b9060ef          	jal	ra,20bef2 <CheckDoneNvmeDmaReq>
  20563e:	0cc000ef          	jal	ra,20570a <SchedulingNandReq>
  205642:	002107b7          	lui	a5,0x210
  205646:	e607d783          	lhu	a5,-416(a5) # 20fe60 <nvmeDmaReqQ>
  20564a:	0007871b          	sext.w	a4,a5
  20564e:	67c1                	lui	a5,0x10
  205650:	17fd                	addi	a5,a5,-1
  205652:	fef714e3          	bne	a4,a5,20563a <SyncAllLowLevelReqDone+0xa>
  205656:	002107b7          	lui	a5,0x210
  20565a:	c387a783          	lw	a5,-968(a5) # 20fc38 <notCompletedNandReqCnt>
  20565e:	fff1                	bnez	a5,20563a <SyncAllLowLevelReqDone+0xa>
  205660:	002107b7          	lui	a5,0x210
  205664:	0687a783          	lw	a5,104(a5) # 210068 <blockedReqCnt>
  205668:	fbe9                	bnez	a5,20563a <SyncAllLowLevelReqDone+0xa>
  20566a:	0001                	nop
  20566c:	0001                	nop
  20566e:	60a2                	ld	ra,8(sp)
  205670:	6402                	ld	s0,0(sp)
  205672:	0141                	addi	sp,sp,16
  205674:	8082                	ret

0000000000205676 <SyncAvailFreeReq>:
  205676:	1141                	addi	sp,sp,-16
  205678:	e406                	sd	ra,8(sp)
  20567a:	e022                	sd	s0,0(sp)
  20567c:	0800                	addi	s0,sp,16
  20567e:	a029                	j	205688 <SyncAvailFreeReq+0x12>
  205680:	073060ef          	jal	ra,20bef2 <CheckDoneNvmeDmaReq>
  205684:	086000ef          	jal	ra,20570a <SchedulingNandReq>
  205688:	002107b7          	lui	a5,0x210
  20568c:	e587d783          	lhu	a5,-424(a5) # 20fe58 <freeReqQ>
  205690:	0007871b          	sext.w	a4,a5
  205694:	67c1                	lui	a5,0x10
  205696:	17fd                	addi	a5,a5,-1
  205698:	fef704e3          	beq	a4,a5,205680 <SyncAvailFreeReq+0xa>
  20569c:	0001                	nop
  20569e:	0001                	nop
  2056a0:	60a2                	ld	ra,8(sp)
  2056a2:	6402                	ld	s0,0(sp)
  2056a4:	0141                	addi	sp,sp,16
  2056a6:	8082                	ret

00000000002056a8 <SyncReleaseEraseReq>:
  2056a8:	1101                	addi	sp,sp,-32
  2056aa:	ec06                	sd	ra,24(sp)
  2056ac:	e822                	sd	s0,16(sp)
  2056ae:	1000                	addi	s0,sp,32
  2056b0:	87aa                	mv	a5,a0
  2056b2:	86ae                	mv	a3,a1
  2056b4:	8732                	mv	a4,a2
  2056b6:	fef42623          	sw	a5,-20(s0)
  2056ba:	87b6                	mv	a5,a3
  2056bc:	fef42423          	sw	a5,-24(s0)
  2056c0:	87ba                	mv	a5,a4
  2056c2:	fef42223          	sw	a5,-28(s0)
  2056c6:	a029                	j	2056d0 <SyncReleaseEraseReq+0x28>
  2056c8:	02b060ef          	jal	ra,20bef2 <CheckDoneNvmeDmaReq>
  2056cc:	03e000ef          	jal	ra,20570a <SchedulingNandReq>
  2056d0:	002107b7          	lui	a5,0x210
  2056d4:	1087b703          	ld	a4,264(a5) # 210108 <rowAddrDependencyTablePtr>
  2056d8:	fe446783          	lwu	a5,-28(s0)
  2056dc:	fec46603          	lwu	a2,-20(s0)
  2056e0:	fe846683          	lwu	a3,-24(s0)
  2056e4:	060e                	slli	a2,a2,0x3
  2056e6:	96b2                	add	a3,a3,a2
  2056e8:	06b6                	slli	a3,a3,0xd
  2056ea:	97b6                	add	a5,a5,a3
  2056ec:	078a                	slli	a5,a5,0x2
  2056ee:	97ba                	add	a5,a5,a4
  2056f0:	439c                	lw	a5,0(a5)
  2056f2:	01c7d79b          	srliw	a5,a5,0x1c
  2056f6:	8b85                	andi	a5,a5,1
  2056f8:	0ff7f793          	andi	a5,a5,255
  2056fc:	f7f1                	bnez	a5,2056c8 <SyncReleaseEraseReq+0x20>
  2056fe:	0001                	nop
  205700:	0001                	nop
  205702:	60e2                	ld	ra,24(sp)
  205704:	6442                	ld	s0,16(sp)
  205706:	6105                	addi	sp,sp,32
  205708:	8082                	ret

000000000020570a <SchedulingNandReq>:
  20570a:	1101                	addi	sp,sp,-32
  20570c:	ec06                	sd	ra,24(sp)
  20570e:	e822                	sd	s0,16(sp)
  205710:	1000                	addi	s0,sp,32
  205712:	fe042623          	sw	zero,-20(s0)
  205716:	a819                	j	20572c <SchedulingNandReq+0x22>
  205718:	fec42783          	lw	a5,-20(s0)
  20571c:	853e                	mv	a0,a5
  20571e:	028000ef          	jal	ra,205746 <SchedulingNandReqPerCh>
  205722:	fec42783          	lw	a5,-20(s0)
  205726:	2785                	addiw	a5,a5,1
  205728:	fef42623          	sw	a5,-20(s0)
  20572c:	fec42783          	lw	a5,-20(s0)
  205730:	0007871b          	sext.w	a4,a5
  205734:	479d                	li	a5,7
  205736:	fee7d1e3          	bge	a5,a4,205718 <SchedulingNandReq+0xe>
  20573a:	0001                	nop
  20573c:	0001                	nop
  20573e:	60e2                	ld	ra,24(sp)
  205740:	6442                	ld	s0,16(sp)
  205742:	6105                	addi	sp,sp,32
  205744:	8082                	ret

0000000000205746 <SchedulingNandReqPerCh>:
  205746:	7139                	addi	sp,sp,-64
  205748:	fc06                	sd	ra,56(sp)
  20574a:	f822                	sd	s0,48(sp)
  20574c:	0080                	addi	s0,sp,64
  20574e:	87aa                	mv	a5,a0
  205750:	fcf42623          	sw	a5,-52(s0)
  205754:	fe042423          	sw	zero,-24(s0)
  205758:	002107b7          	lui	a5,0x210
  20575c:	0987b703          	ld	a4,152(a5) # 210098 <wayPriorityTablePtr>
  205760:	fcc46783          	lwu	a5,-52(s0)
  205764:	078e                	slli	a5,a5,0x3
  205766:	97ba                	add	a5,a5,a4
  205768:	439c                	lw	a5,0(a5)
  20576a:	8bbd                	andi	a5,a5,15
  20576c:	0ff7f793          	andi	a5,a5,255
  205770:	873e                	mv	a4,a5
  205772:	47bd                	li	a5,15
  205774:	12f70a63          	beq	a4,a5,2058a8 <SchedulingNandReqPerCh+0x162>
  205778:	002107b7          	lui	a5,0x210
  20577c:	0987b703          	ld	a4,152(a5) # 210098 <wayPriorityTablePtr>
  205780:	fcc46783          	lwu	a5,-52(s0)
  205784:	078e                	slli	a5,a5,0x3
  205786:	97ba                	add	a5,a5,a4
  205788:	439c                	lw	a5,0(a5)
  20578a:	8bbd                	andi	a5,a5,15
  20578c:	0ff7f793          	andi	a5,a5,255
  205790:	fef42623          	sw	a5,-20(s0)
  205794:	a219                	j	20589a <SchedulingNandReqPerCh+0x154>
  205796:	002107b7          	lui	a5,0x210
  20579a:	e6878713          	addi	a4,a5,-408 # 20fe68 <nandReqQ>
  20579e:	fec46783          	lwu	a5,-20(s0)
  2057a2:	fcc46683          	lwu	a3,-52(s0)
  2057a6:	068e                	slli	a3,a3,0x3
  2057a8:	97b6                	add	a5,a5,a3
  2057aa:	078e                	slli	a5,a5,0x3
  2057ac:	97ba                	add	a5,a5,a4
  2057ae:	0007d783          	lhu	a5,0(a5)
  2057b2:	0007871b          	sext.w	a4,a5
  2057b6:	67c1                	lui	a5,0x10
  2057b8:	17fd                	addi	a5,a5,-1
  2057ba:	00f71a63          	bne	a4,a5,2057ce <SchedulingNandReqPerCh+0x88>
  2057be:	fec42703          	lw	a4,-20(s0)
  2057c2:	fcc42783          	lw	a5,-52(s0)
  2057c6:	85ba                	mv	a1,a4
  2057c8:	853e                	mv	a0,a5
  2057ca:	3f6060ef          	jal	ra,20bbc0 <ReleaseBlockedByRowAddrDepReq>
  2057ce:	002107b7          	lui	a5,0x210
  2057d2:	e6878713          	addi	a4,a5,-408 # 20fe68 <nandReqQ>
  2057d6:	fec46783          	lwu	a5,-20(s0)
  2057da:	fcc46683          	lwu	a3,-52(s0)
  2057de:	068e                	slli	a3,a3,0x3
  2057e0:	97b6                	add	a5,a5,a3
  2057e2:	078e                	slli	a5,a5,0x3
  2057e4:	97ba                	add	a5,a5,a4
  2057e6:	0007d783          	lhu	a5,0(a5)
  2057ea:	0007871b          	sext.w	a4,a5
  2057ee:	67c1                	lui	a5,0x10
  2057f0:	17fd                	addi	a5,a5,-1
  2057f2:	06f70b63          	beq	a4,a5,205868 <SchedulingNandReqPerCh+0x122>
  2057f6:	002107b7          	lui	a5,0x210
  2057fa:	0b07b703          	ld	a4,176(a5) # 2100b0 <dieStateTablePtr>
  2057fe:	fec46783          	lwu	a5,-20(s0)
  205802:	fcc46683          	lwu	a3,-52(s0)
  205806:	068e                	slli	a3,a3,0x3
  205808:	97b6                	add	a5,a5,a3
  20580a:	078a                	slli	a5,a5,0x2
  20580c:	97ba                	add	a5,a5,a4
  20580e:	439c                	lw	a5,0(a5)
  205810:	0107d79b          	srliw	a5,a5,0x10
  205814:	8bbd                	andi	a5,a5,15
  205816:	0ff7f793          	andi	a5,a5,255
  20581a:	fef42223          	sw	a5,-28(s0)
  20581e:	fec42703          	lw	a4,-20(s0)
  205822:	fcc42783          	lw	a5,-52(s0)
  205826:	85ba                	mv	a1,a4
  205828:	853e                	mv	a0,a5
  20582a:	2a3000ef          	jal	ra,2062cc <SelectivGetFromNandIdleList>
  20582e:	002107b7          	lui	a5,0x210
  205832:	e6878713          	addi	a4,a5,-408 # 20fe68 <nandReqQ>
  205836:	fec46783          	lwu	a5,-20(s0)
  20583a:	fcc46683          	lwu	a3,-52(s0)
  20583e:	068e                	slli	a3,a3,0x3
  205840:	97b6                	add	a5,a5,a3
  205842:	078e                	slli	a5,a5,0x3
  205844:	97ba                	add	a5,a5,a4
  205846:	0007d783          	lhu	a5,0(a5)
  20584a:	2781                	sext.w	a5,a5
  20584c:	fec42683          	lw	a3,-20(s0)
  205850:	fcc42703          	lw	a4,-52(s0)
  205854:	8636                	mv	a2,a3
  205856:	85ba                	mv	a1,a4
  205858:	853e                	mv	a0,a5
  20585a:	75a000ef          	jal	ra,205fb4 <PutToNandWayPriorityTable>
  20585e:	fe442783          	lw	a5,-28(s0)
  205862:	fef42623          	sw	a5,-20(s0)
  205866:	a815                	j	20589a <SchedulingNandReqPerCh+0x154>
  205868:	002107b7          	lui	a5,0x210
  20586c:	0b07b703          	ld	a4,176(a5) # 2100b0 <dieStateTablePtr>
  205870:	fec46783          	lwu	a5,-20(s0)
  205874:	fcc46683          	lwu	a3,-52(s0)
  205878:	068e                	slli	a3,a3,0x3
  20587a:	97b6                	add	a5,a5,a3
  20587c:	078a                	slli	a5,a5,0x2
  20587e:	97ba                	add	a5,a5,a4
  205880:	439c                	lw	a5,0(a5)
  205882:	0107d79b          	srliw	a5,a5,0x10
  205886:	8bbd                	andi	a5,a5,15
  205888:	0ff7f793          	andi	a5,a5,255
  20588c:	fef42623          	sw	a5,-20(s0)
  205890:	fe842783          	lw	a5,-24(s0)
  205894:	2785                	addiw	a5,a5,1
  205896:	fef42423          	sw	a5,-24(s0)
  20589a:	fec42783          	lw	a5,-20(s0)
  20589e:	0007871b          	sext.w	a4,a5
  2058a2:	47bd                	li	a5,15
  2058a4:	eef719e3          	bne	a4,a5,205796 <SchedulingNandReqPerCh+0x50>
  2058a8:	002107b7          	lui	a5,0x210
  2058ac:	0987b703          	ld	a4,152(a5) # 210098 <wayPriorityTablePtr>
  2058b0:	fcc46783          	lwu	a5,-52(s0)
  2058b4:	078e                	slli	a5,a5,0x3
  2058b6:	97ba                	add	a5,a5,a4
  2058b8:	439c                	lw	a5,0(a5)
  2058ba:	0087d79b          	srliw	a5,a5,0x8
  2058be:	8bbd                	andi	a5,a5,15
  2058c0:	0ff7f793          	andi	a5,a5,255
  2058c4:	873e                	mv	a4,a5
  2058c6:	47bd                	li	a5,15
  2058c8:	26f70863          	beq	a4,a5,205b38 <SchedulingNandReqPerCh+0x3f2>
  2058cc:	002107b7          	lui	a5,0x210
  2058d0:	0c878713          	addi	a4,a5,200 # 2100c8 <chCtlReg>
  2058d4:	fcc46783          	lwu	a5,-52(s0)
  2058d8:	078e                	slli	a5,a5,0x3
  2058da:	97ba                	add	a5,a5,a4
  2058dc:	639c                	ld	a5,0(a5)
  2058de:	853e                	mv	a0,a5
  2058e0:	416040ef          	jal	ra,209cf6 <V2FReadyBusyAsync>
  2058e4:	87aa                	mv	a5,a0
  2058e6:	fef42023          	sw	a5,-32(s0)
  2058ea:	002107b7          	lui	a5,0x210
  2058ee:	0987b703          	ld	a4,152(a5) # 210098 <wayPriorityTablePtr>
  2058f2:	fcc46783          	lwu	a5,-52(s0)
  2058f6:	078e                	slli	a5,a5,0x3
  2058f8:	97ba                	add	a5,a5,a4
  2058fa:	439c                	lw	a5,0(a5)
  2058fc:	0087d79b          	srliw	a5,a5,0x8
  205900:	8bbd                	andi	a5,a5,15
  205902:	0ff7f793          	andi	a5,a5,255
  205906:	fef42623          	sw	a5,-20(s0)
  20590a:	a405                	j	205b2a <SchedulingNandReqPerCh+0x3e4>
  20590c:	fec42783          	lw	a5,-20(s0)
  205910:	fe042703          	lw	a4,-32(s0)
  205914:	00f757bb          	srlw	a5,a4,a5
  205918:	2781                	sext.w	a5,a5
  20591a:	8b85                	andi	a5,a5,1
  20591c:	2781                	sext.w	a5,a5
  20591e:	1c078d63          	beqz	a5,205af8 <SchedulingNandReqPerCh+0x3b2>
  205922:	fec42703          	lw	a4,-20(s0)
  205926:	fcc42783          	lw	a5,-52(s0)
  20592a:	85ba                	mv	a1,a4
  20592c:	853e                	mv	a0,a5
  20592e:	6b8030ef          	jal	ra,208fe6 <CheckReqStatus>
  205932:	87aa                	mv	a5,a0
  205934:	fcf42e23          	sw	a5,-36(s0)
  205938:	fdc42783          	lw	a5,-36(s0)
  20593c:	2781                	sext.w	a5,a5
  20593e:	10078463          	beqz	a5,205a46 <SchedulingNandReqPerCh+0x300>
  205942:	fdc42683          	lw	a3,-36(s0)
  205946:	fec42703          	lw	a4,-20(s0)
  20594a:	fcc42783          	lw	a5,-52(s0)
  20594e:	8636                	mv	a2,a3
  205950:	85ba                	mv	a1,a4
  205952:	853e                	mv	a0,a5
  205954:	263030ef          	jal	ra,2093b6 <ExecuteNandReq>
  205958:	002107b7          	lui	a5,0x210
  20595c:	0b07b703          	ld	a4,176(a5) # 2100b0 <dieStateTablePtr>
  205960:	fec46783          	lwu	a5,-20(s0)
  205964:	fcc46683          	lwu	a3,-52(s0)
  205968:	068e                	slli	a3,a3,0x3
  20596a:	97b6                	add	a5,a5,a3
  20596c:	078a                	slli	a5,a5,0x2
  20596e:	97ba                	add	a5,a5,a4
  205970:	439c                	lw	a5,0(a5)
  205972:	0107d79b          	srliw	a5,a5,0x10
  205976:	8bbd                	andi	a5,a5,15
  205978:	0ff7f793          	andi	a5,a5,255
  20597c:	fef42223          	sw	a5,-28(s0)
  205980:	fec42703          	lw	a4,-20(s0)
  205984:	fcc42783          	lw	a5,-52(s0)
  205988:	85ba                	mv	a1,a4
  20598a:	853e                	mv	a0,a5
  20598c:	661000ef          	jal	ra,2067ec <SelectivGetFromNandStatusReportList>
  205990:	002107b7          	lui	a5,0x210
  205994:	e6878713          	addi	a4,a5,-408 # 20fe68 <nandReqQ>
  205998:	fec46783          	lwu	a5,-20(s0)
  20599c:	fcc46683          	lwu	a3,-52(s0)
  2059a0:	068e                	slli	a3,a3,0x3
  2059a2:	97b6                	add	a5,a5,a3
  2059a4:	078e                	slli	a5,a5,0x3
  2059a6:	97ba                	add	a5,a5,a4
  2059a8:	0007d783          	lhu	a5,0(a5)
  2059ac:	0007871b          	sext.w	a4,a5
  2059b0:	67c1                	lui	a5,0x10
  2059b2:	17fd                	addi	a5,a5,-1
  2059b4:	00f71a63          	bne	a4,a5,2059c8 <SchedulingNandReqPerCh+0x282>
  2059b8:	fec42703          	lw	a4,-20(s0)
  2059bc:	fcc42783          	lw	a5,-52(s0)
  2059c0:	85ba                	mv	a1,a4
  2059c2:	853e                	mv	a0,a5
  2059c4:	1fc060ef          	jal	ra,20bbc0 <ReleaseBlockedByRowAddrDepReq>
  2059c8:	002107b7          	lui	a5,0x210
  2059cc:	e6878713          	addi	a4,a5,-408 # 20fe68 <nandReqQ>
  2059d0:	fec46783          	lwu	a5,-20(s0)
  2059d4:	fcc46683          	lwu	a3,-52(s0)
  2059d8:	068e                	slli	a3,a3,0x3
  2059da:	97b6                	add	a5,a5,a3
  2059dc:	078e                	slli	a5,a5,0x3
  2059de:	97ba                	add	a5,a5,a4
  2059e0:	0007d783          	lhu	a5,0(a5)
  2059e4:	0007871b          	sext.w	a4,a5
  2059e8:	67c1                	lui	a5,0x10
  2059ea:	17fd                	addi	a5,a5,-1
  2059ec:	02f70b63          	beq	a4,a5,205a22 <SchedulingNandReqPerCh+0x2dc>
  2059f0:	002107b7          	lui	a5,0x210
  2059f4:	e6878713          	addi	a4,a5,-408 # 20fe68 <nandReqQ>
  2059f8:	fec46783          	lwu	a5,-20(s0)
  2059fc:	fcc46683          	lwu	a3,-52(s0)
  205a00:	068e                	slli	a3,a3,0x3
  205a02:	97b6                	add	a5,a5,a3
  205a04:	078e                	slli	a5,a5,0x3
  205a06:	97ba                	add	a5,a5,a4
  205a08:	0007d783          	lhu	a5,0(a5)
  205a0c:	2781                	sext.w	a5,a5
  205a0e:	fec42683          	lw	a3,-20(s0)
  205a12:	fcc42703          	lw	a4,-52(s0)
  205a16:	8636                	mv	a2,a3
  205a18:	85ba                	mv	a1,a4
  205a1a:	853e                	mv	a0,a5
  205a1c:	598000ef          	jal	ra,205fb4 <PutToNandWayPriorityTable>
  205a20:	a831                	j	205a3c <SchedulingNandReqPerCh+0x2f6>
  205a22:	fec42703          	lw	a4,-20(s0)
  205a26:	fcc42783          	lw	a5,-52(s0)
  205a2a:	85ba                	mv	a1,a4
  205a2c:	853e                	mv	a0,a5
  205a2e:	6da000ef          	jal	ra,206108 <PutToNandIdleList>
  205a32:	fe842783          	lw	a5,-24(s0)
  205a36:	2785                	addiw	a5,a5,1
  205a38:	fef42423          	sw	a5,-24(s0)
  205a3c:	fe442783          	lw	a5,-28(s0)
  205a40:	fef42623          	sw	a5,-20(s0)
  205a44:	a0dd                	j	205b2a <SchedulingNandReqPerCh+0x3e4>
  205a46:	002107b7          	lui	a5,0x210
  205a4a:	0b07b703          	ld	a4,176(a5) # 2100b0 <dieStateTablePtr>
  205a4e:	fec46783          	lwu	a5,-20(s0)
  205a52:	fcc46683          	lwu	a3,-52(s0)
  205a56:	068e                	slli	a3,a3,0x3
  205a58:	97b6                	add	a5,a5,a3
  205a5a:	078a                	slli	a5,a5,0x2
  205a5c:	97ba                	add	a5,a5,a4
  205a5e:	439c                	lw	a5,0(a5)
  205a60:	0087d79b          	srliw	a5,a5,0x8
  205a64:	8bbd                	andi	a5,a5,15
  205a66:	0ff7f793          	andi	a5,a5,255
  205a6a:	873e                	mv	a4,a5
  205a6c:	4785                	li	a5,1
  205a6e:	04f71b63          	bne	a4,a5,205ac4 <SchedulingNandReqPerCh+0x37e>
  205a72:	002107b7          	lui	a5,0x210
  205a76:	0b07b703          	ld	a4,176(a5) # 2100b0 <dieStateTablePtr>
  205a7a:	fec46783          	lwu	a5,-20(s0)
  205a7e:	fcc46683          	lwu	a3,-52(s0)
  205a82:	068e                	slli	a3,a3,0x3
  205a84:	97b6                	add	a5,a5,a3
  205a86:	078a                	slli	a5,a5,0x2
  205a88:	97ba                	add	a5,a5,a4
  205a8a:	439c                	lw	a5,0(a5)
  205a8c:	0107d79b          	srliw	a5,a5,0x10
  205a90:	8bbd                	andi	a5,a5,15
  205a92:	0ff7f793          	andi	a5,a5,255
  205a96:	fef42223          	sw	a5,-28(s0)
  205a9a:	fec42703          	lw	a4,-20(s0)
  205a9e:	fcc42783          	lw	a5,-52(s0)
  205aa2:	85ba                	mv	a1,a4
  205aa4:	853e                	mv	a0,a5
  205aa6:	547000ef          	jal	ra,2067ec <SelectivGetFromNandStatusReportList>
  205aaa:	fec42703          	lw	a4,-20(s0)
  205aae:	fcc42783          	lw	a5,-52(s0)
  205ab2:	85ba                	mv	a1,a4
  205ab4:	853e                	mv	a0,a5
  205ab6:	524020ef          	jal	ra,207fda <PutToNandStatusCheckList>
  205aba:	fe442783          	lw	a5,-28(s0)
  205abe:	fef42623          	sw	a5,-20(s0)
  205ac2:	a0a5                	j	205b2a <SchedulingNandReqPerCh+0x3e4>
  205ac4:	002107b7          	lui	a5,0x210
  205ac8:	0b07b703          	ld	a4,176(a5) # 2100b0 <dieStateTablePtr>
  205acc:	fec46783          	lwu	a5,-20(s0)
  205ad0:	fcc46683          	lwu	a3,-52(s0)
  205ad4:	068e                	slli	a3,a3,0x3
  205ad6:	97b6                	add	a5,a5,a3
  205ad8:	078a                	slli	a5,a5,0x2
  205ada:	97ba                	add	a5,a5,a4
  205adc:	439c                	lw	a5,0(a5)
  205ade:	0107d79b          	srliw	a5,a5,0x10
  205ae2:	8bbd                	andi	a5,a5,15
  205ae4:	0ff7f793          	andi	a5,a5,255
  205ae8:	fef42623          	sw	a5,-20(s0)
  205aec:	fe842783          	lw	a5,-24(s0)
  205af0:	2785                	addiw	a5,a5,1
  205af2:	fef42423          	sw	a5,-24(s0)
  205af6:	a815                	j	205b2a <SchedulingNandReqPerCh+0x3e4>
  205af8:	002107b7          	lui	a5,0x210
  205afc:	0b07b703          	ld	a4,176(a5) # 2100b0 <dieStateTablePtr>
  205b00:	fec46783          	lwu	a5,-20(s0)
  205b04:	fcc46683          	lwu	a3,-52(s0)
  205b08:	068e                	slli	a3,a3,0x3
  205b0a:	97b6                	add	a5,a5,a3
  205b0c:	078a                	slli	a5,a5,0x2
  205b0e:	97ba                	add	a5,a5,a4
  205b10:	439c                	lw	a5,0(a5)
  205b12:	0107d79b          	srliw	a5,a5,0x10
  205b16:	8bbd                	andi	a5,a5,15
  205b18:	0ff7f793          	andi	a5,a5,255
  205b1c:	fef42623          	sw	a5,-20(s0)
  205b20:	fe842783          	lw	a5,-24(s0)
  205b24:	2785                	addiw	a5,a5,1
  205b26:	fef42423          	sw	a5,-24(s0)
  205b2a:	fec42783          	lw	a5,-20(s0)
  205b2e:	0007871b          	sext.w	a4,a5
  205b32:	47bd                	li	a5,15
  205b34:	dcf71ce3          	bne	a4,a5,20590c <SchedulingNandReqPerCh+0x1c6>
  205b38:	fe842783          	lw	a5,-24(s0)
  205b3c:	0007871b          	sext.w	a4,a5
  205b40:	47a1                	li	a5,8
  205b42:	46f70563          	beq	a4,a5,205fac <SchedulingNandReqPerCh+0x866>
  205b46:	002107b7          	lui	a5,0x210
  205b4a:	0c878713          	addi	a4,a5,200 # 2100c8 <chCtlReg>
  205b4e:	fcc46783          	lwu	a5,-52(s0)
  205b52:	078e                	slli	a5,a5,0x3
  205b54:	97ba                	add	a5,a5,a4
  205b56:	639c                	ld	a5,0(a5)
  205b58:	853e                	mv	a0,a5
  205b5a:	57b030ef          	jal	ra,2098d4 <V2FIsControllerBusy>
  205b5e:	87aa                	mv	a5,a0
  205b60:	2781                	sext.w	a5,a5
  205b62:	44079563          	bnez	a5,205fac <SchedulingNandReqPerCh+0x866>
  205b66:	002107b7          	lui	a5,0x210
  205b6a:	0987b703          	ld	a4,152(a5) # 210098 <wayPriorityTablePtr>
  205b6e:	fcc46783          	lwu	a5,-52(s0)
  205b72:	078e                	slli	a5,a5,0x3
  205b74:	97ba                	add	a5,a5,a4
  205b76:	43dc                	lw	a5,4(a5)
  205b78:	0107d79b          	srliw	a5,a5,0x10
  205b7c:	8bbd                	andi	a5,a5,15
  205b7e:	0ff7f793          	andi	a5,a5,255
  205b82:	873e                	mv	a4,a5
  205b84:	47bd                	li	a5,15
  205b86:	0ef70263          	beq	a4,a5,205c6a <SchedulingNandReqPerCh+0x524>
  205b8a:	002107b7          	lui	a5,0x210
  205b8e:	0c878713          	addi	a4,a5,200 # 2100c8 <chCtlReg>
  205b92:	fcc46783          	lwu	a5,-52(s0)
  205b96:	078e                	slli	a5,a5,0x3
  205b98:	97ba                	add	a5,a5,a4
  205b9a:	639c                	ld	a5,0(a5)
  205b9c:	853e                	mv	a0,a5
  205b9e:	158040ef          	jal	ra,209cf6 <V2FReadyBusyAsync>
  205ba2:	87aa                	mv	a5,a0
  205ba4:	fef42023          	sw	a5,-32(s0)
  205ba8:	002107b7          	lui	a5,0x210
  205bac:	0987b703          	ld	a4,152(a5) # 210098 <wayPriorityTablePtr>
  205bb0:	fcc46783          	lwu	a5,-52(s0)
  205bb4:	078e                	slli	a5,a5,0x3
  205bb6:	97ba                	add	a5,a5,a4
  205bb8:	43dc                	lw	a5,4(a5)
  205bba:	0107d79b          	srliw	a5,a5,0x10
  205bbe:	8bbd                	andi	a5,a5,15
  205bc0:	0ff7f793          	andi	a5,a5,255
  205bc4:	fef42623          	sw	a5,-20(s0)
  205bc8:	a851                	j	205c5c <SchedulingNandReqPerCh+0x516>
  205bca:	fec42783          	lw	a5,-20(s0)
  205bce:	fe042703          	lw	a4,-32(s0)
  205bd2:	00f757bb          	srlw	a5,a4,a5
  205bd6:	2781                	sext.w	a5,a5
  205bd8:	8b85                	andi	a5,a5,1
  205bda:	2781                	sext.w	a5,a5
  205bdc:	cfa1                	beqz	a5,205c34 <SchedulingNandReqPerCh+0x4ee>
  205bde:	fec42703          	lw	a4,-20(s0)
  205be2:	fcc42783          	lw	a5,-52(s0)
  205be6:	85ba                	mv	a1,a4
  205be8:	853e                	mv	a0,a5
  205bea:	3fc030ef          	jal	ra,208fe6 <CheckReqStatus>
  205bee:	87aa                	mv	a5,a0
  205bf0:	fcf42e23          	sw	a5,-36(s0)
  205bf4:	fec42703          	lw	a4,-20(s0)
  205bf8:	fcc42783          	lw	a5,-52(s0)
  205bfc:	85ba                	mv	a1,a4
  205bfe:	853e                	mv	a0,a5
  205c00:	5aa020ef          	jal	ra,2081aa <SelectiveGetFromNandStatusCheckList>
  205c04:	fec42703          	lw	a4,-20(s0)
  205c08:	fcc42783          	lw	a5,-52(s0)
  205c0c:	85ba                	mv	a1,a4
  205c0e:	853e                	mv	a0,a5
  205c10:	211000ef          	jal	ra,206620 <PutToNandStatusReportList>
  205c14:	002107b7          	lui	a5,0x210
  205c18:	0c878713          	addi	a4,a5,200 # 2100c8 <chCtlReg>
  205c1c:	fcc46783          	lwu	a5,-52(s0)
  205c20:	078e                	slli	a5,a5,0x3
  205c22:	97ba                	add	a5,a5,a4
  205c24:	639c                	ld	a5,0(a5)
  205c26:	853e                	mv	a0,a5
  205c28:	4ad030ef          	jal	ra,2098d4 <V2FIsControllerBusy>
  205c2c:	87aa                	mv	a5,a0
  205c2e:	2781                	sext.w	a5,a5
  205c30:	36079563          	bnez	a5,205f9a <SchedulingNandReqPerCh+0x854>
  205c34:	002107b7          	lui	a5,0x210
  205c38:	0b07b703          	ld	a4,176(a5) # 2100b0 <dieStateTablePtr>
  205c3c:	fec46783          	lwu	a5,-20(s0)
  205c40:	fcc46683          	lwu	a3,-52(s0)
  205c44:	068e                	slli	a3,a3,0x3
  205c46:	97b6                	add	a5,a5,a3
  205c48:	078a                	slli	a5,a5,0x2
  205c4a:	97ba                	add	a5,a5,a4
  205c4c:	439c                	lw	a5,0(a5)
  205c4e:	0107d79b          	srliw	a5,a5,0x10
  205c52:	8bbd                	andi	a5,a5,15
  205c54:	0ff7f793          	andi	a5,a5,255
  205c58:	fef42623          	sw	a5,-20(s0)
  205c5c:	fec42783          	lw	a5,-20(s0)
  205c60:	0007871b          	sext.w	a4,a5
  205c64:	47bd                	li	a5,15
  205c66:	f6f712e3          	bne	a4,a5,205bca <SchedulingNandReqPerCh+0x484>
  205c6a:	002107b7          	lui	a5,0x210
  205c6e:	0987b703          	ld	a4,152(a5) # 210098 <wayPriorityTablePtr>
  205c72:	fcc46783          	lwu	a5,-52(s0)
  205c76:	078e                	slli	a5,a5,0x3
  205c78:	97ba                	add	a5,a5,a4
  205c7a:	439c                	lw	a5,0(a5)
  205c7c:	0107d79b          	srliw	a5,a5,0x10
  205c80:	8bbd                	andi	a5,a5,15
  205c82:	0ff7f793          	andi	a5,a5,255
  205c86:	873e                	mv	a4,a5
  205c88:	47bd                	li	a5,15
  205c8a:	0af70763          	beq	a4,a5,205d38 <SchedulingNandReqPerCh+0x5f2>
  205c8e:	002107b7          	lui	a5,0x210
  205c92:	0987b703          	ld	a4,152(a5) # 210098 <wayPriorityTablePtr>
  205c96:	fcc46783          	lwu	a5,-52(s0)
  205c9a:	078e                	slli	a5,a5,0x3
  205c9c:	97ba                	add	a5,a5,a4
  205c9e:	439c                	lw	a5,0(a5)
  205ca0:	0107d79b          	srliw	a5,a5,0x10
  205ca4:	8bbd                	andi	a5,a5,15
  205ca6:	0ff7f793          	andi	a5,a5,255
  205caa:	fef42623          	sw	a5,-20(s0)
  205cae:	a8b5                	j	205d2a <SchedulingNandReqPerCh+0x5e4>
  205cb0:	fec42703          	lw	a4,-20(s0)
  205cb4:	fcc42783          	lw	a5,-52(s0)
  205cb8:	4601                	li	a2,0
  205cba:	85ba                	mv	a1,a4
  205cbc:	853e                	mv	a0,a5
  205cbe:	6f8030ef          	jal	ra,2093b6 <ExecuteNandReq>
  205cc2:	fec42703          	lw	a4,-20(s0)
  205cc6:	fcc42783          	lw	a5,-52(s0)
  205cca:	85ba                	mv	a1,a4
  205ccc:	853e                	mv	a0,a5
  205cce:	04c010ef          	jal	ra,206d1a <SelectiveGetFromNandReadTriggerList>
  205cd2:	fec42703          	lw	a4,-20(s0)
  205cd6:	fcc42783          	lw	a5,-52(s0)
  205cda:	85ba                	mv	a1,a4
  205cdc:	853e                	mv	a0,a5
  205cde:	2fc020ef          	jal	ra,207fda <PutToNandStatusCheckList>
  205ce2:	002107b7          	lui	a5,0x210
  205ce6:	0c878713          	addi	a4,a5,200 # 2100c8 <chCtlReg>
  205cea:	fcc46783          	lwu	a5,-52(s0)
  205cee:	078e                	slli	a5,a5,0x3
  205cf0:	97ba                	add	a5,a5,a4
  205cf2:	639c                	ld	a5,0(a5)
  205cf4:	853e                	mv	a0,a5
  205cf6:	3df030ef          	jal	ra,2098d4 <V2FIsControllerBusy>
  205cfa:	87aa                	mv	a5,a0
  205cfc:	2781                	sext.w	a5,a5
  205cfe:	2a079063          	bnez	a5,205f9e <SchedulingNandReqPerCh+0x858>
  205d02:	002107b7          	lui	a5,0x210
  205d06:	0b07b703          	ld	a4,176(a5) # 2100b0 <dieStateTablePtr>
  205d0a:	fec46783          	lwu	a5,-20(s0)
  205d0e:	fcc46683          	lwu	a3,-52(s0)
  205d12:	068e                	slli	a3,a3,0x3
  205d14:	97b6                	add	a5,a5,a3
  205d16:	078a                	slli	a5,a5,0x2
  205d18:	97ba                	add	a5,a5,a4
  205d1a:	439c                	lw	a5,0(a5)
  205d1c:	0107d79b          	srliw	a5,a5,0x10
  205d20:	8bbd                	andi	a5,a5,15
  205d22:	0ff7f793          	andi	a5,a5,255
  205d26:	fef42623          	sw	a5,-20(s0)
  205d2a:	fec42783          	lw	a5,-20(s0)
  205d2e:	0007871b          	sext.w	a4,a5
  205d32:	47bd                	li	a5,15
  205d34:	f6f71ee3          	bne	a4,a5,205cb0 <SchedulingNandReqPerCh+0x56a>
  205d38:	002107b7          	lui	a5,0x210
  205d3c:	0987b703          	ld	a4,152(a5) # 210098 <wayPriorityTablePtr>
  205d40:	fcc46783          	lwu	a5,-52(s0)
  205d44:	078e                	slli	a5,a5,0x3
  205d46:	97ba                	add	a5,a5,a4
  205d48:	43dc                	lw	a5,4(a5)
  205d4a:	0087d79b          	srliw	a5,a5,0x8
  205d4e:	8bbd                	andi	a5,a5,15
  205d50:	0ff7f793          	andi	a5,a5,255
  205d54:	873e                	mv	a4,a5
  205d56:	47bd                	li	a5,15
  205d58:	0af70763          	beq	a4,a5,205e06 <SchedulingNandReqPerCh+0x6c0>
  205d5c:	002107b7          	lui	a5,0x210
  205d60:	0987b703          	ld	a4,152(a5) # 210098 <wayPriorityTablePtr>
  205d64:	fcc46783          	lwu	a5,-52(s0)
  205d68:	078e                	slli	a5,a5,0x3
  205d6a:	97ba                	add	a5,a5,a4
  205d6c:	43dc                	lw	a5,4(a5)
  205d6e:	0087d79b          	srliw	a5,a5,0x8
  205d72:	8bbd                	andi	a5,a5,15
  205d74:	0ff7f793          	andi	a5,a5,255
  205d78:	fef42623          	sw	a5,-20(s0)
  205d7c:	a8b5                	j	205df8 <SchedulingNandReqPerCh+0x6b2>
  205d7e:	fec42703          	lw	a4,-20(s0)
  205d82:	fcc42783          	lw	a5,-52(s0)
  205d86:	4601                	li	a2,0
  205d88:	85ba                	mv	a1,a4
  205d8a:	853e                	mv	a0,a5
  205d8c:	62a030ef          	jal	ra,2093b6 <ExecuteNandReq>
  205d90:	fec42703          	lw	a4,-20(s0)
  205d94:	fcc42783          	lw	a5,-52(s0)
  205d98:	85ba                	mv	a1,a4
  205d9a:	853e                	mv	a0,a5
  205d9c:	6e1010ef          	jal	ra,207c7c <SelectiveGetFromNandEraseList>
  205da0:	fec42703          	lw	a4,-20(s0)
  205da4:	fcc42783          	lw	a5,-52(s0)
  205da8:	85ba                	mv	a1,a4
  205daa:	853e                	mv	a0,a5
  205dac:	22e020ef          	jal	ra,207fda <PutToNandStatusCheckList>
  205db0:	002107b7          	lui	a5,0x210
  205db4:	0c878713          	addi	a4,a5,200 # 2100c8 <chCtlReg>
  205db8:	fcc46783          	lwu	a5,-52(s0)
  205dbc:	078e                	slli	a5,a5,0x3
  205dbe:	97ba                	add	a5,a5,a4
  205dc0:	639c                	ld	a5,0(a5)
  205dc2:	853e                	mv	a0,a5
  205dc4:	311030ef          	jal	ra,2098d4 <V2FIsControllerBusy>
  205dc8:	87aa                	mv	a5,a0
  205dca:	2781                	sext.w	a5,a5
  205dcc:	1c079b63          	bnez	a5,205fa2 <SchedulingNandReqPerCh+0x85c>
  205dd0:	002107b7          	lui	a5,0x210
  205dd4:	0b07b703          	ld	a4,176(a5) # 2100b0 <dieStateTablePtr>
  205dd8:	fec46783          	lwu	a5,-20(s0)
  205ddc:	fcc46683          	lwu	a3,-52(s0)
  205de0:	068e                	slli	a3,a3,0x3
  205de2:	97b6                	add	a5,a5,a3
  205de4:	078a                	slli	a5,a5,0x2
  205de6:	97ba                	add	a5,a5,a4
  205de8:	439c                	lw	a5,0(a5)
  205dea:	0107d79b          	srliw	a5,a5,0x10
  205dee:	8bbd                	andi	a5,a5,15
  205df0:	0ff7f793          	andi	a5,a5,255
  205df4:	fef42623          	sw	a5,-20(s0)
  205df8:	fec42783          	lw	a5,-20(s0)
  205dfc:	0007871b          	sext.w	a4,a5
  205e00:	47bd                	li	a5,15
  205e02:	f6f71ee3          	bne	a4,a5,205d7e <SchedulingNandReqPerCh+0x638>
  205e06:	002107b7          	lui	a5,0x210
  205e0a:	0987b703          	ld	a4,152(a5) # 210098 <wayPriorityTablePtr>
  205e0e:	fcc46783          	lwu	a5,-52(s0)
  205e12:	078e                	slli	a5,a5,0x3
  205e14:	97ba                	add	a5,a5,a4
  205e16:	439c                	lw	a5,0(a5)
  205e18:	0187d79b          	srliw	a5,a5,0x18
  205e1c:	8bbd                	andi	a5,a5,15
  205e1e:	0ff7f793          	andi	a5,a5,255
  205e22:	873e                	mv	a4,a5
  205e24:	47bd                	li	a5,15
  205e26:	0af70763          	beq	a4,a5,205ed4 <SchedulingNandReqPerCh+0x78e>
  205e2a:	002107b7          	lui	a5,0x210
  205e2e:	0987b703          	ld	a4,152(a5) # 210098 <wayPriorityTablePtr>
  205e32:	fcc46783          	lwu	a5,-52(s0)
  205e36:	078e                	slli	a5,a5,0x3
  205e38:	97ba                	add	a5,a5,a4
  205e3a:	439c                	lw	a5,0(a5)
  205e3c:	0187d79b          	srliw	a5,a5,0x18
  205e40:	8bbd                	andi	a5,a5,15
  205e42:	0ff7f793          	andi	a5,a5,255
  205e46:	fef42623          	sw	a5,-20(s0)
  205e4a:	a8b5                	j	205ec6 <SchedulingNandReqPerCh+0x780>
  205e4c:	fec42703          	lw	a4,-20(s0)
  205e50:	fcc42783          	lw	a5,-52(s0)
  205e54:	4601                	li	a2,0
  205e56:	85ba                	mv	a1,a4
  205e58:	853e                	mv	a0,a5
  205e5a:	55c030ef          	jal	ra,2093b6 <ExecuteNandReq>
  205e5e:	fec42703          	lw	a4,-20(s0)
  205e62:	fcc42783          	lw	a5,-52(s0)
  205e66:	85ba                	mv	a1,a4
  205e68:	853e                	mv	a0,a5
  205e6a:	3d2010ef          	jal	ra,20723c <SelectiveGetFromNandWriteList>
  205e6e:	fec42703          	lw	a4,-20(s0)
  205e72:	fcc42783          	lw	a5,-52(s0)
  205e76:	85ba                	mv	a1,a4
  205e78:	853e                	mv	a0,a5
  205e7a:	160020ef          	jal	ra,207fda <PutToNandStatusCheckList>
  205e7e:	002107b7          	lui	a5,0x210
  205e82:	0c878713          	addi	a4,a5,200 # 2100c8 <chCtlReg>
  205e86:	fcc46783          	lwu	a5,-52(s0)
  205e8a:	078e                	slli	a5,a5,0x3
  205e8c:	97ba                	add	a5,a5,a4
  205e8e:	639c                	ld	a5,0(a5)
  205e90:	853e                	mv	a0,a5
  205e92:	243030ef          	jal	ra,2098d4 <V2FIsControllerBusy>
  205e96:	87aa                	mv	a5,a0
  205e98:	2781                	sext.w	a5,a5
  205e9a:	10079663          	bnez	a5,205fa6 <SchedulingNandReqPerCh+0x860>
  205e9e:	002107b7          	lui	a5,0x210
  205ea2:	0b07b703          	ld	a4,176(a5) # 2100b0 <dieStateTablePtr>
  205ea6:	fec46783          	lwu	a5,-20(s0)
  205eaa:	fcc46683          	lwu	a3,-52(s0)
  205eae:	068e                	slli	a3,a3,0x3
  205eb0:	97b6                	add	a5,a5,a3
  205eb2:	078a                	slli	a5,a5,0x2
  205eb4:	97ba                	add	a5,a5,a4
  205eb6:	439c                	lw	a5,0(a5)
  205eb8:	0107d79b          	srliw	a5,a5,0x10
  205ebc:	8bbd                	andi	a5,a5,15
  205ebe:	0ff7f793          	andi	a5,a5,255
  205ec2:	fef42623          	sw	a5,-20(s0)
  205ec6:	fec42783          	lw	a5,-20(s0)
  205eca:	0007871b          	sext.w	a4,a5
  205ece:	47bd                	li	a5,15
  205ed0:	f6f71ee3          	bne	a4,a5,205e4c <SchedulingNandReqPerCh+0x706>
  205ed4:	002107b7          	lui	a5,0x210
  205ed8:	0987b703          	ld	a4,152(a5) # 210098 <wayPriorityTablePtr>
  205edc:	fcc46783          	lwu	a5,-52(s0)
  205ee0:	078e                	slli	a5,a5,0x3
  205ee2:	97ba                	add	a5,a5,a4
  205ee4:	43dc                	lw	a5,4(a5)
  205ee6:	8bbd                	andi	a5,a5,15
  205ee8:	0ff7f793          	andi	a5,a5,255
  205eec:	873e                	mv	a4,a5
  205eee:	47bd                	li	a5,15
  205ef0:	0af70e63          	beq	a4,a5,205fac <SchedulingNandReqPerCh+0x866>
  205ef4:	002107b7          	lui	a5,0x210
  205ef8:	0987b703          	ld	a4,152(a5) # 210098 <wayPriorityTablePtr>
  205efc:	fcc46783          	lwu	a5,-52(s0)
  205f00:	078e                	slli	a5,a5,0x3
  205f02:	97ba                	add	a5,a5,a4
  205f04:	43dc                	lw	a5,4(a5)
  205f06:	8bbd                	andi	a5,a5,15
  205f08:	0ff7f793          	andi	a5,a5,255
  205f0c:	fef42623          	sw	a5,-20(s0)
  205f10:	a8ad                	j	205f8a <SchedulingNandReqPerCh+0x844>
  205f12:	fec42703          	lw	a4,-20(s0)
  205f16:	fcc42783          	lw	a5,-52(s0)
  205f1a:	4601                	li	a2,0
  205f1c:	85ba                	mv	a1,a4
  205f1e:	853e                	mv	a0,a5
  205f20:	496030ef          	jal	ra,2093b6 <ExecuteNandReq>
  205f24:	fec42703          	lw	a4,-20(s0)
  205f28:	fcc42783          	lw	a5,-52(s0)
  205f2c:	85ba                	mv	a1,a4
  205f2e:	853e                	mv	a0,a5
  205f30:	02d010ef          	jal	ra,20775c <SelectiveGetFromNandReadTransferList>
  205f34:	fec42703          	lw	a4,-20(s0)
  205f38:	fcc42783          	lw	a5,-52(s0)
  205f3c:	85ba                	mv	a1,a4
  205f3e:	853e                	mv	a0,a5
  205f40:	6e0000ef          	jal	ra,206620 <PutToNandStatusReportList>
  205f44:	002107b7          	lui	a5,0x210
  205f48:	0c878713          	addi	a4,a5,200 # 2100c8 <chCtlReg>
  205f4c:	fcc46783          	lwu	a5,-52(s0)
  205f50:	078e                	slli	a5,a5,0x3
  205f52:	97ba                	add	a5,a5,a4
  205f54:	639c                	ld	a5,0(a5)
  205f56:	853e                	mv	a0,a5
  205f58:	17d030ef          	jal	ra,2098d4 <V2FIsControllerBusy>
  205f5c:	87aa                	mv	a5,a0
  205f5e:	2781                	sext.w	a5,a5
  205f60:	e7a9                	bnez	a5,205faa <SchedulingNandReqPerCh+0x864>
  205f62:	002107b7          	lui	a5,0x210
  205f66:	0b07b703          	ld	a4,176(a5) # 2100b0 <dieStateTablePtr>
  205f6a:	fec46783          	lwu	a5,-20(s0)
  205f6e:	fcc46683          	lwu	a3,-52(s0)
  205f72:	068e                	slli	a3,a3,0x3
  205f74:	97b6                	add	a5,a5,a3
  205f76:	078a                	slli	a5,a5,0x2
  205f78:	97ba                	add	a5,a5,a4
  205f7a:	439c                	lw	a5,0(a5)
  205f7c:	0107d79b          	srliw	a5,a5,0x10
  205f80:	8bbd                	andi	a5,a5,15
  205f82:	0ff7f793          	andi	a5,a5,255
  205f86:	fef42623          	sw	a5,-20(s0)
  205f8a:	fec42783          	lw	a5,-20(s0)
  205f8e:	0007871b          	sext.w	a4,a5
  205f92:	47bd                	li	a5,15
  205f94:	f6f71fe3          	bne	a4,a5,205f12 <SchedulingNandReqPerCh+0x7cc>
  205f98:	a811                	j	205fac <SchedulingNandReqPerCh+0x866>
  205f9a:	0001                	nop
  205f9c:	a801                	j	205fac <SchedulingNandReqPerCh+0x866>
  205f9e:	0001                	nop
  205fa0:	a031                	j	205fac <SchedulingNandReqPerCh+0x866>
  205fa2:	0001                	nop
  205fa4:	a021                	j	205fac <SchedulingNandReqPerCh+0x866>
  205fa6:	0001                	nop
  205fa8:	a011                	j	205fac <SchedulingNandReqPerCh+0x866>
  205faa:	0001                	nop
  205fac:	70e2                	ld	ra,56(sp)
  205fae:	7442                	ld	s0,48(sp)
  205fb0:	6121                	addi	sp,sp,64
  205fb2:	8082                	ret

0000000000205fb4 <PutToNandWayPriorityTable>:
  205fb4:	1101                	addi	sp,sp,-32
  205fb6:	ec06                	sd	ra,24(sp)
  205fb8:	e822                	sd	s0,16(sp)
  205fba:	1000                	addi	s0,sp,32
  205fbc:	87aa                	mv	a5,a0
  205fbe:	86ae                	mv	a3,a1
  205fc0:	8732                	mv	a4,a2
  205fc2:	fef42623          	sw	a5,-20(s0)
  205fc6:	87b6                	mv	a5,a3
  205fc8:	fef42423          	sw	a5,-24(s0)
  205fcc:	87ba                	mv	a5,a4
  205fce:	fef42223          	sw	a5,-28(s0)
  205fd2:	002107b7          	lui	a5,0x210
  205fd6:	e507b703          	ld	a4,-432(a5) # 20fe50 <reqPoolPtr>
  205fda:	fec46683          	lwu	a3,-20(s0)
  205fde:	03400793          	li	a5,52
  205fe2:	02f687b3          	mul	a5,a3,a5
  205fe6:	97ba                	add	a5,a5,a4
  205fe8:	0017c783          	lbu	a5,1(a5)
  205fec:	873e                	mv	a4,a5
  205fee:	47a1                	li	a5,8
  205ff0:	00f71b63          	bne	a4,a5,206006 <PutToNandWayPriorityTable+0x52>
  205ff4:	fe442703          	lw	a4,-28(s0)
  205ff8:	fe842783          	lw	a5,-24(s0)
  205ffc:	85ba                	mv	a1,a4
  205ffe:	853e                	mv	a0,a5
  206000:	34b000ef          	jal	ra,206b4a <PutToNandReadTriggerList>
  206004:	a8ed                	j	2060fe <PutToNandWayPriorityTable+0x14a>
  206006:	002107b7          	lui	a5,0x210
  20600a:	e507b703          	ld	a4,-432(a5) # 20fe50 <reqPoolPtr>
  20600e:	fec46683          	lwu	a3,-20(s0)
  206012:	03400793          	li	a5,52
  206016:	02f687b3          	mul	a5,a3,a5
  20601a:	97ba                	add	a5,a5,a4
  20601c:	0017c783          	lbu	a5,1(a5)
  206020:	873e                	mv	a4,a5
  206022:	47a5                	li	a5,9
  206024:	00f71b63          	bne	a4,a5,20603a <PutToNandWayPriorityTable+0x86>
  206028:	fe442703          	lw	a4,-28(s0)
  20602c:	fe842783          	lw	a5,-24(s0)
  206030:	85ba                	mv	a1,a4
  206032:	853e                	mv	a0,a5
  206034:	564010ef          	jal	ra,207598 <PutToNandReadTransferList>
  206038:	a0d9                	j	2060fe <PutToNandWayPriorityTable+0x14a>
  20603a:	002107b7          	lui	a5,0x210
  20603e:	e507b703          	ld	a4,-432(a5) # 20fe50 <reqPoolPtr>
  206042:	fec46683          	lwu	a3,-20(s0)
  206046:	03400793          	li	a5,52
  20604a:	02f687b3          	mul	a5,a3,a5
  20604e:	97ba                	add	a5,a5,a4
  206050:	0017c783          	lbu	a5,1(a5)
  206054:	eb91                	bnez	a5,206068 <PutToNandWayPriorityTable+0xb4>
  206056:	fe442703          	lw	a4,-28(s0)
  20605a:	fe842783          	lw	a5,-24(s0)
  20605e:	85ba                	mv	a1,a4
  206060:	853e                	mv	a0,a5
  206062:	018010ef          	jal	ra,20707a <PutToNandWriteList>
  206066:	a861                	j	2060fe <PutToNandWayPriorityTable+0x14a>
  206068:	002107b7          	lui	a5,0x210
  20606c:	e507b703          	ld	a4,-432(a5) # 20fe50 <reqPoolPtr>
  206070:	fec46683          	lwu	a3,-20(s0)
  206074:	03400793          	li	a5,52
  206078:	02f687b3          	mul	a5,a3,a5
  20607c:	97ba                	add	a5,a5,a4
  20607e:	0017c783          	lbu	a5,1(a5)
  206082:	873e                	mv	a4,a5
  206084:	47b1                	li	a5,12
  206086:	00f71b63          	bne	a4,a5,20609c <PutToNandWayPriorityTable+0xe8>
  20608a:	fe442703          	lw	a4,-28(s0)
  20608e:	fe842783          	lw	a5,-24(s0)
  206092:	85ba                	mv	a1,a4
  206094:	853e                	mv	a0,a5
  206096:	21b010ef          	jal	ra,207ab0 <PutToNandEraseList>
  20609a:	a095                	j	2060fe <PutToNandWayPriorityTable+0x14a>
  20609c:	002107b7          	lui	a5,0x210
  2060a0:	e507b703          	ld	a4,-432(a5) # 20fe50 <reqPoolPtr>
  2060a4:	fec46683          	lwu	a3,-20(s0)
  2060a8:	03400793          	li	a5,52
  2060ac:	02f687b3          	mul	a5,a3,a5
  2060b0:	97ba                	add	a5,a5,a4
  2060b2:	0017c783          	lbu	a5,1(a5)
  2060b6:	873e                	mv	a4,a5
  2060b8:	47b5                	li	a5,13
  2060ba:	02f70363          	beq	a4,a5,2060e0 <PutToNandWayPriorityTable+0x12c>
  2060be:	002107b7          	lui	a5,0x210
  2060c2:	e507b703          	ld	a4,-432(a5) # 20fe50 <reqPoolPtr>
  2060c6:	fec46683          	lwu	a3,-20(s0)
  2060ca:	03400793          	li	a5,52
  2060ce:	02f687b3          	mul	a5,a3,a5
  2060d2:	97ba                	add	a5,a5,a4
  2060d4:	0017c783          	lbu	a5,1(a5)
  2060d8:	873e                	mv	a4,a5
  2060da:	47b9                	li	a5,14
  2060dc:	00f71b63          	bne	a4,a5,2060f2 <PutToNandWayPriorityTable+0x13e>
  2060e0:	fe442703          	lw	a4,-28(s0)
  2060e4:	fe842783          	lw	a5,-24(s0)
  2060e8:	85ba                	mv	a1,a4
  2060ea:	853e                	mv	a0,a5
  2060ec:	78f000ef          	jal	ra,20707a <PutToNandWriteList>
  2060f0:	a039                	j	2060fe <PutToNandWayPriorityTable+0x14a>
  2060f2:	0020f7b7          	lui	a5,0x20f
  2060f6:	1f878513          	addi	a0,a5,504 # 20f1f8 <nvme_main+0x880>
  2060fa:	d1efe0ef          	jal	ra,204618 <cpl_print>
  2060fe:	0001                	nop
  206100:	60e2                	ld	ra,24(sp)
  206102:	6442                	ld	s0,16(sp)
  206104:	6105                	addi	sp,sp,32
  206106:	8082                	ret

0000000000206108 <PutToNandIdleList>:
  206108:	1101                	addi	sp,sp,-32
  20610a:	ec22                	sd	s0,24(sp)
  20610c:	1000                	addi	s0,sp,32
  20610e:	87aa                	mv	a5,a0
  206110:	872e                	mv	a4,a1
  206112:	fef42623          	sw	a5,-20(s0)
  206116:	87ba                	mv	a5,a4
  206118:	fef42423          	sw	a5,-24(s0)
  20611c:	002107b7          	lui	a5,0x210
  206120:	0987b703          	ld	a4,152(a5) # 210098 <wayPriorityTablePtr>
  206124:	fec46783          	lwu	a5,-20(s0)
  206128:	078e                	slli	a5,a5,0x3
  20612a:	97ba                	add	a5,a5,a4
  20612c:	439c                	lw	a5,0(a5)
  20612e:	0047d79b          	srliw	a5,a5,0x4
  206132:	8bbd                	andi	a5,a5,15
  206134:	0ff7f793          	andi	a5,a5,255
  206138:	873e                	mv	a4,a5
  20613a:	47bd                	li	a5,15
  20613c:	0ef70763          	beq	a4,a5,20622a <PutToNandIdleList+0x122>
  206140:	002107b7          	lui	a5,0x210
  206144:	0987b683          	ld	a3,152(a5) # 210098 <wayPriorityTablePtr>
  206148:	002107b7          	lui	a5,0x210
  20614c:	0b07b703          	ld	a4,176(a5) # 2100b0 <dieStateTablePtr>
  206150:	fec46783          	lwu	a5,-20(s0)
  206154:	078e                	slli	a5,a5,0x3
  206156:	97b6                	add	a5,a5,a3
  206158:	439c                	lw	a5,0(a5)
  20615a:	0047d79b          	srliw	a5,a5,0x4
  20615e:	8bbd                	andi	a5,a5,15
  206160:	0ff7f613          	andi	a2,a5,255
  206164:	fe846783          	lwu	a5,-24(s0)
  206168:	fec46683          	lwu	a3,-20(s0)
  20616c:	068e                	slli	a3,a3,0x3
  20616e:	97b6                	add	a5,a5,a3
  206170:	078a                	slli	a5,a5,0x2
  206172:	97ba                	add	a5,a5,a4
  206174:	8732                	mv	a4,a2
  206176:	8b3d                	andi	a4,a4,15
  206178:	00c7171b          	slliw	a4,a4,0xc
  20617c:	4390                	lw	a2,0(a5)
  20617e:	76c5                	lui	a3,0xffff1
  206180:	16fd                	addi	a3,a3,-1
  206182:	8ef1                	and	a3,a3,a2
  206184:	8f55                	or	a4,a4,a3
  206186:	c398                	sw	a4,0(a5)
  206188:	002107b7          	lui	a5,0x210
  20618c:	0b07b703          	ld	a4,176(a5) # 2100b0 <dieStateTablePtr>
  206190:	fe846783          	lwu	a5,-24(s0)
  206194:	fec46683          	lwu	a3,-20(s0)
  206198:	068e                	slli	a3,a3,0x3
  20619a:	97b6                	add	a5,a5,a3
  20619c:	078a                	slli	a5,a5,0x2
  20619e:	97ba                	add	a5,a5,a4
  2061a0:	4394                	lw	a3,0(a5)
  2061a2:	000f0737          	lui	a4,0xf0
  2061a6:	8f55                	or	a4,a4,a3
  2061a8:	c398                	sw	a4,0(a5)
  2061aa:	002107b7          	lui	a5,0x210
  2061ae:	0b07b703          	ld	a4,176(a5) # 2100b0 <dieStateTablePtr>
  2061b2:	002107b7          	lui	a5,0x210
  2061b6:	0987b683          	ld	a3,152(a5) # 210098 <wayPriorityTablePtr>
  2061ba:	fec46783          	lwu	a5,-20(s0)
  2061be:	078e                	slli	a5,a5,0x3
  2061c0:	97b6                	add	a5,a5,a3
  2061c2:	439c                	lw	a5,0(a5)
  2061c4:	0047d79b          	srliw	a5,a5,0x4
  2061c8:	8bbd                	andi	a5,a5,15
  2061ca:	0ff7f793          	andi	a5,a5,255
  2061ce:	2781                	sext.w	a5,a5
  2061d0:	fe842683          	lw	a3,-24(s0)
  2061d4:	8abd                	andi	a3,a3,15
  2061d6:	0ff6f613          	andi	a2,a3,255
  2061da:	fec46683          	lwu	a3,-20(s0)
  2061de:	068e                	slli	a3,a3,0x3
  2061e0:	97b6                	add	a5,a5,a3
  2061e2:	078a                	slli	a5,a5,0x2
  2061e4:	97ba                	add	a5,a5,a4
  2061e6:	8732                	mv	a4,a2
  2061e8:	8b3d                	andi	a4,a4,15
  2061ea:	0107171b          	slliw	a4,a4,0x10
  2061ee:	4390                	lw	a2,0(a5)
  2061f0:	fff106b7          	lui	a3,0xfff10
  2061f4:	16fd                	addi	a3,a3,-1
  2061f6:	8ef1                	and	a3,a3,a2
  2061f8:	8f55                	or	a4,a4,a3
  2061fa:	c398                	sw	a4,0(a5)
  2061fc:	002107b7          	lui	a5,0x210
  206200:	0987b703          	ld	a4,152(a5) # 210098 <wayPriorityTablePtr>
  206204:	fe842783          	lw	a5,-24(s0)
  206208:	8bbd                	andi	a5,a5,15
  20620a:	0ff7f693          	andi	a3,a5,255
  20620e:	fec46783          	lwu	a5,-20(s0)
  206212:	078e                	slli	a5,a5,0x3
  206214:	97ba                	add	a5,a5,a4
  206216:	8736                	mv	a4,a3
  206218:	8b3d                	andi	a4,a4,15
  20621a:	0047171b          	slliw	a4,a4,0x4
  20621e:	4394                	lw	a3,0(a5)
  206220:	f0f6f693          	andi	a3,a3,-241
  206224:	8f55                	or	a4,a4,a3
  206226:	c398                	sw	a4,0(a5)
  206228:	a871                	j	2062c4 <PutToNandIdleList+0x1bc>
  20622a:	002107b7          	lui	a5,0x210
  20622e:	0b07b703          	ld	a4,176(a5) # 2100b0 <dieStateTablePtr>
  206232:	fe846783          	lwu	a5,-24(s0)
  206236:	fec46683          	lwu	a3,-20(s0)
  20623a:	068e                	slli	a3,a3,0x3
  20623c:	97b6                	add	a5,a5,a3
  20623e:	078a                	slli	a5,a5,0x2
  206240:	97ba                	add	a5,a5,a4
  206242:	4394                	lw	a3,0(a5)
  206244:	673d                	lui	a4,0xf
  206246:	8f55                	or	a4,a4,a3
  206248:	c398                	sw	a4,0(a5)
  20624a:	002107b7          	lui	a5,0x210
  20624e:	0b07b703          	ld	a4,176(a5) # 2100b0 <dieStateTablePtr>
  206252:	fe846783          	lwu	a5,-24(s0)
  206256:	fec46683          	lwu	a3,-20(s0)
  20625a:	068e                	slli	a3,a3,0x3
  20625c:	97b6                	add	a5,a5,a3
  20625e:	078a                	slli	a5,a5,0x2
  206260:	97ba                	add	a5,a5,a4
  206262:	4394                	lw	a3,0(a5)
  206264:	000f0737          	lui	a4,0xf0
  206268:	8f55                	or	a4,a4,a3
  20626a:	c398                	sw	a4,0(a5)
  20626c:	002107b7          	lui	a5,0x210
  206270:	0987b703          	ld	a4,152(a5) # 210098 <wayPriorityTablePtr>
  206274:	fe842783          	lw	a5,-24(s0)
  206278:	8bbd                	andi	a5,a5,15
  20627a:	0ff7f693          	andi	a3,a5,255
  20627e:	fec46783          	lwu	a5,-20(s0)
  206282:	078e                	slli	a5,a5,0x3
  206284:	97ba                	add	a5,a5,a4
  206286:	8736                	mv	a4,a3
  206288:	00f77613          	andi	a2,a4,15
  20628c:	4398                	lw	a4,0(a5)
  20628e:	9b41                	andi	a4,a4,-16
  206290:	86ba                	mv	a3,a4
  206292:	8732                	mv	a4,a2
  206294:	8f55                	or	a4,a4,a3
  206296:	c398                	sw	a4,0(a5)
  206298:	002107b7          	lui	a5,0x210
  20629c:	0987b703          	ld	a4,152(a5) # 210098 <wayPriorityTablePtr>
  2062a0:	fe842783          	lw	a5,-24(s0)
  2062a4:	8bbd                	andi	a5,a5,15
  2062a6:	0ff7f693          	andi	a3,a5,255
  2062aa:	fec46783          	lwu	a5,-20(s0)
  2062ae:	078e                	slli	a5,a5,0x3
  2062b0:	97ba                	add	a5,a5,a4
  2062b2:	8736                	mv	a4,a3
  2062b4:	8b3d                	andi	a4,a4,15
  2062b6:	0047171b          	slliw	a4,a4,0x4
  2062ba:	4394                	lw	a3,0(a5)
  2062bc:	f0f6f693          	andi	a3,a3,-241
  2062c0:	8f55                	or	a4,a4,a3
  2062c2:	c398                	sw	a4,0(a5)
  2062c4:	0001                	nop
  2062c6:	6462                	ld	s0,24(sp)
  2062c8:	6105                	addi	sp,sp,32
  2062ca:	8082                	ret

00000000002062cc <SelectivGetFromNandIdleList>:
  2062cc:	1101                	addi	sp,sp,-32
  2062ce:	ec22                	sd	s0,24(sp)
  2062d0:	1000                	addi	s0,sp,32
  2062d2:	87aa                	mv	a5,a0
  2062d4:	872e                	mv	a4,a1
  2062d6:	fef42623          	sw	a5,-20(s0)
  2062da:	87ba                	mv	a5,a4
  2062dc:	fef42423          	sw	a5,-24(s0)
  2062e0:	002107b7          	lui	a5,0x210
  2062e4:	0b07b703          	ld	a4,176(a5) # 2100b0 <dieStateTablePtr>
  2062e8:	fe846783          	lwu	a5,-24(s0)
  2062ec:	fec46683          	lwu	a3,-20(s0)
  2062f0:	068e                	slli	a3,a3,0x3
  2062f2:	97b6                	add	a5,a5,a3
  2062f4:	078a                	slli	a5,a5,0x2
  2062f6:	97ba                	add	a5,a5,a4
  2062f8:	439c                	lw	a5,0(a5)
  2062fa:	0107d79b          	srliw	a5,a5,0x10
  2062fe:	8bbd                	andi	a5,a5,15
  206300:	0ff7f793          	andi	a5,a5,255
  206304:	873e                	mv	a4,a5
  206306:	47bd                	li	a5,15
  206308:	10f70c63          	beq	a4,a5,206420 <SelectivGetFromNandIdleList+0x154>
  20630c:	002107b7          	lui	a5,0x210
  206310:	0b07b703          	ld	a4,176(a5) # 2100b0 <dieStateTablePtr>
  206314:	fe846783          	lwu	a5,-24(s0)
  206318:	fec46683          	lwu	a3,-20(s0)
  20631c:	068e                	slli	a3,a3,0x3
  20631e:	97b6                	add	a5,a5,a3
  206320:	078a                	slli	a5,a5,0x2
  206322:	97ba                	add	a5,a5,a4
  206324:	439c                	lw	a5,0(a5)
  206326:	00c7d79b          	srliw	a5,a5,0xc
  20632a:	8bbd                	andi	a5,a5,15
  20632c:	0ff7f793          	andi	a5,a5,255
  206330:	873e                	mv	a4,a5
  206332:	47bd                	li	a5,15
  206334:	0ef70663          	beq	a4,a5,206420 <SelectivGetFromNandIdleList+0x154>
  206338:	002107b7          	lui	a5,0x210
  20633c:	0b07b603          	ld	a2,176(a5) # 2100b0 <dieStateTablePtr>
  206340:	002107b7          	lui	a5,0x210
  206344:	0b07b703          	ld	a4,176(a5) # 2100b0 <dieStateTablePtr>
  206348:	002107b7          	lui	a5,0x210
  20634c:	0b07b683          	ld	a3,176(a5) # 2100b0 <dieStateTablePtr>
  206350:	fe846783          	lwu	a5,-24(s0)
  206354:	fec46583          	lwu	a1,-20(s0)
  206358:	058e                	slli	a1,a1,0x3
  20635a:	97ae                	add	a5,a5,a1
  20635c:	078a                	slli	a5,a5,0x2
  20635e:	97b6                	add	a5,a5,a3
  206360:	439c                	lw	a5,0(a5)
  206362:	00c7d79b          	srliw	a5,a5,0xc
  206366:	8bbd                	andi	a5,a5,15
  206368:	0ff7f793          	andi	a5,a5,255
  20636c:	2781                	sext.w	a5,a5
  20636e:	fe846683          	lwu	a3,-24(s0)
  206372:	fec46583          	lwu	a1,-20(s0)
  206376:	058e                	slli	a1,a1,0x3
  206378:	96ae                	add	a3,a3,a1
  20637a:	068a                	slli	a3,a3,0x2
  20637c:	96b2                	add	a3,a3,a2
  20637e:	4294                	lw	a3,0(a3)
  206380:	0106d69b          	srliw	a3,a3,0x10
  206384:	8abd                	andi	a3,a3,15
  206386:	0ff6f613          	andi	a2,a3,255
  20638a:	fec46683          	lwu	a3,-20(s0)
  20638e:	068e                	slli	a3,a3,0x3
  206390:	97b6                	add	a5,a5,a3
  206392:	078a                	slli	a5,a5,0x2
  206394:	97ba                	add	a5,a5,a4
  206396:	8732                	mv	a4,a2
  206398:	8b3d                	andi	a4,a4,15
  20639a:	0107171b          	slliw	a4,a4,0x10
  20639e:	4390                	lw	a2,0(a5)
  2063a0:	fff106b7          	lui	a3,0xfff10
  2063a4:	16fd                	addi	a3,a3,-1
  2063a6:	8ef1                	and	a3,a3,a2
  2063a8:	8f55                	or	a4,a4,a3
  2063aa:	c398                	sw	a4,0(a5)
  2063ac:	002107b7          	lui	a5,0x210
  2063b0:	0b07b603          	ld	a2,176(a5) # 2100b0 <dieStateTablePtr>
  2063b4:	002107b7          	lui	a5,0x210
  2063b8:	0b07b703          	ld	a4,176(a5) # 2100b0 <dieStateTablePtr>
  2063bc:	002107b7          	lui	a5,0x210
  2063c0:	0b07b683          	ld	a3,176(a5) # 2100b0 <dieStateTablePtr>
  2063c4:	fe846783          	lwu	a5,-24(s0)
  2063c8:	fec46583          	lwu	a1,-20(s0)
  2063cc:	058e                	slli	a1,a1,0x3
  2063ce:	97ae                	add	a5,a5,a1
  2063d0:	078a                	slli	a5,a5,0x2
  2063d2:	97b6                	add	a5,a5,a3
  2063d4:	439c                	lw	a5,0(a5)
  2063d6:	0107d79b          	srliw	a5,a5,0x10
  2063da:	8bbd                	andi	a5,a5,15
  2063dc:	0ff7f793          	andi	a5,a5,255
  2063e0:	2781                	sext.w	a5,a5
  2063e2:	fe846683          	lwu	a3,-24(s0)
  2063e6:	fec46583          	lwu	a1,-20(s0)
  2063ea:	058e                	slli	a1,a1,0x3
  2063ec:	96ae                	add	a3,a3,a1
  2063ee:	068a                	slli	a3,a3,0x2
  2063f0:	96b2                	add	a3,a3,a2
  2063f2:	4294                	lw	a3,0(a3)
  2063f4:	00c6d69b          	srliw	a3,a3,0xc
  2063f8:	8abd                	andi	a3,a3,15
  2063fa:	0ff6f613          	andi	a2,a3,255
  2063fe:	fec46683          	lwu	a3,-20(s0)
  206402:	068e                	slli	a3,a3,0x3
  206404:	97b6                	add	a5,a5,a3
  206406:	078a                	slli	a5,a5,0x2
  206408:	97ba                	add	a5,a5,a4
  20640a:	8732                	mv	a4,a2
  20640c:	8b3d                	andi	a4,a4,15
  20640e:	00c7171b          	slliw	a4,a4,0xc
  206412:	4390                	lw	a2,0(a5)
  206414:	76c5                	lui	a3,0xffff1
  206416:	16fd                	addi	a3,a3,-1
  206418:	8ef1                	and	a3,a3,a2
  20641a:	8f55                	or	a4,a4,a3
  20641c:	c398                	sw	a4,0(a5)
  20641e:	aaed                	j	206618 <SelectivGetFromNandIdleList+0x34c>
  206420:	002107b7          	lui	a5,0x210
  206424:	0b07b703          	ld	a4,176(a5) # 2100b0 <dieStateTablePtr>
  206428:	fe846783          	lwu	a5,-24(s0)
  20642c:	fec46683          	lwu	a3,-20(s0)
  206430:	068e                	slli	a3,a3,0x3
  206432:	97b6                	add	a5,a5,a3
  206434:	078a                	slli	a5,a5,0x2
  206436:	97ba                	add	a5,a5,a4
  206438:	439c                	lw	a5,0(a5)
  20643a:	0107d79b          	srliw	a5,a5,0x10
  20643e:	8bbd                	andi	a5,a5,15
  206440:	0ff7f793          	andi	a5,a5,255
  206444:	873e                	mv	a4,a5
  206446:	47bd                	li	a5,15
  206448:	0af71e63          	bne	a4,a5,206504 <SelectivGetFromNandIdleList+0x238>
  20644c:	002107b7          	lui	a5,0x210
  206450:	0b07b703          	ld	a4,176(a5) # 2100b0 <dieStateTablePtr>
  206454:	fe846783          	lwu	a5,-24(s0)
  206458:	fec46683          	lwu	a3,-20(s0)
  20645c:	068e                	slli	a3,a3,0x3
  20645e:	97b6                	add	a5,a5,a3
  206460:	078a                	slli	a5,a5,0x2
  206462:	97ba                	add	a5,a5,a4
  206464:	439c                	lw	a5,0(a5)
  206466:	00c7d79b          	srliw	a5,a5,0xc
  20646a:	8bbd                	andi	a5,a5,15
  20646c:	0ff7f793          	andi	a5,a5,255
  206470:	873e                	mv	a4,a5
  206472:	47bd                	li	a5,15
  206474:	08f70863          	beq	a4,a5,206504 <SelectivGetFromNandIdleList+0x238>
  206478:	002107b7          	lui	a5,0x210
  20647c:	0b07b703          	ld	a4,176(a5) # 2100b0 <dieStateTablePtr>
  206480:	002107b7          	lui	a5,0x210
  206484:	0b07b683          	ld	a3,176(a5) # 2100b0 <dieStateTablePtr>
  206488:	fe846783          	lwu	a5,-24(s0)
  20648c:	fec46603          	lwu	a2,-20(s0)
  206490:	060e                	slli	a2,a2,0x3
  206492:	97b2                	add	a5,a5,a2
  206494:	078a                	slli	a5,a5,0x2
  206496:	97b6                	add	a5,a5,a3
  206498:	439c                	lw	a5,0(a5)
  20649a:	00c7d79b          	srliw	a5,a5,0xc
  20649e:	8bbd                	andi	a5,a5,15
  2064a0:	0ff7f793          	andi	a5,a5,255
  2064a4:	2781                	sext.w	a5,a5
  2064a6:	fec46683          	lwu	a3,-20(s0)
  2064aa:	068e                	slli	a3,a3,0x3
  2064ac:	97b6                	add	a5,a5,a3
  2064ae:	078a                	slli	a5,a5,0x2
  2064b0:	97ba                	add	a5,a5,a4
  2064b2:	4394                	lw	a3,0(a5)
  2064b4:	000f0737          	lui	a4,0xf0
  2064b8:	8f55                	or	a4,a4,a3
  2064ba:	c398                	sw	a4,0(a5)
  2064bc:	002107b7          	lui	a5,0x210
  2064c0:	0b07b683          	ld	a3,176(a5) # 2100b0 <dieStateTablePtr>
  2064c4:	002107b7          	lui	a5,0x210
  2064c8:	0987b703          	ld	a4,152(a5) # 210098 <wayPriorityTablePtr>
  2064cc:	fe846783          	lwu	a5,-24(s0)
  2064d0:	fec46603          	lwu	a2,-20(s0)
  2064d4:	060e                	slli	a2,a2,0x3
  2064d6:	97b2                	add	a5,a5,a2
  2064d8:	078a                	slli	a5,a5,0x2
  2064da:	97b6                	add	a5,a5,a3
  2064dc:	439c                	lw	a5,0(a5)
  2064de:	00c7d79b          	srliw	a5,a5,0xc
  2064e2:	8bbd                	andi	a5,a5,15
  2064e4:	0ff7f693          	andi	a3,a5,255
  2064e8:	fec46783          	lwu	a5,-20(s0)
  2064ec:	078e                	slli	a5,a5,0x3
  2064ee:	97ba                	add	a5,a5,a4
  2064f0:	8736                	mv	a4,a3
  2064f2:	8b3d                	andi	a4,a4,15
  2064f4:	0047171b          	slliw	a4,a4,0x4
  2064f8:	4394                	lw	a3,0(a5)
  2064fa:	f0f6f693          	andi	a3,a3,-241
  2064fe:	8f55                	or	a4,a4,a3
  206500:	c398                	sw	a4,0(a5)
  206502:	aa19                	j	206618 <SelectivGetFromNandIdleList+0x34c>
  206504:	002107b7          	lui	a5,0x210
  206508:	0b07b703          	ld	a4,176(a5) # 2100b0 <dieStateTablePtr>
  20650c:	fe846783          	lwu	a5,-24(s0)
  206510:	fec46683          	lwu	a3,-20(s0)
  206514:	068e                	slli	a3,a3,0x3
  206516:	97b6                	add	a5,a5,a3
  206518:	078a                	slli	a5,a5,0x2
  20651a:	97ba                	add	a5,a5,a4
  20651c:	439c                	lw	a5,0(a5)
  20651e:	0107d79b          	srliw	a5,a5,0x10
  206522:	8bbd                	andi	a5,a5,15
  206524:	0ff7f793          	andi	a5,a5,255
  206528:	873e                	mv	a4,a5
  20652a:	47bd                	li	a5,15
  20652c:	0af70d63          	beq	a4,a5,2065e6 <SelectivGetFromNandIdleList+0x31a>
  206530:	002107b7          	lui	a5,0x210
  206534:	0b07b703          	ld	a4,176(a5) # 2100b0 <dieStateTablePtr>
  206538:	fe846783          	lwu	a5,-24(s0)
  20653c:	fec46683          	lwu	a3,-20(s0)
  206540:	068e                	slli	a3,a3,0x3
  206542:	97b6                	add	a5,a5,a3
  206544:	078a                	slli	a5,a5,0x2
  206546:	97ba                	add	a5,a5,a4
  206548:	439c                	lw	a5,0(a5)
  20654a:	00c7d79b          	srliw	a5,a5,0xc
  20654e:	8bbd                	andi	a5,a5,15
  206550:	0ff7f793          	andi	a5,a5,255
  206554:	873e                	mv	a4,a5
  206556:	47bd                	li	a5,15
  206558:	08f71763          	bne	a4,a5,2065e6 <SelectivGetFromNandIdleList+0x31a>
  20655c:	002107b7          	lui	a5,0x210
  206560:	0b07b703          	ld	a4,176(a5) # 2100b0 <dieStateTablePtr>
  206564:	002107b7          	lui	a5,0x210
  206568:	0b07b683          	ld	a3,176(a5) # 2100b0 <dieStateTablePtr>
  20656c:	fe846783          	lwu	a5,-24(s0)
  206570:	fec46603          	lwu	a2,-20(s0)
  206574:	060e                	slli	a2,a2,0x3
  206576:	97b2                	add	a5,a5,a2
  206578:	078a                	slli	a5,a5,0x2
  20657a:	97b6                	add	a5,a5,a3
  20657c:	439c                	lw	a5,0(a5)
  20657e:	0107d79b          	srliw	a5,a5,0x10
  206582:	8bbd                	andi	a5,a5,15
  206584:	0ff7f793          	andi	a5,a5,255
  206588:	2781                	sext.w	a5,a5
  20658a:	fec46683          	lwu	a3,-20(s0)
  20658e:	068e                	slli	a3,a3,0x3
  206590:	97b6                	add	a5,a5,a3
  206592:	078a                	slli	a5,a5,0x2
  206594:	97ba                	add	a5,a5,a4
  206596:	4394                	lw	a3,0(a5)
  206598:	673d                	lui	a4,0xf
  20659a:	8f55                	or	a4,a4,a3
  20659c:	c398                	sw	a4,0(a5)
  20659e:	002107b7          	lui	a5,0x210
  2065a2:	0b07b683          	ld	a3,176(a5) # 2100b0 <dieStateTablePtr>
  2065a6:	002107b7          	lui	a5,0x210
  2065aa:	0987b703          	ld	a4,152(a5) # 210098 <wayPriorityTablePtr>
  2065ae:	fe846783          	lwu	a5,-24(s0)
  2065b2:	fec46603          	lwu	a2,-20(s0)
  2065b6:	060e                	slli	a2,a2,0x3
  2065b8:	97b2                	add	a5,a5,a2
  2065ba:	078a                	slli	a5,a5,0x2
  2065bc:	97b6                	add	a5,a5,a3
  2065be:	439c                	lw	a5,0(a5)
  2065c0:	0107d79b          	srliw	a5,a5,0x10
  2065c4:	8bbd                	andi	a5,a5,15
  2065c6:	0ff7f693          	andi	a3,a5,255
  2065ca:	fec46783          	lwu	a5,-20(s0)
  2065ce:	078e                	slli	a5,a5,0x3
  2065d0:	97ba                	add	a5,a5,a4
  2065d2:	8736                	mv	a4,a3
  2065d4:	00f77613          	andi	a2,a4,15
  2065d8:	4398                	lw	a4,0(a5)
  2065da:	9b41                	andi	a4,a4,-16
  2065dc:	86ba                	mv	a3,a4
  2065de:	8732                	mv	a4,a2
  2065e0:	8f55                	or	a4,a4,a3
  2065e2:	c398                	sw	a4,0(a5)
  2065e4:	a815                	j	206618 <SelectivGetFromNandIdleList+0x34c>
  2065e6:	002107b7          	lui	a5,0x210
  2065ea:	0987b703          	ld	a4,152(a5) # 210098 <wayPriorityTablePtr>
  2065ee:	fec46783          	lwu	a5,-20(s0)
  2065f2:	078e                	slli	a5,a5,0x3
  2065f4:	97ba                	add	a5,a5,a4
  2065f6:	4398                	lw	a4,0(a5)
  2065f8:	00f76713          	ori	a4,a4,15
  2065fc:	c398                	sw	a4,0(a5)
  2065fe:	002107b7          	lui	a5,0x210
  206602:	0987b703          	ld	a4,152(a5) # 210098 <wayPriorityTablePtr>
  206606:	fec46783          	lwu	a5,-20(s0)
  20660a:	078e                	slli	a5,a5,0x3
  20660c:	97ba                	add	a5,a5,a4
  20660e:	4398                	lw	a4,0(a5)
  206610:	0f076713          	ori	a4,a4,240
  206614:	c398                	sw	a4,0(a5)
  206616:	0001                	nop
  206618:	0001                	nop
  20661a:	6462                	ld	s0,24(sp)
  20661c:	6105                	addi	sp,sp,32
  20661e:	8082                	ret

0000000000206620 <PutToNandStatusReportList>:
  206620:	1101                	addi	sp,sp,-32
  206622:	ec22                	sd	s0,24(sp)
  206624:	1000                	addi	s0,sp,32
  206626:	87aa                	mv	a5,a0
  206628:	872e                	mv	a4,a1
  20662a:	fef42623          	sw	a5,-20(s0)
  20662e:	87ba                	mv	a5,a4
  206630:	fef42423          	sw	a5,-24(s0)
  206634:	002107b7          	lui	a5,0x210
  206638:	0987b703          	ld	a4,152(a5) # 210098 <wayPriorityTablePtr>
  20663c:	fec46783          	lwu	a5,-20(s0)
  206640:	078e                	slli	a5,a5,0x3
  206642:	97ba                	add	a5,a5,a4
  206644:	439c                	lw	a5,0(a5)
  206646:	00c7d79b          	srliw	a5,a5,0xc
  20664a:	8bbd                	andi	a5,a5,15
  20664c:	0ff7f793          	andi	a5,a5,255
  206650:	873e                	mv	a4,a5
  206652:	47bd                	li	a5,15
  206654:	0ef70863          	beq	a4,a5,206744 <PutToNandStatusReportList+0x124>
  206658:	002107b7          	lui	a5,0x210
  20665c:	0987b683          	ld	a3,152(a5) # 210098 <wayPriorityTablePtr>
  206660:	002107b7          	lui	a5,0x210
  206664:	0b07b703          	ld	a4,176(a5) # 2100b0 <dieStateTablePtr>
  206668:	fec46783          	lwu	a5,-20(s0)
  20666c:	078e                	slli	a5,a5,0x3
  20666e:	97b6                	add	a5,a5,a3
  206670:	439c                	lw	a5,0(a5)
  206672:	00c7d79b          	srliw	a5,a5,0xc
  206676:	8bbd                	andi	a5,a5,15
  206678:	0ff7f613          	andi	a2,a5,255
  20667c:	fe846783          	lwu	a5,-24(s0)
  206680:	fec46683          	lwu	a3,-20(s0)
  206684:	068e                	slli	a3,a3,0x3
  206686:	97b6                	add	a5,a5,a3
  206688:	078a                	slli	a5,a5,0x2
  20668a:	97ba                	add	a5,a5,a4
  20668c:	8732                	mv	a4,a2
  20668e:	8b3d                	andi	a4,a4,15
  206690:	00c7171b          	slliw	a4,a4,0xc
  206694:	4390                	lw	a2,0(a5)
  206696:	76c5                	lui	a3,0xffff1
  206698:	16fd                	addi	a3,a3,-1
  20669a:	8ef1                	and	a3,a3,a2
  20669c:	8f55                	or	a4,a4,a3
  20669e:	c398                	sw	a4,0(a5)
  2066a0:	002107b7          	lui	a5,0x210
  2066a4:	0b07b703          	ld	a4,176(a5) # 2100b0 <dieStateTablePtr>
  2066a8:	fe846783          	lwu	a5,-24(s0)
  2066ac:	fec46683          	lwu	a3,-20(s0)
  2066b0:	068e                	slli	a3,a3,0x3
  2066b2:	97b6                	add	a5,a5,a3
  2066b4:	078a                	slli	a5,a5,0x2
  2066b6:	97ba                	add	a5,a5,a4
  2066b8:	4394                	lw	a3,0(a5)
  2066ba:	000f0737          	lui	a4,0xf0
  2066be:	8f55                	or	a4,a4,a3
  2066c0:	c398                	sw	a4,0(a5)
  2066c2:	002107b7          	lui	a5,0x210
  2066c6:	0b07b703          	ld	a4,176(a5) # 2100b0 <dieStateTablePtr>
  2066ca:	002107b7          	lui	a5,0x210
  2066ce:	0987b683          	ld	a3,152(a5) # 210098 <wayPriorityTablePtr>
  2066d2:	fec46783          	lwu	a5,-20(s0)
  2066d6:	078e                	slli	a5,a5,0x3
  2066d8:	97b6                	add	a5,a5,a3
  2066da:	439c                	lw	a5,0(a5)
  2066dc:	00c7d79b          	srliw	a5,a5,0xc
  2066e0:	8bbd                	andi	a5,a5,15
  2066e2:	0ff7f793          	andi	a5,a5,255
  2066e6:	2781                	sext.w	a5,a5
  2066e8:	fe842683          	lw	a3,-24(s0)
  2066ec:	8abd                	andi	a3,a3,15
  2066ee:	0ff6f613          	andi	a2,a3,255
  2066f2:	fec46683          	lwu	a3,-20(s0)
  2066f6:	068e                	slli	a3,a3,0x3
  2066f8:	97b6                	add	a5,a5,a3
  2066fa:	078a                	slli	a5,a5,0x2
  2066fc:	97ba                	add	a5,a5,a4
  2066fe:	8732                	mv	a4,a2
  206700:	8b3d                	andi	a4,a4,15
  206702:	0107171b          	slliw	a4,a4,0x10
  206706:	4390                	lw	a2,0(a5)
  206708:	fff106b7          	lui	a3,0xfff10
  20670c:	16fd                	addi	a3,a3,-1
  20670e:	8ef1                	and	a3,a3,a2
  206710:	8f55                	or	a4,a4,a3
  206712:	c398                	sw	a4,0(a5)
  206714:	002107b7          	lui	a5,0x210
  206718:	0987b703          	ld	a4,152(a5) # 210098 <wayPriorityTablePtr>
  20671c:	fe842783          	lw	a5,-24(s0)
  206720:	8bbd                	andi	a5,a5,15
  206722:	0ff7f693          	andi	a3,a5,255
  206726:	fec46783          	lwu	a5,-20(s0)
  20672a:	078e                	slli	a5,a5,0x3
  20672c:	97ba                	add	a5,a5,a4
  20672e:	8736                	mv	a4,a3
  206730:	8b3d                	andi	a4,a4,15
  206732:	00c7171b          	slliw	a4,a4,0xc
  206736:	4390                	lw	a2,0(a5)
  206738:	76c5                	lui	a3,0xffff1
  20673a:	16fd                	addi	a3,a3,-1
  20673c:	8ef1                	and	a3,a3,a2
  20673e:	8f55                	or	a4,a4,a3
  206740:	c398                	sw	a4,0(a5)
  206742:	a04d                	j	2067e4 <PutToNandStatusReportList+0x1c4>
  206744:	002107b7          	lui	a5,0x210
  206748:	0b07b703          	ld	a4,176(a5) # 2100b0 <dieStateTablePtr>
  20674c:	fe846783          	lwu	a5,-24(s0)
  206750:	fec46683          	lwu	a3,-20(s0)
  206754:	068e                	slli	a3,a3,0x3
  206756:	97b6                	add	a5,a5,a3
  206758:	078a                	slli	a5,a5,0x2
  20675a:	97ba                	add	a5,a5,a4
  20675c:	4394                	lw	a3,0(a5)
  20675e:	673d                	lui	a4,0xf
  206760:	8f55                	or	a4,a4,a3
  206762:	c398                	sw	a4,0(a5)
  206764:	002107b7          	lui	a5,0x210
  206768:	0b07b703          	ld	a4,176(a5) # 2100b0 <dieStateTablePtr>
  20676c:	fe846783          	lwu	a5,-24(s0)
  206770:	fec46683          	lwu	a3,-20(s0)
  206774:	068e                	slli	a3,a3,0x3
  206776:	97b6                	add	a5,a5,a3
  206778:	078a                	slli	a5,a5,0x2
  20677a:	97ba                	add	a5,a5,a4
  20677c:	4394                	lw	a3,0(a5)
  20677e:	000f0737          	lui	a4,0xf0
  206782:	8f55                	or	a4,a4,a3
  206784:	c398                	sw	a4,0(a5)
  206786:	002107b7          	lui	a5,0x210
  20678a:	0987b703          	ld	a4,152(a5) # 210098 <wayPriorityTablePtr>
  20678e:	fe842783          	lw	a5,-24(s0)
  206792:	8bbd                	andi	a5,a5,15
  206794:	0ff7f693          	andi	a3,a5,255
  206798:	fec46783          	lwu	a5,-20(s0)
  20679c:	078e                	slli	a5,a5,0x3
  20679e:	97ba                	add	a5,a5,a4
  2067a0:	8736                	mv	a4,a3
  2067a2:	8b3d                	andi	a4,a4,15
  2067a4:	0087171b          	slliw	a4,a4,0x8
  2067a8:	4390                	lw	a2,0(a5)
  2067aa:	76fd                	lui	a3,0xfffff
  2067ac:	0ff68693          	addi	a3,a3,255 # fffffffffffff0ff <g_nvmeTask+0xffffffffffdeefb7>
  2067b0:	8ef1                	and	a3,a3,a2
  2067b2:	8f55                	or	a4,a4,a3
  2067b4:	c398                	sw	a4,0(a5)
  2067b6:	002107b7          	lui	a5,0x210
  2067ba:	0987b703          	ld	a4,152(a5) # 210098 <wayPriorityTablePtr>
  2067be:	fe842783          	lw	a5,-24(s0)
  2067c2:	8bbd                	andi	a5,a5,15
  2067c4:	0ff7f693          	andi	a3,a5,255
  2067c8:	fec46783          	lwu	a5,-20(s0)
  2067cc:	078e                	slli	a5,a5,0x3
  2067ce:	97ba                	add	a5,a5,a4
  2067d0:	8736                	mv	a4,a3
  2067d2:	8b3d                	andi	a4,a4,15
  2067d4:	00c7171b          	slliw	a4,a4,0xc
  2067d8:	4390                	lw	a2,0(a5)
  2067da:	76c5                	lui	a3,0xffff1
  2067dc:	16fd                	addi	a3,a3,-1
  2067de:	8ef1                	and	a3,a3,a2
  2067e0:	8f55                	or	a4,a4,a3
  2067e2:	c398                	sw	a4,0(a5)
  2067e4:	0001                	nop
  2067e6:	6462                	ld	s0,24(sp)
  2067e8:	6105                	addi	sp,sp,32
  2067ea:	8082                	ret

00000000002067ec <SelectivGetFromNandStatusReportList>:
  2067ec:	1101                	addi	sp,sp,-32
  2067ee:	ec22                	sd	s0,24(sp)
  2067f0:	1000                	addi	s0,sp,32
  2067f2:	87aa                	mv	a5,a0
  2067f4:	872e                	mv	a4,a1
  2067f6:	fef42623          	sw	a5,-20(s0)
  2067fa:	87ba                	mv	a5,a4
  2067fc:	fef42423          	sw	a5,-24(s0)
  206800:	002107b7          	lui	a5,0x210
  206804:	0b07b703          	ld	a4,176(a5) # 2100b0 <dieStateTablePtr>
  206808:	fe846783          	lwu	a5,-24(s0)
  20680c:	fec46683          	lwu	a3,-20(s0)
  206810:	068e                	slli	a3,a3,0x3
  206812:	97b6                	add	a5,a5,a3
  206814:	078a                	slli	a5,a5,0x2
  206816:	97ba                	add	a5,a5,a4
  206818:	439c                	lw	a5,0(a5)
  20681a:	0107d79b          	srliw	a5,a5,0x10
  20681e:	8bbd                	andi	a5,a5,15
  206820:	0ff7f793          	andi	a5,a5,255
  206824:	873e                	mv	a4,a5
  206826:	47bd                	li	a5,15
  206828:	10f70c63          	beq	a4,a5,206940 <SelectivGetFromNandStatusReportList+0x154>
  20682c:	002107b7          	lui	a5,0x210
  206830:	0b07b703          	ld	a4,176(a5) # 2100b0 <dieStateTablePtr>
  206834:	fe846783          	lwu	a5,-24(s0)
  206838:	fec46683          	lwu	a3,-20(s0)
  20683c:	068e                	slli	a3,a3,0x3
  20683e:	97b6                	add	a5,a5,a3
  206840:	078a                	slli	a5,a5,0x2
  206842:	97ba                	add	a5,a5,a4
  206844:	439c                	lw	a5,0(a5)
  206846:	00c7d79b          	srliw	a5,a5,0xc
  20684a:	8bbd                	andi	a5,a5,15
  20684c:	0ff7f793          	andi	a5,a5,255
  206850:	873e                	mv	a4,a5
  206852:	47bd                	li	a5,15
  206854:	0ef70663          	beq	a4,a5,206940 <SelectivGetFromNandStatusReportList+0x154>
  206858:	002107b7          	lui	a5,0x210
  20685c:	0b07b603          	ld	a2,176(a5) # 2100b0 <dieStateTablePtr>
  206860:	002107b7          	lui	a5,0x210
  206864:	0b07b703          	ld	a4,176(a5) # 2100b0 <dieStateTablePtr>
  206868:	002107b7          	lui	a5,0x210
  20686c:	0b07b683          	ld	a3,176(a5) # 2100b0 <dieStateTablePtr>
  206870:	fe846783          	lwu	a5,-24(s0)
  206874:	fec46583          	lwu	a1,-20(s0)
  206878:	058e                	slli	a1,a1,0x3
  20687a:	97ae                	add	a5,a5,a1
  20687c:	078a                	slli	a5,a5,0x2
  20687e:	97b6                	add	a5,a5,a3
  206880:	439c                	lw	a5,0(a5)
  206882:	00c7d79b          	srliw	a5,a5,0xc
  206886:	8bbd                	andi	a5,a5,15
  206888:	0ff7f793          	andi	a5,a5,255
  20688c:	2781                	sext.w	a5,a5
  20688e:	fe846683          	lwu	a3,-24(s0)
  206892:	fec46583          	lwu	a1,-20(s0)
  206896:	058e                	slli	a1,a1,0x3
  206898:	96ae                	add	a3,a3,a1
  20689a:	068a                	slli	a3,a3,0x2
  20689c:	96b2                	add	a3,a3,a2
  20689e:	4294                	lw	a3,0(a3)
  2068a0:	0106d69b          	srliw	a3,a3,0x10
  2068a4:	8abd                	andi	a3,a3,15
  2068a6:	0ff6f613          	andi	a2,a3,255
  2068aa:	fec46683          	lwu	a3,-20(s0)
  2068ae:	068e                	slli	a3,a3,0x3
  2068b0:	97b6                	add	a5,a5,a3
  2068b2:	078a                	slli	a5,a5,0x2
  2068b4:	97ba                	add	a5,a5,a4
  2068b6:	8732                	mv	a4,a2
  2068b8:	8b3d                	andi	a4,a4,15
  2068ba:	0107171b          	slliw	a4,a4,0x10
  2068be:	4390                	lw	a2,0(a5)
  2068c0:	fff106b7          	lui	a3,0xfff10
  2068c4:	16fd                	addi	a3,a3,-1
  2068c6:	8ef1                	and	a3,a3,a2
  2068c8:	8f55                	or	a4,a4,a3
  2068ca:	c398                	sw	a4,0(a5)
  2068cc:	002107b7          	lui	a5,0x210
  2068d0:	0b07b603          	ld	a2,176(a5) # 2100b0 <dieStateTablePtr>
  2068d4:	002107b7          	lui	a5,0x210
  2068d8:	0b07b703          	ld	a4,176(a5) # 2100b0 <dieStateTablePtr>
  2068dc:	002107b7          	lui	a5,0x210
  2068e0:	0b07b683          	ld	a3,176(a5) # 2100b0 <dieStateTablePtr>
  2068e4:	fe846783          	lwu	a5,-24(s0)
  2068e8:	fec46583          	lwu	a1,-20(s0)
  2068ec:	058e                	slli	a1,a1,0x3
  2068ee:	97ae                	add	a5,a5,a1
  2068f0:	078a                	slli	a5,a5,0x2
  2068f2:	97b6                	add	a5,a5,a3
  2068f4:	439c                	lw	a5,0(a5)
  2068f6:	0107d79b          	srliw	a5,a5,0x10
  2068fa:	8bbd                	andi	a5,a5,15
  2068fc:	0ff7f793          	andi	a5,a5,255
  206900:	2781                	sext.w	a5,a5
  206902:	fe846683          	lwu	a3,-24(s0)
  206906:	fec46583          	lwu	a1,-20(s0)
  20690a:	058e                	slli	a1,a1,0x3
  20690c:	96ae                	add	a3,a3,a1
  20690e:	068a                	slli	a3,a3,0x2
  206910:	96b2                	add	a3,a3,a2
  206912:	4294                	lw	a3,0(a3)
  206914:	00c6d69b          	srliw	a3,a3,0xc
  206918:	8abd                	andi	a3,a3,15
  20691a:	0ff6f613          	andi	a2,a3,255
  20691e:	fec46683          	lwu	a3,-20(s0)
  206922:	068e                	slli	a3,a3,0x3
  206924:	97b6                	add	a5,a5,a3
  206926:	078a                	slli	a5,a5,0x2
  206928:	97ba                	add	a5,a5,a4
  20692a:	8732                	mv	a4,a2
  20692c:	8b3d                	andi	a4,a4,15
  20692e:	00c7171b          	slliw	a4,a4,0xc
  206932:	4390                	lw	a2,0(a5)
  206934:	76c5                	lui	a3,0xffff1
  206936:	16fd                	addi	a3,a3,-1
  206938:	8ef1                	and	a3,a3,a2
  20693a:	8f55                	or	a4,a4,a3
  20693c:	c398                	sw	a4,0(a5)
  20693e:	a411                	j	206b42 <SelectivGetFromNandStatusReportList+0x356>
  206940:	002107b7          	lui	a5,0x210
  206944:	0b07b703          	ld	a4,176(a5) # 2100b0 <dieStateTablePtr>
  206948:	fe846783          	lwu	a5,-24(s0)
  20694c:	fec46683          	lwu	a3,-20(s0)
  206950:	068e                	slli	a3,a3,0x3
  206952:	97b6                	add	a5,a5,a3
  206954:	078a                	slli	a5,a5,0x2
  206956:	97ba                	add	a5,a5,a4
  206958:	439c                	lw	a5,0(a5)
  20695a:	0107d79b          	srliw	a5,a5,0x10
  20695e:	8bbd                	andi	a5,a5,15
  206960:	0ff7f793          	andi	a5,a5,255
  206964:	873e                	mv	a4,a5
  206966:	47bd                	li	a5,15
  206968:	0af71f63          	bne	a4,a5,206a26 <SelectivGetFromNandStatusReportList+0x23a>
  20696c:	002107b7          	lui	a5,0x210
  206970:	0b07b703          	ld	a4,176(a5) # 2100b0 <dieStateTablePtr>
  206974:	fe846783          	lwu	a5,-24(s0)
  206978:	fec46683          	lwu	a3,-20(s0)
  20697c:	068e                	slli	a3,a3,0x3
  20697e:	97b6                	add	a5,a5,a3
  206980:	078a                	slli	a5,a5,0x2
  206982:	97ba                	add	a5,a5,a4
  206984:	439c                	lw	a5,0(a5)
  206986:	00c7d79b          	srliw	a5,a5,0xc
  20698a:	8bbd                	andi	a5,a5,15
  20698c:	0ff7f793          	andi	a5,a5,255
  206990:	873e                	mv	a4,a5
  206992:	47bd                	li	a5,15
  206994:	08f70963          	beq	a4,a5,206a26 <SelectivGetFromNandStatusReportList+0x23a>
  206998:	002107b7          	lui	a5,0x210
  20699c:	0b07b703          	ld	a4,176(a5) # 2100b0 <dieStateTablePtr>
  2069a0:	002107b7          	lui	a5,0x210
  2069a4:	0b07b683          	ld	a3,176(a5) # 2100b0 <dieStateTablePtr>
  2069a8:	fe846783          	lwu	a5,-24(s0)
  2069ac:	fec46603          	lwu	a2,-20(s0)
  2069b0:	060e                	slli	a2,a2,0x3
  2069b2:	97b2                	add	a5,a5,a2
  2069b4:	078a                	slli	a5,a5,0x2
  2069b6:	97b6                	add	a5,a5,a3
  2069b8:	439c                	lw	a5,0(a5)
  2069ba:	00c7d79b          	srliw	a5,a5,0xc
  2069be:	8bbd                	andi	a5,a5,15
  2069c0:	0ff7f793          	andi	a5,a5,255
  2069c4:	2781                	sext.w	a5,a5
  2069c6:	fec46683          	lwu	a3,-20(s0)
  2069ca:	068e                	slli	a3,a3,0x3
  2069cc:	97b6                	add	a5,a5,a3
  2069ce:	078a                	slli	a5,a5,0x2
  2069d0:	97ba                	add	a5,a5,a4
  2069d2:	4394                	lw	a3,0(a5)
  2069d4:	000f0737          	lui	a4,0xf0
  2069d8:	8f55                	or	a4,a4,a3
  2069da:	c398                	sw	a4,0(a5)
  2069dc:	002107b7          	lui	a5,0x210
  2069e0:	0b07b683          	ld	a3,176(a5) # 2100b0 <dieStateTablePtr>
  2069e4:	002107b7          	lui	a5,0x210
  2069e8:	0987b703          	ld	a4,152(a5) # 210098 <wayPriorityTablePtr>
  2069ec:	fe846783          	lwu	a5,-24(s0)
  2069f0:	fec46603          	lwu	a2,-20(s0)
  2069f4:	060e                	slli	a2,a2,0x3
  2069f6:	97b2                	add	a5,a5,a2
  2069f8:	078a                	slli	a5,a5,0x2
  2069fa:	97b6                	add	a5,a5,a3
  2069fc:	439c                	lw	a5,0(a5)
  2069fe:	00c7d79b          	srliw	a5,a5,0xc
  206a02:	8bbd                	andi	a5,a5,15
  206a04:	0ff7f693          	andi	a3,a5,255
  206a08:	fec46783          	lwu	a5,-20(s0)
  206a0c:	078e                	slli	a5,a5,0x3
  206a0e:	97ba                	add	a5,a5,a4
  206a10:	8736                	mv	a4,a3
  206a12:	8b3d                	andi	a4,a4,15
  206a14:	00c7171b          	slliw	a4,a4,0xc
  206a18:	4390                	lw	a2,0(a5)
  206a1a:	76c5                	lui	a3,0xffff1
  206a1c:	16fd                	addi	a3,a3,-1
  206a1e:	8ef1                	and	a3,a3,a2
  206a20:	8f55                	or	a4,a4,a3
  206a22:	c398                	sw	a4,0(a5)
  206a24:	aa39                	j	206b42 <SelectivGetFromNandStatusReportList+0x356>
  206a26:	002107b7          	lui	a5,0x210
  206a2a:	0b07b703          	ld	a4,176(a5) # 2100b0 <dieStateTablePtr>
  206a2e:	fe846783          	lwu	a5,-24(s0)
  206a32:	fec46683          	lwu	a3,-20(s0)
  206a36:	068e                	slli	a3,a3,0x3
  206a38:	97b6                	add	a5,a5,a3
  206a3a:	078a                	slli	a5,a5,0x2
  206a3c:	97ba                	add	a5,a5,a4
  206a3e:	439c                	lw	a5,0(a5)
  206a40:	0107d79b          	srliw	a5,a5,0x10
  206a44:	8bbd                	andi	a5,a5,15
  206a46:	0ff7f793          	andi	a5,a5,255
  206a4a:	873e                	mv	a4,a5
  206a4c:	47bd                	li	a5,15
  206a4e:	0af70f63          	beq	a4,a5,206b0c <SelectivGetFromNandStatusReportList+0x320>
  206a52:	002107b7          	lui	a5,0x210
  206a56:	0b07b703          	ld	a4,176(a5) # 2100b0 <dieStateTablePtr>
  206a5a:	fe846783          	lwu	a5,-24(s0)
  206a5e:	fec46683          	lwu	a3,-20(s0)
  206a62:	068e                	slli	a3,a3,0x3
  206a64:	97b6                	add	a5,a5,a3
  206a66:	078a                	slli	a5,a5,0x2
  206a68:	97ba                	add	a5,a5,a4
  206a6a:	439c                	lw	a5,0(a5)
  206a6c:	00c7d79b          	srliw	a5,a5,0xc
  206a70:	8bbd                	andi	a5,a5,15
  206a72:	0ff7f793          	andi	a5,a5,255
  206a76:	873e                	mv	a4,a5
  206a78:	47bd                	li	a5,15
  206a7a:	08f71963          	bne	a4,a5,206b0c <SelectivGetFromNandStatusReportList+0x320>
  206a7e:	002107b7          	lui	a5,0x210
  206a82:	0b07b703          	ld	a4,176(a5) # 2100b0 <dieStateTablePtr>
  206a86:	002107b7          	lui	a5,0x210
  206a8a:	0b07b683          	ld	a3,176(a5) # 2100b0 <dieStateTablePtr>
  206a8e:	fe846783          	lwu	a5,-24(s0)
  206a92:	fec46603          	lwu	a2,-20(s0)
  206a96:	060e                	slli	a2,a2,0x3
  206a98:	97b2                	add	a5,a5,a2
  206a9a:	078a                	slli	a5,a5,0x2
  206a9c:	97b6                	add	a5,a5,a3
  206a9e:	439c                	lw	a5,0(a5)
  206aa0:	0107d79b          	srliw	a5,a5,0x10
  206aa4:	8bbd                	andi	a5,a5,15
  206aa6:	0ff7f793          	andi	a5,a5,255
  206aaa:	2781                	sext.w	a5,a5
  206aac:	fec46683          	lwu	a3,-20(s0)
  206ab0:	068e                	slli	a3,a3,0x3
  206ab2:	97b6                	add	a5,a5,a3
  206ab4:	078a                	slli	a5,a5,0x2
  206ab6:	97ba                	add	a5,a5,a4
  206ab8:	4394                	lw	a3,0(a5)
  206aba:	673d                	lui	a4,0xf
  206abc:	8f55                	or	a4,a4,a3
  206abe:	c398                	sw	a4,0(a5)
  206ac0:	002107b7          	lui	a5,0x210
  206ac4:	0b07b683          	ld	a3,176(a5) # 2100b0 <dieStateTablePtr>
  206ac8:	002107b7          	lui	a5,0x210
  206acc:	0987b703          	ld	a4,152(a5) # 210098 <wayPriorityTablePtr>
  206ad0:	fe846783          	lwu	a5,-24(s0)
  206ad4:	fec46603          	lwu	a2,-20(s0)
  206ad8:	060e                	slli	a2,a2,0x3
  206ada:	97b2                	add	a5,a5,a2
  206adc:	078a                	slli	a5,a5,0x2
  206ade:	97b6                	add	a5,a5,a3
  206ae0:	439c                	lw	a5,0(a5)
  206ae2:	0107d79b          	srliw	a5,a5,0x10
  206ae6:	8bbd                	andi	a5,a5,15
  206ae8:	0ff7f693          	andi	a3,a5,255
  206aec:	fec46783          	lwu	a5,-20(s0)
  206af0:	078e                	slli	a5,a5,0x3
  206af2:	97ba                	add	a5,a5,a4
  206af4:	8736                	mv	a4,a3
  206af6:	8b3d                	andi	a4,a4,15
  206af8:	0087171b          	slliw	a4,a4,0x8
  206afc:	4390                	lw	a2,0(a5)
  206afe:	76fd                	lui	a3,0xfffff
  206b00:	0ff68693          	addi	a3,a3,255 # fffffffffffff0ff <g_nvmeTask+0xffffffffffdeefb7>
  206b04:	8ef1                	and	a3,a3,a2
  206b06:	8f55                	or	a4,a4,a3
  206b08:	c398                	sw	a4,0(a5)
  206b0a:	a825                	j	206b42 <SelectivGetFromNandStatusReportList+0x356>
  206b0c:	002107b7          	lui	a5,0x210
  206b10:	0987b703          	ld	a4,152(a5) # 210098 <wayPriorityTablePtr>
  206b14:	fec46783          	lwu	a5,-20(s0)
  206b18:	078e                	slli	a5,a5,0x3
  206b1a:	97ba                	add	a5,a5,a4
  206b1c:	4394                	lw	a3,0(a5)
  206b1e:	6705                	lui	a4,0x1
  206b20:	f0070713          	addi	a4,a4,-256 # f00 <start-0x1ff100>
  206b24:	8f55                	or	a4,a4,a3
  206b26:	c398                	sw	a4,0(a5)
  206b28:	002107b7          	lui	a5,0x210
  206b2c:	0987b703          	ld	a4,152(a5) # 210098 <wayPriorityTablePtr>
  206b30:	fec46783          	lwu	a5,-20(s0)
  206b34:	078e                	slli	a5,a5,0x3
  206b36:	97ba                	add	a5,a5,a4
  206b38:	4394                	lw	a3,0(a5)
  206b3a:	673d                	lui	a4,0xf
  206b3c:	8f55                	or	a4,a4,a3
  206b3e:	c398                	sw	a4,0(a5)
  206b40:	0001                	nop
  206b42:	0001                	nop
  206b44:	6462                	ld	s0,24(sp)
  206b46:	6105                	addi	sp,sp,32
  206b48:	8082                	ret

0000000000206b4a <PutToNandReadTriggerList>:
  206b4a:	1101                	addi	sp,sp,-32
  206b4c:	ec22                	sd	s0,24(sp)
  206b4e:	1000                	addi	s0,sp,32
  206b50:	87aa                	mv	a5,a0
  206b52:	872e                	mv	a4,a1
  206b54:	fef42623          	sw	a5,-20(s0)
  206b58:	87ba                	mv	a5,a4
  206b5a:	fef42423          	sw	a5,-24(s0)
  206b5e:	002107b7          	lui	a5,0x210
  206b62:	0987b703          	ld	a4,152(a5) # 210098 <wayPriorityTablePtr>
  206b66:	fec46783          	lwu	a5,-20(s0)
  206b6a:	078e                	slli	a5,a5,0x3
  206b6c:	97ba                	add	a5,a5,a4
  206b6e:	439c                	lw	a5,0(a5)
  206b70:	0147d79b          	srliw	a5,a5,0x14
  206b74:	8bbd                	andi	a5,a5,15
  206b76:	0ff7f793          	andi	a5,a5,255
  206b7a:	873e                	mv	a4,a5
  206b7c:	47bd                	li	a5,15
  206b7e:	0ef70963          	beq	a4,a5,206c70 <PutToNandReadTriggerList+0x126>
  206b82:	002107b7          	lui	a5,0x210
  206b86:	0987b683          	ld	a3,152(a5) # 210098 <wayPriorityTablePtr>
  206b8a:	002107b7          	lui	a5,0x210
  206b8e:	0b07b703          	ld	a4,176(a5) # 2100b0 <dieStateTablePtr>
  206b92:	fec46783          	lwu	a5,-20(s0)
  206b96:	078e                	slli	a5,a5,0x3
  206b98:	97b6                	add	a5,a5,a3
  206b9a:	439c                	lw	a5,0(a5)
  206b9c:	0147d79b          	srliw	a5,a5,0x14
  206ba0:	8bbd                	andi	a5,a5,15
  206ba2:	0ff7f613          	andi	a2,a5,255
  206ba6:	fe846783          	lwu	a5,-24(s0)
  206baa:	fec46683          	lwu	a3,-20(s0)
  206bae:	068e                	slli	a3,a3,0x3
  206bb0:	97b6                	add	a5,a5,a3
  206bb2:	078a                	slli	a5,a5,0x2
  206bb4:	97ba                	add	a5,a5,a4
  206bb6:	8732                	mv	a4,a2
  206bb8:	8b3d                	andi	a4,a4,15
  206bba:	00c7171b          	slliw	a4,a4,0xc
  206bbe:	4390                	lw	a2,0(a5)
  206bc0:	76c5                	lui	a3,0xffff1
  206bc2:	16fd                	addi	a3,a3,-1
  206bc4:	8ef1                	and	a3,a3,a2
  206bc6:	8f55                	or	a4,a4,a3
  206bc8:	c398                	sw	a4,0(a5)
  206bca:	002107b7          	lui	a5,0x210
  206bce:	0b07b703          	ld	a4,176(a5) # 2100b0 <dieStateTablePtr>
  206bd2:	fe846783          	lwu	a5,-24(s0)
  206bd6:	fec46683          	lwu	a3,-20(s0)
  206bda:	068e                	slli	a3,a3,0x3
  206bdc:	97b6                	add	a5,a5,a3
  206bde:	078a                	slli	a5,a5,0x2
  206be0:	97ba                	add	a5,a5,a4
  206be2:	4394                	lw	a3,0(a5)
  206be4:	000f0737          	lui	a4,0xf0
  206be8:	8f55                	or	a4,a4,a3
  206bea:	c398                	sw	a4,0(a5)
  206bec:	002107b7          	lui	a5,0x210
  206bf0:	0b07b703          	ld	a4,176(a5) # 2100b0 <dieStateTablePtr>
  206bf4:	002107b7          	lui	a5,0x210
  206bf8:	0987b683          	ld	a3,152(a5) # 210098 <wayPriorityTablePtr>
  206bfc:	fec46783          	lwu	a5,-20(s0)
  206c00:	078e                	slli	a5,a5,0x3
  206c02:	97b6                	add	a5,a5,a3
  206c04:	439c                	lw	a5,0(a5)
  206c06:	0147d79b          	srliw	a5,a5,0x14
  206c0a:	8bbd                	andi	a5,a5,15
  206c0c:	0ff7f793          	andi	a5,a5,255
  206c10:	2781                	sext.w	a5,a5
  206c12:	fe842683          	lw	a3,-24(s0)
  206c16:	8abd                	andi	a3,a3,15
  206c18:	0ff6f613          	andi	a2,a3,255
  206c1c:	fec46683          	lwu	a3,-20(s0)
  206c20:	068e                	slli	a3,a3,0x3
  206c22:	97b6                	add	a5,a5,a3
  206c24:	078a                	slli	a5,a5,0x2
  206c26:	97ba                	add	a5,a5,a4
  206c28:	8732                	mv	a4,a2
  206c2a:	8b3d                	andi	a4,a4,15
  206c2c:	0107171b          	slliw	a4,a4,0x10
  206c30:	4390                	lw	a2,0(a5)
  206c32:	fff106b7          	lui	a3,0xfff10
  206c36:	16fd                	addi	a3,a3,-1
  206c38:	8ef1                	and	a3,a3,a2
  206c3a:	8f55                	or	a4,a4,a3
  206c3c:	c398                	sw	a4,0(a5)
  206c3e:	002107b7          	lui	a5,0x210
  206c42:	0987b703          	ld	a4,152(a5) # 210098 <wayPriorityTablePtr>
  206c46:	fe842783          	lw	a5,-24(s0)
  206c4a:	8bbd                	andi	a5,a5,15
  206c4c:	0ff7f693          	andi	a3,a5,255
  206c50:	fec46783          	lwu	a5,-20(s0)
  206c54:	078e                	slli	a5,a5,0x3
  206c56:	97ba                	add	a5,a5,a4
  206c58:	8736                	mv	a4,a3
  206c5a:	8b3d                	andi	a4,a4,15
  206c5c:	0147171b          	slliw	a4,a4,0x14
  206c60:	4390                	lw	a2,0(a5)
  206c62:	ff1006b7          	lui	a3,0xff100
  206c66:	16fd                	addi	a3,a3,-1
  206c68:	8ef1                	and	a3,a3,a2
  206c6a:	8f55                	or	a4,a4,a3
  206c6c:	c398                	sw	a4,0(a5)
  206c6e:	a055                	j	206d12 <PutToNandReadTriggerList+0x1c8>
  206c70:	002107b7          	lui	a5,0x210
  206c74:	0b07b703          	ld	a4,176(a5) # 2100b0 <dieStateTablePtr>
  206c78:	fe846783          	lwu	a5,-24(s0)
  206c7c:	fec46683          	lwu	a3,-20(s0)
  206c80:	068e                	slli	a3,a3,0x3
  206c82:	97b6                	add	a5,a5,a3
  206c84:	078a                	slli	a5,a5,0x2
  206c86:	97ba                	add	a5,a5,a4
  206c88:	4394                	lw	a3,0(a5)
  206c8a:	673d                	lui	a4,0xf
  206c8c:	8f55                	or	a4,a4,a3
  206c8e:	c398                	sw	a4,0(a5)
  206c90:	002107b7          	lui	a5,0x210
  206c94:	0b07b703          	ld	a4,176(a5) # 2100b0 <dieStateTablePtr>
  206c98:	fe846783          	lwu	a5,-24(s0)
  206c9c:	fec46683          	lwu	a3,-20(s0)
  206ca0:	068e                	slli	a3,a3,0x3
  206ca2:	97b6                	add	a5,a5,a3
  206ca4:	078a                	slli	a5,a5,0x2
  206ca6:	97ba                	add	a5,a5,a4
  206ca8:	4394                	lw	a3,0(a5)
  206caa:	000f0737          	lui	a4,0xf0
  206cae:	8f55                	or	a4,a4,a3
  206cb0:	c398                	sw	a4,0(a5)
  206cb2:	002107b7          	lui	a5,0x210
  206cb6:	0987b703          	ld	a4,152(a5) # 210098 <wayPriorityTablePtr>
  206cba:	fe842783          	lw	a5,-24(s0)
  206cbe:	8bbd                	andi	a5,a5,15
  206cc0:	0ff7f693          	andi	a3,a5,255
  206cc4:	fec46783          	lwu	a5,-20(s0)
  206cc8:	078e                	slli	a5,a5,0x3
  206cca:	97ba                	add	a5,a5,a4
  206ccc:	8736                	mv	a4,a3
  206cce:	8b3d                	andi	a4,a4,15
  206cd0:	0107171b          	slliw	a4,a4,0x10
  206cd4:	4390                	lw	a2,0(a5)
  206cd6:	fff106b7          	lui	a3,0xfff10
  206cda:	16fd                	addi	a3,a3,-1
  206cdc:	8ef1                	and	a3,a3,a2
  206cde:	8f55                	or	a4,a4,a3
  206ce0:	c398                	sw	a4,0(a5)
  206ce2:	002107b7          	lui	a5,0x210
  206ce6:	0987b703          	ld	a4,152(a5) # 210098 <wayPriorityTablePtr>
  206cea:	fe842783          	lw	a5,-24(s0)
  206cee:	8bbd                	andi	a5,a5,15
  206cf0:	0ff7f693          	andi	a3,a5,255
  206cf4:	fec46783          	lwu	a5,-20(s0)
  206cf8:	078e                	slli	a5,a5,0x3
  206cfa:	97ba                	add	a5,a5,a4
  206cfc:	8736                	mv	a4,a3
  206cfe:	8b3d                	andi	a4,a4,15
  206d00:	0147171b          	slliw	a4,a4,0x14
  206d04:	4390                	lw	a2,0(a5)
  206d06:	ff1006b7          	lui	a3,0xff100
  206d0a:	16fd                	addi	a3,a3,-1
  206d0c:	8ef1                	and	a3,a3,a2
  206d0e:	8f55                	or	a4,a4,a3
  206d10:	c398                	sw	a4,0(a5)
  206d12:	0001                	nop
  206d14:	6462                	ld	s0,24(sp)
  206d16:	6105                	addi	sp,sp,32
  206d18:	8082                	ret

0000000000206d1a <SelectiveGetFromNandReadTriggerList>:
  206d1a:	1101                	addi	sp,sp,-32
  206d1c:	ec22                	sd	s0,24(sp)
  206d1e:	1000                	addi	s0,sp,32
  206d20:	87aa                	mv	a5,a0
  206d22:	872e                	mv	a4,a1
  206d24:	fef42623          	sw	a5,-20(s0)
  206d28:	87ba                	mv	a5,a4
  206d2a:	fef42423          	sw	a5,-24(s0)
  206d2e:	002107b7          	lui	a5,0x210
  206d32:	0b07b703          	ld	a4,176(a5) # 2100b0 <dieStateTablePtr>
  206d36:	fe846783          	lwu	a5,-24(s0)
  206d3a:	fec46683          	lwu	a3,-20(s0)
  206d3e:	068e                	slli	a3,a3,0x3
  206d40:	97b6                	add	a5,a5,a3
  206d42:	078a                	slli	a5,a5,0x2
  206d44:	97ba                	add	a5,a5,a4
  206d46:	439c                	lw	a5,0(a5)
  206d48:	0107d79b          	srliw	a5,a5,0x10
  206d4c:	8bbd                	andi	a5,a5,15
  206d4e:	0ff7f793          	andi	a5,a5,255
  206d52:	873e                	mv	a4,a5
  206d54:	47bd                	li	a5,15
  206d56:	10f70c63          	beq	a4,a5,206e6e <SelectiveGetFromNandReadTriggerList+0x154>
  206d5a:	002107b7          	lui	a5,0x210
  206d5e:	0b07b703          	ld	a4,176(a5) # 2100b0 <dieStateTablePtr>
  206d62:	fe846783          	lwu	a5,-24(s0)
  206d66:	fec46683          	lwu	a3,-20(s0)
  206d6a:	068e                	slli	a3,a3,0x3
  206d6c:	97b6                	add	a5,a5,a3
  206d6e:	078a                	slli	a5,a5,0x2
  206d70:	97ba                	add	a5,a5,a4
  206d72:	439c                	lw	a5,0(a5)
  206d74:	00c7d79b          	srliw	a5,a5,0xc
  206d78:	8bbd                	andi	a5,a5,15
  206d7a:	0ff7f793          	andi	a5,a5,255
  206d7e:	873e                	mv	a4,a5
  206d80:	47bd                	li	a5,15
  206d82:	0ef70663          	beq	a4,a5,206e6e <SelectiveGetFromNandReadTriggerList+0x154>
  206d86:	002107b7          	lui	a5,0x210
  206d8a:	0b07b603          	ld	a2,176(a5) # 2100b0 <dieStateTablePtr>
  206d8e:	002107b7          	lui	a5,0x210
  206d92:	0b07b703          	ld	a4,176(a5) # 2100b0 <dieStateTablePtr>
  206d96:	002107b7          	lui	a5,0x210
  206d9a:	0b07b683          	ld	a3,176(a5) # 2100b0 <dieStateTablePtr>
  206d9e:	fe846783          	lwu	a5,-24(s0)
  206da2:	fec46583          	lwu	a1,-20(s0)
  206da6:	058e                	slli	a1,a1,0x3
  206da8:	97ae                	add	a5,a5,a1
  206daa:	078a                	slli	a5,a5,0x2
  206dac:	97b6                	add	a5,a5,a3
  206dae:	439c                	lw	a5,0(a5)
  206db0:	00c7d79b          	srliw	a5,a5,0xc
  206db4:	8bbd                	andi	a5,a5,15
  206db6:	0ff7f793          	andi	a5,a5,255
  206dba:	2781                	sext.w	a5,a5
  206dbc:	fe846683          	lwu	a3,-24(s0)
  206dc0:	fec46583          	lwu	a1,-20(s0)
  206dc4:	058e                	slli	a1,a1,0x3
  206dc6:	96ae                	add	a3,a3,a1
  206dc8:	068a                	slli	a3,a3,0x2
  206dca:	96b2                	add	a3,a3,a2
  206dcc:	4294                	lw	a3,0(a3)
  206dce:	0106d69b          	srliw	a3,a3,0x10
  206dd2:	8abd                	andi	a3,a3,15
  206dd4:	0ff6f613          	andi	a2,a3,255
  206dd8:	fec46683          	lwu	a3,-20(s0)
  206ddc:	068e                	slli	a3,a3,0x3
  206dde:	97b6                	add	a5,a5,a3
  206de0:	078a                	slli	a5,a5,0x2
  206de2:	97ba                	add	a5,a5,a4
  206de4:	8732                	mv	a4,a2
  206de6:	8b3d                	andi	a4,a4,15
  206de8:	0107171b          	slliw	a4,a4,0x10
  206dec:	4390                	lw	a2,0(a5)
  206dee:	fff106b7          	lui	a3,0xfff10
  206df2:	16fd                	addi	a3,a3,-1
  206df4:	8ef1                	and	a3,a3,a2
  206df6:	8f55                	or	a4,a4,a3
  206df8:	c398                	sw	a4,0(a5)
  206dfa:	002107b7          	lui	a5,0x210
  206dfe:	0b07b603          	ld	a2,176(a5) # 2100b0 <dieStateTablePtr>
  206e02:	002107b7          	lui	a5,0x210
  206e06:	0b07b703          	ld	a4,176(a5) # 2100b0 <dieStateTablePtr>
  206e0a:	002107b7          	lui	a5,0x210
  206e0e:	0b07b683          	ld	a3,176(a5) # 2100b0 <dieStateTablePtr>
  206e12:	fe846783          	lwu	a5,-24(s0)
  206e16:	fec46583          	lwu	a1,-20(s0)
  206e1a:	058e                	slli	a1,a1,0x3
  206e1c:	97ae                	add	a5,a5,a1
  206e1e:	078a                	slli	a5,a5,0x2
  206e20:	97b6                	add	a5,a5,a3
  206e22:	439c                	lw	a5,0(a5)
  206e24:	0107d79b          	srliw	a5,a5,0x10
  206e28:	8bbd                	andi	a5,a5,15
  206e2a:	0ff7f793          	andi	a5,a5,255
  206e2e:	2781                	sext.w	a5,a5
  206e30:	fe846683          	lwu	a3,-24(s0)
  206e34:	fec46583          	lwu	a1,-20(s0)
  206e38:	058e                	slli	a1,a1,0x3
  206e3a:	96ae                	add	a3,a3,a1
  206e3c:	068a                	slli	a3,a3,0x2
  206e3e:	96b2                	add	a3,a3,a2
  206e40:	4294                	lw	a3,0(a3)
  206e42:	00c6d69b          	srliw	a3,a3,0xc
  206e46:	8abd                	andi	a3,a3,15
  206e48:	0ff6f613          	andi	a2,a3,255
  206e4c:	fec46683          	lwu	a3,-20(s0)
  206e50:	068e                	slli	a3,a3,0x3
  206e52:	97b6                	add	a5,a5,a3
  206e54:	078a                	slli	a5,a5,0x2
  206e56:	97ba                	add	a5,a5,a4
  206e58:	8732                	mv	a4,a2
  206e5a:	8b3d                	andi	a4,a4,15
  206e5c:	00c7171b          	slliw	a4,a4,0xc
  206e60:	4390                	lw	a2,0(a5)
  206e62:	76c5                	lui	a3,0xffff1
  206e64:	16fd                	addi	a3,a3,-1
  206e66:	8ef1                	and	a3,a3,a2
  206e68:	8f55                	or	a4,a4,a3
  206e6a:	c398                	sw	a4,0(a5)
  206e6c:	a419                	j	207072 <SelectiveGetFromNandReadTriggerList+0x358>
  206e6e:	002107b7          	lui	a5,0x210
  206e72:	0b07b703          	ld	a4,176(a5) # 2100b0 <dieStateTablePtr>
  206e76:	fe846783          	lwu	a5,-24(s0)
  206e7a:	fec46683          	lwu	a3,-20(s0)
  206e7e:	068e                	slli	a3,a3,0x3
  206e80:	97b6                	add	a5,a5,a3
  206e82:	078a                	slli	a5,a5,0x2
  206e84:	97ba                	add	a5,a5,a4
  206e86:	439c                	lw	a5,0(a5)
  206e88:	0107d79b          	srliw	a5,a5,0x10
  206e8c:	8bbd                	andi	a5,a5,15
  206e8e:	0ff7f793          	andi	a5,a5,255
  206e92:	873e                	mv	a4,a5
  206e94:	47bd                	li	a5,15
  206e96:	0cf71063          	bne	a4,a5,206f56 <SelectiveGetFromNandReadTriggerList+0x23c>
  206e9a:	002107b7          	lui	a5,0x210
  206e9e:	0b07b703          	ld	a4,176(a5) # 2100b0 <dieStateTablePtr>
  206ea2:	fe846783          	lwu	a5,-24(s0)
  206ea6:	fec46683          	lwu	a3,-20(s0)
  206eaa:	068e                	slli	a3,a3,0x3
  206eac:	97b6                	add	a5,a5,a3
  206eae:	078a                	slli	a5,a5,0x2
  206eb0:	97ba                	add	a5,a5,a4
  206eb2:	439c                	lw	a5,0(a5)
  206eb4:	00c7d79b          	srliw	a5,a5,0xc
  206eb8:	8bbd                	andi	a5,a5,15
  206eba:	0ff7f793          	andi	a5,a5,255
  206ebe:	873e                	mv	a4,a5
  206ec0:	47bd                	li	a5,15
  206ec2:	08f70a63          	beq	a4,a5,206f56 <SelectiveGetFromNandReadTriggerList+0x23c>
  206ec6:	002107b7          	lui	a5,0x210
  206eca:	0b07b703          	ld	a4,176(a5) # 2100b0 <dieStateTablePtr>
  206ece:	002107b7          	lui	a5,0x210
  206ed2:	0b07b683          	ld	a3,176(a5) # 2100b0 <dieStateTablePtr>
  206ed6:	fe846783          	lwu	a5,-24(s0)
  206eda:	fec46603          	lwu	a2,-20(s0)
  206ede:	060e                	slli	a2,a2,0x3
  206ee0:	97b2                	add	a5,a5,a2
  206ee2:	078a                	slli	a5,a5,0x2
  206ee4:	97b6                	add	a5,a5,a3
  206ee6:	439c                	lw	a5,0(a5)
  206ee8:	00c7d79b          	srliw	a5,a5,0xc
  206eec:	8bbd                	andi	a5,a5,15
  206eee:	0ff7f793          	andi	a5,a5,255
  206ef2:	2781                	sext.w	a5,a5
  206ef4:	fec46683          	lwu	a3,-20(s0)
  206ef8:	068e                	slli	a3,a3,0x3
  206efa:	97b6                	add	a5,a5,a3
  206efc:	078a                	slli	a5,a5,0x2
  206efe:	97ba                	add	a5,a5,a4
  206f00:	4394                	lw	a3,0(a5)
  206f02:	000f0737          	lui	a4,0xf0
  206f06:	8f55                	or	a4,a4,a3
  206f08:	c398                	sw	a4,0(a5)
  206f0a:	002107b7          	lui	a5,0x210
  206f0e:	0b07b683          	ld	a3,176(a5) # 2100b0 <dieStateTablePtr>
  206f12:	002107b7          	lui	a5,0x210
  206f16:	0987b703          	ld	a4,152(a5) # 210098 <wayPriorityTablePtr>
  206f1a:	fe846783          	lwu	a5,-24(s0)
  206f1e:	fec46603          	lwu	a2,-20(s0)
  206f22:	060e                	slli	a2,a2,0x3
  206f24:	97b2                	add	a5,a5,a2
  206f26:	078a                	slli	a5,a5,0x2
  206f28:	97b6                	add	a5,a5,a3
  206f2a:	439c                	lw	a5,0(a5)
  206f2c:	00c7d79b          	srliw	a5,a5,0xc
  206f30:	8bbd                	andi	a5,a5,15
  206f32:	0ff7f693          	andi	a3,a5,255
  206f36:	fec46783          	lwu	a5,-20(s0)
  206f3a:	078e                	slli	a5,a5,0x3
  206f3c:	97ba                	add	a5,a5,a4
  206f3e:	8736                	mv	a4,a3
  206f40:	8b3d                	andi	a4,a4,15
  206f42:	0147171b          	slliw	a4,a4,0x14
  206f46:	4390                	lw	a2,0(a5)
  206f48:	ff1006b7          	lui	a3,0xff100
  206f4c:	16fd                	addi	a3,a3,-1
  206f4e:	8ef1                	and	a3,a3,a2
  206f50:	8f55                	or	a4,a4,a3
  206f52:	c398                	sw	a4,0(a5)
  206f54:	aa39                	j	207072 <SelectiveGetFromNandReadTriggerList+0x358>
  206f56:	002107b7          	lui	a5,0x210
  206f5a:	0b07b703          	ld	a4,176(a5) # 2100b0 <dieStateTablePtr>
  206f5e:	fe846783          	lwu	a5,-24(s0)
  206f62:	fec46683          	lwu	a3,-20(s0)
  206f66:	068e                	slli	a3,a3,0x3
  206f68:	97b6                	add	a5,a5,a3
  206f6a:	078a                	slli	a5,a5,0x2
  206f6c:	97ba                	add	a5,a5,a4
  206f6e:	439c                	lw	a5,0(a5)
  206f70:	0107d79b          	srliw	a5,a5,0x10
  206f74:	8bbd                	andi	a5,a5,15
  206f76:	0ff7f793          	andi	a5,a5,255
  206f7a:	873e                	mv	a4,a5
  206f7c:	47bd                	li	a5,15
  206f7e:	0af70f63          	beq	a4,a5,20703c <SelectiveGetFromNandReadTriggerList+0x322>
  206f82:	002107b7          	lui	a5,0x210
  206f86:	0b07b703          	ld	a4,176(a5) # 2100b0 <dieStateTablePtr>
  206f8a:	fe846783          	lwu	a5,-24(s0)
  206f8e:	fec46683          	lwu	a3,-20(s0)
  206f92:	068e                	slli	a3,a3,0x3
  206f94:	97b6                	add	a5,a5,a3
  206f96:	078a                	slli	a5,a5,0x2
  206f98:	97ba                	add	a5,a5,a4
  206f9a:	439c                	lw	a5,0(a5)
  206f9c:	00c7d79b          	srliw	a5,a5,0xc
  206fa0:	8bbd                	andi	a5,a5,15
  206fa2:	0ff7f793          	andi	a5,a5,255
  206fa6:	873e                	mv	a4,a5
  206fa8:	47bd                	li	a5,15
  206faa:	08f71963          	bne	a4,a5,20703c <SelectiveGetFromNandReadTriggerList+0x322>
  206fae:	002107b7          	lui	a5,0x210
  206fb2:	0b07b703          	ld	a4,176(a5) # 2100b0 <dieStateTablePtr>
  206fb6:	002107b7          	lui	a5,0x210
  206fba:	0b07b683          	ld	a3,176(a5) # 2100b0 <dieStateTablePtr>
  206fbe:	fe846783          	lwu	a5,-24(s0)
  206fc2:	fec46603          	lwu	a2,-20(s0)
  206fc6:	060e                	slli	a2,a2,0x3
  206fc8:	97b2                	add	a5,a5,a2
  206fca:	078a                	slli	a5,a5,0x2
  206fcc:	97b6                	add	a5,a5,a3
  206fce:	439c                	lw	a5,0(a5)
  206fd0:	0107d79b          	srliw	a5,a5,0x10
  206fd4:	8bbd                	andi	a5,a5,15
  206fd6:	0ff7f793          	andi	a5,a5,255
  206fda:	2781                	sext.w	a5,a5
  206fdc:	fec46683          	lwu	a3,-20(s0)
  206fe0:	068e                	slli	a3,a3,0x3
  206fe2:	97b6                	add	a5,a5,a3
  206fe4:	078a                	slli	a5,a5,0x2
  206fe6:	97ba                	add	a5,a5,a4
  206fe8:	4394                	lw	a3,0(a5)
  206fea:	673d                	lui	a4,0xf
  206fec:	8f55                	or	a4,a4,a3
  206fee:	c398                	sw	a4,0(a5)
  206ff0:	002107b7          	lui	a5,0x210
  206ff4:	0b07b683          	ld	a3,176(a5) # 2100b0 <dieStateTablePtr>
  206ff8:	002107b7          	lui	a5,0x210
  206ffc:	0987b703          	ld	a4,152(a5) # 210098 <wayPriorityTablePtr>
  207000:	fe846783          	lwu	a5,-24(s0)
  207004:	fec46603          	lwu	a2,-20(s0)
  207008:	060e                	slli	a2,a2,0x3
  20700a:	97b2                	add	a5,a5,a2
  20700c:	078a                	slli	a5,a5,0x2
  20700e:	97b6                	add	a5,a5,a3
  207010:	439c                	lw	a5,0(a5)
  207012:	0107d79b          	srliw	a5,a5,0x10
  207016:	8bbd                	andi	a5,a5,15
  207018:	0ff7f693          	andi	a3,a5,255
  20701c:	fec46783          	lwu	a5,-20(s0)
  207020:	078e                	slli	a5,a5,0x3
  207022:	97ba                	add	a5,a5,a4
  207024:	8736                	mv	a4,a3
  207026:	8b3d                	andi	a4,a4,15
  207028:	0107171b          	slliw	a4,a4,0x10
  20702c:	4390                	lw	a2,0(a5)
  20702e:	fff106b7          	lui	a3,0xfff10
  207032:	16fd                	addi	a3,a3,-1
  207034:	8ef1                	and	a3,a3,a2
  207036:	8f55                	or	a4,a4,a3
  207038:	c398                	sw	a4,0(a5)
  20703a:	a825                	j	207072 <SelectiveGetFromNandReadTriggerList+0x358>
  20703c:	002107b7          	lui	a5,0x210
  207040:	0987b703          	ld	a4,152(a5) # 210098 <wayPriorityTablePtr>
  207044:	fec46783          	lwu	a5,-20(s0)
  207048:	078e                	slli	a5,a5,0x3
  20704a:	97ba                	add	a5,a5,a4
  20704c:	4394                	lw	a3,0(a5)
  20704e:	000f0737          	lui	a4,0xf0
  207052:	8f55                	or	a4,a4,a3
  207054:	c398                	sw	a4,0(a5)
  207056:	002107b7          	lui	a5,0x210
  20705a:	0987b703          	ld	a4,152(a5) # 210098 <wayPriorityTablePtr>
  20705e:	fec46783          	lwu	a5,-20(s0)
  207062:	078e                	slli	a5,a5,0x3
  207064:	97ba                	add	a5,a5,a4
  207066:	4394                	lw	a3,0(a5)
  207068:	00f00737          	lui	a4,0xf00
  20706c:	8f55                	or	a4,a4,a3
  20706e:	c398                	sw	a4,0(a5)
  207070:	0001                	nop
  207072:	0001                	nop
  207074:	6462                	ld	s0,24(sp)
  207076:	6105                	addi	sp,sp,32
  207078:	8082                	ret

000000000020707a <PutToNandWriteList>:
  20707a:	1101                	addi	sp,sp,-32
  20707c:	ec22                	sd	s0,24(sp)
  20707e:	1000                	addi	s0,sp,32
  207080:	87aa                	mv	a5,a0
  207082:	872e                	mv	a4,a1
  207084:	fef42623          	sw	a5,-20(s0)
  207088:	87ba                	mv	a5,a4
  20708a:	fef42423          	sw	a5,-24(s0)
  20708e:	002107b7          	lui	a5,0x210
  207092:	0987b703          	ld	a4,152(a5) # 210098 <wayPriorityTablePtr>
  207096:	fec46783          	lwu	a5,-20(s0)
  20709a:	078e                	slli	a5,a5,0x3
  20709c:	97ba                	add	a5,a5,a4
  20709e:	439c                	lw	a5,0(a5)
  2070a0:	01c7d79b          	srliw	a5,a5,0x1c
  2070a4:	0ff7f793          	andi	a5,a5,255
  2070a8:	873e                	mv	a4,a5
  2070aa:	47bd                	li	a5,15
  2070ac:	0ef70563          	beq	a4,a5,207196 <PutToNandWriteList+0x11c>
  2070b0:	002107b7          	lui	a5,0x210
  2070b4:	0987b683          	ld	a3,152(a5) # 210098 <wayPriorityTablePtr>
  2070b8:	002107b7          	lui	a5,0x210
  2070bc:	0b07b703          	ld	a4,176(a5) # 2100b0 <dieStateTablePtr>
  2070c0:	fec46783          	lwu	a5,-20(s0)
  2070c4:	078e                	slli	a5,a5,0x3
  2070c6:	97b6                	add	a5,a5,a3
  2070c8:	439c                	lw	a5,0(a5)
  2070ca:	01c7d79b          	srliw	a5,a5,0x1c
  2070ce:	0ff7f613          	andi	a2,a5,255
  2070d2:	fe846783          	lwu	a5,-24(s0)
  2070d6:	fec46683          	lwu	a3,-20(s0)
  2070da:	068e                	slli	a3,a3,0x3
  2070dc:	97b6                	add	a5,a5,a3
  2070de:	078a                	slli	a5,a5,0x2
  2070e0:	97ba                	add	a5,a5,a4
  2070e2:	8732                	mv	a4,a2
  2070e4:	8b3d                	andi	a4,a4,15
  2070e6:	00c7171b          	slliw	a4,a4,0xc
  2070ea:	4390                	lw	a2,0(a5)
  2070ec:	76c5                	lui	a3,0xffff1
  2070ee:	16fd                	addi	a3,a3,-1
  2070f0:	8ef1                	and	a3,a3,a2
  2070f2:	8f55                	or	a4,a4,a3
  2070f4:	c398                	sw	a4,0(a5)
  2070f6:	002107b7          	lui	a5,0x210
  2070fa:	0b07b703          	ld	a4,176(a5) # 2100b0 <dieStateTablePtr>
  2070fe:	fe846783          	lwu	a5,-24(s0)
  207102:	fec46683          	lwu	a3,-20(s0)
  207106:	068e                	slli	a3,a3,0x3
  207108:	97b6                	add	a5,a5,a3
  20710a:	078a                	slli	a5,a5,0x2
  20710c:	97ba                	add	a5,a5,a4
  20710e:	4394                	lw	a3,0(a5)
  207110:	000f0737          	lui	a4,0xf0
  207114:	8f55                	or	a4,a4,a3
  207116:	c398                	sw	a4,0(a5)
  207118:	002107b7          	lui	a5,0x210
  20711c:	0b07b703          	ld	a4,176(a5) # 2100b0 <dieStateTablePtr>
  207120:	002107b7          	lui	a5,0x210
  207124:	0987b683          	ld	a3,152(a5) # 210098 <wayPriorityTablePtr>
  207128:	fec46783          	lwu	a5,-20(s0)
  20712c:	078e                	slli	a5,a5,0x3
  20712e:	97b6                	add	a5,a5,a3
  207130:	439c                	lw	a5,0(a5)
  207132:	01c7d79b          	srliw	a5,a5,0x1c
  207136:	0ff7f793          	andi	a5,a5,255
  20713a:	2781                	sext.w	a5,a5
  20713c:	fe842683          	lw	a3,-24(s0)
  207140:	8abd                	andi	a3,a3,15
  207142:	0ff6f613          	andi	a2,a3,255
  207146:	fec46683          	lwu	a3,-20(s0)
  20714a:	068e                	slli	a3,a3,0x3
  20714c:	97b6                	add	a5,a5,a3
  20714e:	078a                	slli	a5,a5,0x2
  207150:	97ba                	add	a5,a5,a4
  207152:	8732                	mv	a4,a2
  207154:	8b3d                	andi	a4,a4,15
  207156:	0107171b          	slliw	a4,a4,0x10
  20715a:	4390                	lw	a2,0(a5)
  20715c:	fff106b7          	lui	a3,0xfff10
  207160:	16fd                	addi	a3,a3,-1
  207162:	8ef1                	and	a3,a3,a2
  207164:	8f55                	or	a4,a4,a3
  207166:	c398                	sw	a4,0(a5)
  207168:	002107b7          	lui	a5,0x210
  20716c:	0987b683          	ld	a3,152(a5) # 210098 <wayPriorityTablePtr>
  207170:	fe842783          	lw	a5,-24(s0)
  207174:	8bbd                	andi	a5,a5,15
  207176:	0ff7f713          	andi	a4,a5,255
  20717a:	fec46783          	lwu	a5,-20(s0)
  20717e:	078e                	slli	a5,a5,0x3
  207180:	97b6                	add	a5,a5,a3
  207182:	01c7171b          	slliw	a4,a4,0x1c
  207186:	4390                	lw	a2,0(a5)
  207188:	100006b7          	lui	a3,0x10000
  20718c:	16fd                	addi	a3,a3,-1
  20718e:	8ef1                	and	a3,a3,a2
  207190:	8f55                	or	a4,a4,a3
  207192:	c398                	sw	a4,0(a5)
  207194:	a045                	j	207234 <PutToNandWriteList+0x1ba>
  207196:	002107b7          	lui	a5,0x210
  20719a:	0b07b703          	ld	a4,176(a5) # 2100b0 <dieStateTablePtr>
  20719e:	fe846783          	lwu	a5,-24(s0)
  2071a2:	fec46683          	lwu	a3,-20(s0)
  2071a6:	068e                	slli	a3,a3,0x3
  2071a8:	97b6                	add	a5,a5,a3
  2071aa:	078a                	slli	a5,a5,0x2
  2071ac:	97ba                	add	a5,a5,a4
  2071ae:	4394                	lw	a3,0(a5)
  2071b0:	673d                	lui	a4,0xf
  2071b2:	8f55                	or	a4,a4,a3
  2071b4:	c398                	sw	a4,0(a5)
  2071b6:	002107b7          	lui	a5,0x210
  2071ba:	0b07b703          	ld	a4,176(a5) # 2100b0 <dieStateTablePtr>
  2071be:	fe846783          	lwu	a5,-24(s0)
  2071c2:	fec46683          	lwu	a3,-20(s0)
  2071c6:	068e                	slli	a3,a3,0x3
  2071c8:	97b6                	add	a5,a5,a3
  2071ca:	078a                	slli	a5,a5,0x2
  2071cc:	97ba                	add	a5,a5,a4
  2071ce:	4394                	lw	a3,0(a5)
  2071d0:	000f0737          	lui	a4,0xf0
  2071d4:	8f55                	or	a4,a4,a3
  2071d6:	c398                	sw	a4,0(a5)
  2071d8:	002107b7          	lui	a5,0x210
  2071dc:	0987b703          	ld	a4,152(a5) # 210098 <wayPriorityTablePtr>
  2071e0:	fe842783          	lw	a5,-24(s0)
  2071e4:	8bbd                	andi	a5,a5,15
  2071e6:	0ff7f693          	andi	a3,a5,255
  2071ea:	fec46783          	lwu	a5,-20(s0)
  2071ee:	078e                	slli	a5,a5,0x3
  2071f0:	97ba                	add	a5,a5,a4
  2071f2:	8736                	mv	a4,a3
  2071f4:	8b3d                	andi	a4,a4,15
  2071f6:	0187171b          	slliw	a4,a4,0x18
  2071fa:	4390                	lw	a2,0(a5)
  2071fc:	f10006b7          	lui	a3,0xf1000
  207200:	16fd                	addi	a3,a3,-1
  207202:	8ef1                	and	a3,a3,a2
  207204:	8f55                	or	a4,a4,a3
  207206:	c398                	sw	a4,0(a5)
  207208:	002107b7          	lui	a5,0x210
  20720c:	0987b683          	ld	a3,152(a5) # 210098 <wayPriorityTablePtr>
  207210:	fe842783          	lw	a5,-24(s0)
  207214:	8bbd                	andi	a5,a5,15
  207216:	0ff7f713          	andi	a4,a5,255
  20721a:	fec46783          	lwu	a5,-20(s0)
  20721e:	078e                	slli	a5,a5,0x3
  207220:	97b6                	add	a5,a5,a3
  207222:	01c7171b          	slliw	a4,a4,0x1c
  207226:	4390                	lw	a2,0(a5)
  207228:	100006b7          	lui	a3,0x10000
  20722c:	16fd                	addi	a3,a3,-1
  20722e:	8ef1                	and	a3,a3,a2
  207230:	8f55                	or	a4,a4,a3
  207232:	c398                	sw	a4,0(a5)
  207234:	0001                	nop
  207236:	6462                	ld	s0,24(sp)
  207238:	6105                	addi	sp,sp,32
  20723a:	8082                	ret

000000000020723c <SelectiveGetFromNandWriteList>:
  20723c:	1101                	addi	sp,sp,-32
  20723e:	ec22                	sd	s0,24(sp)
  207240:	1000                	addi	s0,sp,32
  207242:	87aa                	mv	a5,a0
  207244:	872e                	mv	a4,a1
  207246:	fef42623          	sw	a5,-20(s0)
  20724a:	87ba                	mv	a5,a4
  20724c:	fef42423          	sw	a5,-24(s0)
  207250:	002107b7          	lui	a5,0x210
  207254:	0b07b703          	ld	a4,176(a5) # 2100b0 <dieStateTablePtr>
  207258:	fe846783          	lwu	a5,-24(s0)
  20725c:	fec46683          	lwu	a3,-20(s0)
  207260:	068e                	slli	a3,a3,0x3
  207262:	97b6                	add	a5,a5,a3
  207264:	078a                	slli	a5,a5,0x2
  207266:	97ba                	add	a5,a5,a4
  207268:	439c                	lw	a5,0(a5)
  20726a:	0107d79b          	srliw	a5,a5,0x10
  20726e:	8bbd                	andi	a5,a5,15
  207270:	0ff7f793          	andi	a5,a5,255
  207274:	873e                	mv	a4,a5
  207276:	47bd                	li	a5,15
  207278:	10f70c63          	beq	a4,a5,207390 <SelectiveGetFromNandWriteList+0x154>
  20727c:	002107b7          	lui	a5,0x210
  207280:	0b07b703          	ld	a4,176(a5) # 2100b0 <dieStateTablePtr>
  207284:	fe846783          	lwu	a5,-24(s0)
  207288:	fec46683          	lwu	a3,-20(s0)
  20728c:	068e                	slli	a3,a3,0x3
  20728e:	97b6                	add	a5,a5,a3
  207290:	078a                	slli	a5,a5,0x2
  207292:	97ba                	add	a5,a5,a4
  207294:	439c                	lw	a5,0(a5)
  207296:	00c7d79b          	srliw	a5,a5,0xc
  20729a:	8bbd                	andi	a5,a5,15
  20729c:	0ff7f793          	andi	a5,a5,255
  2072a0:	873e                	mv	a4,a5
  2072a2:	47bd                	li	a5,15
  2072a4:	0ef70663          	beq	a4,a5,207390 <SelectiveGetFromNandWriteList+0x154>
  2072a8:	002107b7          	lui	a5,0x210
  2072ac:	0b07b603          	ld	a2,176(a5) # 2100b0 <dieStateTablePtr>
  2072b0:	002107b7          	lui	a5,0x210
  2072b4:	0b07b703          	ld	a4,176(a5) # 2100b0 <dieStateTablePtr>
  2072b8:	002107b7          	lui	a5,0x210
  2072bc:	0b07b683          	ld	a3,176(a5) # 2100b0 <dieStateTablePtr>
  2072c0:	fe846783          	lwu	a5,-24(s0)
  2072c4:	fec46583          	lwu	a1,-20(s0)
  2072c8:	058e                	slli	a1,a1,0x3
  2072ca:	97ae                	add	a5,a5,a1
  2072cc:	078a                	slli	a5,a5,0x2
  2072ce:	97b6                	add	a5,a5,a3
  2072d0:	439c                	lw	a5,0(a5)
  2072d2:	00c7d79b          	srliw	a5,a5,0xc
  2072d6:	8bbd                	andi	a5,a5,15
  2072d8:	0ff7f793          	andi	a5,a5,255
  2072dc:	2781                	sext.w	a5,a5
  2072de:	fe846683          	lwu	a3,-24(s0)
  2072e2:	fec46583          	lwu	a1,-20(s0)
  2072e6:	058e                	slli	a1,a1,0x3
  2072e8:	96ae                	add	a3,a3,a1
  2072ea:	068a                	slli	a3,a3,0x2
  2072ec:	96b2                	add	a3,a3,a2
  2072ee:	4294                	lw	a3,0(a3)
  2072f0:	0106d69b          	srliw	a3,a3,0x10
  2072f4:	8abd                	andi	a3,a3,15
  2072f6:	0ff6f613          	andi	a2,a3,255
  2072fa:	fec46683          	lwu	a3,-20(s0)
  2072fe:	068e                	slli	a3,a3,0x3
  207300:	97b6                	add	a5,a5,a3
  207302:	078a                	slli	a5,a5,0x2
  207304:	97ba                	add	a5,a5,a4
  207306:	8732                	mv	a4,a2
  207308:	8b3d                	andi	a4,a4,15
  20730a:	0107171b          	slliw	a4,a4,0x10
  20730e:	4390                	lw	a2,0(a5)
  207310:	fff106b7          	lui	a3,0xfff10
  207314:	16fd                	addi	a3,a3,-1
  207316:	8ef1                	and	a3,a3,a2
  207318:	8f55                	or	a4,a4,a3
  20731a:	c398                	sw	a4,0(a5)
  20731c:	002107b7          	lui	a5,0x210
  207320:	0b07b603          	ld	a2,176(a5) # 2100b0 <dieStateTablePtr>
  207324:	002107b7          	lui	a5,0x210
  207328:	0b07b703          	ld	a4,176(a5) # 2100b0 <dieStateTablePtr>
  20732c:	002107b7          	lui	a5,0x210
  207330:	0b07b683          	ld	a3,176(a5) # 2100b0 <dieStateTablePtr>
  207334:	fe846783          	lwu	a5,-24(s0)
  207338:	fec46583          	lwu	a1,-20(s0)
  20733c:	058e                	slli	a1,a1,0x3
  20733e:	97ae                	add	a5,a5,a1
  207340:	078a                	slli	a5,a5,0x2
  207342:	97b6                	add	a5,a5,a3
  207344:	439c                	lw	a5,0(a5)
  207346:	0107d79b          	srliw	a5,a5,0x10
  20734a:	8bbd                	andi	a5,a5,15
  20734c:	0ff7f793          	andi	a5,a5,255
  207350:	2781                	sext.w	a5,a5
  207352:	fe846683          	lwu	a3,-24(s0)
  207356:	fec46583          	lwu	a1,-20(s0)
  20735a:	058e                	slli	a1,a1,0x3
  20735c:	96ae                	add	a3,a3,a1
  20735e:	068a                	slli	a3,a3,0x2
  207360:	96b2                	add	a3,a3,a2
  207362:	4294                	lw	a3,0(a3)
  207364:	00c6d69b          	srliw	a3,a3,0xc
  207368:	8abd                	andi	a3,a3,15
  20736a:	0ff6f613          	andi	a2,a3,255
  20736e:	fec46683          	lwu	a3,-20(s0)
  207372:	068e                	slli	a3,a3,0x3
  207374:	97b6                	add	a5,a5,a3
  207376:	078a                	slli	a5,a5,0x2
  207378:	97ba                	add	a5,a5,a4
  20737a:	8732                	mv	a4,a2
  20737c:	8b3d                	andi	a4,a4,15
  20737e:	00c7171b          	slliw	a4,a4,0xc
  207382:	4390                	lw	a2,0(a5)
  207384:	76c5                	lui	a3,0xffff1
  207386:	16fd                	addi	a3,a3,-1
  207388:	8ef1                	and	a3,a3,a2
  20738a:	8f55                	or	a4,a4,a3
  20738c:	c398                	sw	a4,0(a5)
  20738e:	a409                	j	207590 <SelectiveGetFromNandWriteList+0x354>
  207390:	002107b7          	lui	a5,0x210
  207394:	0b07b703          	ld	a4,176(a5) # 2100b0 <dieStateTablePtr>
  207398:	fe846783          	lwu	a5,-24(s0)
  20739c:	fec46683          	lwu	a3,-20(s0)
  2073a0:	068e                	slli	a3,a3,0x3
  2073a2:	97b6                	add	a5,a5,a3
  2073a4:	078a                	slli	a5,a5,0x2
  2073a6:	97ba                	add	a5,a5,a4
  2073a8:	439c                	lw	a5,0(a5)
  2073aa:	0107d79b          	srliw	a5,a5,0x10
  2073ae:	8bbd                	andi	a5,a5,15
  2073b0:	0ff7f793          	andi	a5,a5,255
  2073b4:	873e                	mv	a4,a5
  2073b6:	47bd                	li	a5,15
  2073b8:	0af71e63          	bne	a4,a5,207474 <SelectiveGetFromNandWriteList+0x238>
  2073bc:	002107b7          	lui	a5,0x210
  2073c0:	0b07b703          	ld	a4,176(a5) # 2100b0 <dieStateTablePtr>
  2073c4:	fe846783          	lwu	a5,-24(s0)
  2073c8:	fec46683          	lwu	a3,-20(s0)
  2073cc:	068e                	slli	a3,a3,0x3
  2073ce:	97b6                	add	a5,a5,a3
  2073d0:	078a                	slli	a5,a5,0x2
  2073d2:	97ba                	add	a5,a5,a4
  2073d4:	439c                	lw	a5,0(a5)
  2073d6:	00c7d79b          	srliw	a5,a5,0xc
  2073da:	8bbd                	andi	a5,a5,15
  2073dc:	0ff7f793          	andi	a5,a5,255
  2073e0:	873e                	mv	a4,a5
  2073e2:	47bd                	li	a5,15
  2073e4:	08f70863          	beq	a4,a5,207474 <SelectiveGetFromNandWriteList+0x238>
  2073e8:	002107b7          	lui	a5,0x210
  2073ec:	0b07b703          	ld	a4,176(a5) # 2100b0 <dieStateTablePtr>
  2073f0:	002107b7          	lui	a5,0x210
  2073f4:	0b07b683          	ld	a3,176(a5) # 2100b0 <dieStateTablePtr>
  2073f8:	fe846783          	lwu	a5,-24(s0)
  2073fc:	fec46603          	lwu	a2,-20(s0)
  207400:	060e                	slli	a2,a2,0x3
  207402:	97b2                	add	a5,a5,a2
  207404:	078a                	slli	a5,a5,0x2
  207406:	97b6                	add	a5,a5,a3
  207408:	439c                	lw	a5,0(a5)
  20740a:	00c7d79b          	srliw	a5,a5,0xc
  20740e:	8bbd                	andi	a5,a5,15
  207410:	0ff7f793          	andi	a5,a5,255
  207414:	2781                	sext.w	a5,a5
  207416:	fec46683          	lwu	a3,-20(s0)
  20741a:	068e                	slli	a3,a3,0x3
  20741c:	97b6                	add	a5,a5,a3
  20741e:	078a                	slli	a5,a5,0x2
  207420:	97ba                	add	a5,a5,a4
  207422:	4394                	lw	a3,0(a5)
  207424:	000f0737          	lui	a4,0xf0
  207428:	8f55                	or	a4,a4,a3
  20742a:	c398                	sw	a4,0(a5)
  20742c:	002107b7          	lui	a5,0x210
  207430:	0b07b703          	ld	a4,176(a5) # 2100b0 <dieStateTablePtr>
  207434:	002107b7          	lui	a5,0x210
  207438:	0987b683          	ld	a3,152(a5) # 210098 <wayPriorityTablePtr>
  20743c:	fe846783          	lwu	a5,-24(s0)
  207440:	fec46603          	lwu	a2,-20(s0)
  207444:	060e                	slli	a2,a2,0x3
  207446:	97b2                	add	a5,a5,a2
  207448:	078a                	slli	a5,a5,0x2
  20744a:	97ba                	add	a5,a5,a4
  20744c:	439c                	lw	a5,0(a5)
  20744e:	00c7d79b          	srliw	a5,a5,0xc
  207452:	8bbd                	andi	a5,a5,15
  207454:	0ff7f713          	andi	a4,a5,255
  207458:	fec46783          	lwu	a5,-20(s0)
  20745c:	078e                	slli	a5,a5,0x3
  20745e:	97b6                	add	a5,a5,a3
  207460:	01c7171b          	slliw	a4,a4,0x1c
  207464:	4390                	lw	a2,0(a5)
  207466:	100006b7          	lui	a3,0x10000
  20746a:	16fd                	addi	a3,a3,-1
  20746c:	8ef1                	and	a3,a3,a2
  20746e:	8f55                	or	a4,a4,a3
  207470:	c398                	sw	a4,0(a5)
  207472:	aa39                	j	207590 <SelectiveGetFromNandWriteList+0x354>
  207474:	002107b7          	lui	a5,0x210
  207478:	0b07b703          	ld	a4,176(a5) # 2100b0 <dieStateTablePtr>
  20747c:	fe846783          	lwu	a5,-24(s0)
  207480:	fec46683          	lwu	a3,-20(s0)
  207484:	068e                	slli	a3,a3,0x3
  207486:	97b6                	add	a5,a5,a3
  207488:	078a                	slli	a5,a5,0x2
  20748a:	97ba                	add	a5,a5,a4
  20748c:	439c                	lw	a5,0(a5)
  20748e:	0107d79b          	srliw	a5,a5,0x10
  207492:	8bbd                	andi	a5,a5,15
  207494:	0ff7f793          	andi	a5,a5,255
  207498:	873e                	mv	a4,a5
  20749a:	47bd                	li	a5,15
  20749c:	0af70f63          	beq	a4,a5,20755a <SelectiveGetFromNandWriteList+0x31e>
  2074a0:	002107b7          	lui	a5,0x210
  2074a4:	0b07b703          	ld	a4,176(a5) # 2100b0 <dieStateTablePtr>
  2074a8:	fe846783          	lwu	a5,-24(s0)
  2074ac:	fec46683          	lwu	a3,-20(s0)
  2074b0:	068e                	slli	a3,a3,0x3
  2074b2:	97b6                	add	a5,a5,a3
  2074b4:	078a                	slli	a5,a5,0x2
  2074b6:	97ba                	add	a5,a5,a4
  2074b8:	439c                	lw	a5,0(a5)
  2074ba:	00c7d79b          	srliw	a5,a5,0xc
  2074be:	8bbd                	andi	a5,a5,15
  2074c0:	0ff7f793          	andi	a5,a5,255
  2074c4:	873e                	mv	a4,a5
  2074c6:	47bd                	li	a5,15
  2074c8:	08f71963          	bne	a4,a5,20755a <SelectiveGetFromNandWriteList+0x31e>
  2074cc:	002107b7          	lui	a5,0x210
  2074d0:	0b07b703          	ld	a4,176(a5) # 2100b0 <dieStateTablePtr>
  2074d4:	002107b7          	lui	a5,0x210
  2074d8:	0b07b683          	ld	a3,176(a5) # 2100b0 <dieStateTablePtr>
  2074dc:	fe846783          	lwu	a5,-24(s0)
  2074e0:	fec46603          	lwu	a2,-20(s0)
  2074e4:	060e                	slli	a2,a2,0x3
  2074e6:	97b2                	add	a5,a5,a2
  2074e8:	078a                	slli	a5,a5,0x2
  2074ea:	97b6                	add	a5,a5,a3
  2074ec:	439c                	lw	a5,0(a5)
  2074ee:	0107d79b          	srliw	a5,a5,0x10
  2074f2:	8bbd                	andi	a5,a5,15
  2074f4:	0ff7f793          	andi	a5,a5,255
  2074f8:	2781                	sext.w	a5,a5
  2074fa:	fec46683          	lwu	a3,-20(s0)
  2074fe:	068e                	slli	a3,a3,0x3
  207500:	97b6                	add	a5,a5,a3
  207502:	078a                	slli	a5,a5,0x2
  207504:	97ba                	add	a5,a5,a4
  207506:	4394                	lw	a3,0(a5)
  207508:	673d                	lui	a4,0xf
  20750a:	8f55                	or	a4,a4,a3
  20750c:	c398                	sw	a4,0(a5)
  20750e:	002107b7          	lui	a5,0x210
  207512:	0b07b683          	ld	a3,176(a5) # 2100b0 <dieStateTablePtr>
  207516:	002107b7          	lui	a5,0x210
  20751a:	0987b703          	ld	a4,152(a5) # 210098 <wayPriorityTablePtr>
  20751e:	fe846783          	lwu	a5,-24(s0)
  207522:	fec46603          	lwu	a2,-20(s0)
  207526:	060e                	slli	a2,a2,0x3
  207528:	97b2                	add	a5,a5,a2
  20752a:	078a                	slli	a5,a5,0x2
  20752c:	97b6                	add	a5,a5,a3
  20752e:	439c                	lw	a5,0(a5)
  207530:	0107d79b          	srliw	a5,a5,0x10
  207534:	8bbd                	andi	a5,a5,15
  207536:	0ff7f693          	andi	a3,a5,255
  20753a:	fec46783          	lwu	a5,-20(s0)
  20753e:	078e                	slli	a5,a5,0x3
  207540:	97ba                	add	a5,a5,a4
  207542:	8736                	mv	a4,a3
  207544:	8b3d                	andi	a4,a4,15
  207546:	0187171b          	slliw	a4,a4,0x18
  20754a:	4390                	lw	a2,0(a5)
  20754c:	f10006b7          	lui	a3,0xf1000
  207550:	16fd                	addi	a3,a3,-1
  207552:	8ef1                	and	a3,a3,a2
  207554:	8f55                	or	a4,a4,a3
  207556:	c398                	sw	a4,0(a5)
  207558:	a825                	j	207590 <SelectiveGetFromNandWriteList+0x354>
  20755a:	002107b7          	lui	a5,0x210
  20755e:	0987b703          	ld	a4,152(a5) # 210098 <wayPriorityTablePtr>
  207562:	fec46783          	lwu	a5,-20(s0)
  207566:	078e                	slli	a5,a5,0x3
  207568:	97ba                	add	a5,a5,a4
  20756a:	4394                	lw	a3,0(a5)
  20756c:	0f000737          	lui	a4,0xf000
  207570:	8f55                	or	a4,a4,a3
  207572:	c398                	sw	a4,0(a5)
  207574:	002107b7          	lui	a5,0x210
  207578:	0987b703          	ld	a4,152(a5) # 210098 <wayPriorityTablePtr>
  20757c:	fec46783          	lwu	a5,-20(s0)
  207580:	078e                	slli	a5,a5,0x3
  207582:	97ba                	add	a5,a5,a4
  207584:	4394                	lw	a3,0(a5)
  207586:	f0000737          	lui	a4,0xf0000
  20758a:	8f55                	or	a4,a4,a3
  20758c:	c398                	sw	a4,0(a5)
  20758e:	0001                	nop
  207590:	0001                	nop
  207592:	6462                	ld	s0,24(sp)
  207594:	6105                	addi	sp,sp,32
  207596:	8082                	ret

0000000000207598 <PutToNandReadTransferList>:
  207598:	1101                	addi	sp,sp,-32
  20759a:	ec22                	sd	s0,24(sp)
  20759c:	1000                	addi	s0,sp,32
  20759e:	87aa                	mv	a5,a0
  2075a0:	872e                	mv	a4,a1
  2075a2:	fef42623          	sw	a5,-20(s0)
  2075a6:	87ba                	mv	a5,a4
  2075a8:	fef42423          	sw	a5,-24(s0)
  2075ac:	002107b7          	lui	a5,0x210
  2075b0:	0987b703          	ld	a4,152(a5) # 210098 <wayPriorityTablePtr>
  2075b4:	fec46783          	lwu	a5,-20(s0)
  2075b8:	078e                	slli	a5,a5,0x3
  2075ba:	97ba                	add	a5,a5,a4
  2075bc:	43dc                	lw	a5,4(a5)
  2075be:	0047d79b          	srliw	a5,a5,0x4
  2075c2:	8bbd                	andi	a5,a5,15
  2075c4:	0ff7f793          	andi	a5,a5,255
  2075c8:	873e                	mv	a4,a5
  2075ca:	47bd                	li	a5,15
  2075cc:	0ef70763          	beq	a4,a5,2076ba <PutToNandReadTransferList+0x122>
  2075d0:	002107b7          	lui	a5,0x210
  2075d4:	0987b683          	ld	a3,152(a5) # 210098 <wayPriorityTablePtr>
  2075d8:	002107b7          	lui	a5,0x210
  2075dc:	0b07b703          	ld	a4,176(a5) # 2100b0 <dieStateTablePtr>
  2075e0:	fec46783          	lwu	a5,-20(s0)
  2075e4:	078e                	slli	a5,a5,0x3
  2075e6:	97b6                	add	a5,a5,a3
  2075e8:	43dc                	lw	a5,4(a5)
  2075ea:	0047d79b          	srliw	a5,a5,0x4
  2075ee:	8bbd                	andi	a5,a5,15
  2075f0:	0ff7f613          	andi	a2,a5,255
  2075f4:	fe846783          	lwu	a5,-24(s0)
  2075f8:	fec46683          	lwu	a3,-20(s0)
  2075fc:	068e                	slli	a3,a3,0x3
  2075fe:	97b6                	add	a5,a5,a3
  207600:	078a                	slli	a5,a5,0x2
  207602:	97ba                	add	a5,a5,a4
  207604:	8732                	mv	a4,a2
  207606:	8b3d                	andi	a4,a4,15
  207608:	00c7171b          	slliw	a4,a4,0xc
  20760c:	4390                	lw	a2,0(a5)
  20760e:	76c5                	lui	a3,0xffff1
  207610:	16fd                	addi	a3,a3,-1
  207612:	8ef1                	and	a3,a3,a2
  207614:	8f55                	or	a4,a4,a3
  207616:	c398                	sw	a4,0(a5)
  207618:	002107b7          	lui	a5,0x210
  20761c:	0b07b703          	ld	a4,176(a5) # 2100b0 <dieStateTablePtr>
  207620:	fe846783          	lwu	a5,-24(s0)
  207624:	fec46683          	lwu	a3,-20(s0)
  207628:	068e                	slli	a3,a3,0x3
  20762a:	97b6                	add	a5,a5,a3
  20762c:	078a                	slli	a5,a5,0x2
  20762e:	97ba                	add	a5,a5,a4
  207630:	4394                	lw	a3,0(a5)
  207632:	000f0737          	lui	a4,0xf0
  207636:	8f55                	or	a4,a4,a3
  207638:	c398                	sw	a4,0(a5)
  20763a:	002107b7          	lui	a5,0x210
  20763e:	0b07b703          	ld	a4,176(a5) # 2100b0 <dieStateTablePtr>
  207642:	002107b7          	lui	a5,0x210
  207646:	0987b683          	ld	a3,152(a5) # 210098 <wayPriorityTablePtr>
  20764a:	fec46783          	lwu	a5,-20(s0)
  20764e:	078e                	slli	a5,a5,0x3
  207650:	97b6                	add	a5,a5,a3
  207652:	43dc                	lw	a5,4(a5)
  207654:	0047d79b          	srliw	a5,a5,0x4
  207658:	8bbd                	andi	a5,a5,15
  20765a:	0ff7f793          	andi	a5,a5,255
  20765e:	2781                	sext.w	a5,a5
  207660:	fe842683          	lw	a3,-24(s0)
  207664:	8abd                	andi	a3,a3,15
  207666:	0ff6f613          	andi	a2,a3,255
  20766a:	fec46683          	lwu	a3,-20(s0)
  20766e:	068e                	slli	a3,a3,0x3
  207670:	97b6                	add	a5,a5,a3
  207672:	078a                	slli	a5,a5,0x2
  207674:	97ba                	add	a5,a5,a4
  207676:	8732                	mv	a4,a2
  207678:	8b3d                	andi	a4,a4,15
  20767a:	0107171b          	slliw	a4,a4,0x10
  20767e:	4390                	lw	a2,0(a5)
  207680:	fff106b7          	lui	a3,0xfff10
  207684:	16fd                	addi	a3,a3,-1
  207686:	8ef1                	and	a3,a3,a2
  207688:	8f55                	or	a4,a4,a3
  20768a:	c398                	sw	a4,0(a5)
  20768c:	002107b7          	lui	a5,0x210
  207690:	0987b703          	ld	a4,152(a5) # 210098 <wayPriorityTablePtr>
  207694:	fe842783          	lw	a5,-24(s0)
  207698:	8bbd                	andi	a5,a5,15
  20769a:	0ff7f693          	andi	a3,a5,255
  20769e:	fec46783          	lwu	a5,-20(s0)
  2076a2:	078e                	slli	a5,a5,0x3
  2076a4:	97ba                	add	a5,a5,a4
  2076a6:	8736                	mv	a4,a3
  2076a8:	8b3d                	andi	a4,a4,15
  2076aa:	0047171b          	slliw	a4,a4,0x4
  2076ae:	43d4                	lw	a3,4(a5)
  2076b0:	f0f6f693          	andi	a3,a3,-241
  2076b4:	8f55                	or	a4,a4,a3
  2076b6:	c3d8                	sw	a4,4(a5)
  2076b8:	a871                	j	207754 <PutToNandReadTransferList+0x1bc>
  2076ba:	002107b7          	lui	a5,0x210
  2076be:	0b07b703          	ld	a4,176(a5) # 2100b0 <dieStateTablePtr>
  2076c2:	fe846783          	lwu	a5,-24(s0)
  2076c6:	fec46683          	lwu	a3,-20(s0)
  2076ca:	068e                	slli	a3,a3,0x3
  2076cc:	97b6                	add	a5,a5,a3
  2076ce:	078a                	slli	a5,a5,0x2
  2076d0:	97ba                	add	a5,a5,a4
  2076d2:	4394                	lw	a3,0(a5)
  2076d4:	673d                	lui	a4,0xf
  2076d6:	8f55                	or	a4,a4,a3
  2076d8:	c398                	sw	a4,0(a5)
  2076da:	002107b7          	lui	a5,0x210
  2076de:	0b07b703          	ld	a4,176(a5) # 2100b0 <dieStateTablePtr>
  2076e2:	fe846783          	lwu	a5,-24(s0)
  2076e6:	fec46683          	lwu	a3,-20(s0)
  2076ea:	068e                	slli	a3,a3,0x3
  2076ec:	97b6                	add	a5,a5,a3
  2076ee:	078a                	slli	a5,a5,0x2
  2076f0:	97ba                	add	a5,a5,a4
  2076f2:	4394                	lw	a3,0(a5)
  2076f4:	000f0737          	lui	a4,0xf0
  2076f8:	8f55                	or	a4,a4,a3
  2076fa:	c398                	sw	a4,0(a5)
  2076fc:	002107b7          	lui	a5,0x210
  207700:	0987b703          	ld	a4,152(a5) # 210098 <wayPriorityTablePtr>
  207704:	fe842783          	lw	a5,-24(s0)
  207708:	8bbd                	andi	a5,a5,15
  20770a:	0ff7f693          	andi	a3,a5,255
  20770e:	fec46783          	lwu	a5,-20(s0)
  207712:	078e                	slli	a5,a5,0x3
  207714:	97ba                	add	a5,a5,a4
  207716:	8736                	mv	a4,a3
  207718:	00f77613          	andi	a2,a4,15
  20771c:	43d8                	lw	a4,4(a5)
  20771e:	9b41                	andi	a4,a4,-16
  207720:	86ba                	mv	a3,a4
  207722:	8732                	mv	a4,a2
  207724:	8f55                	or	a4,a4,a3
  207726:	c3d8                	sw	a4,4(a5)
  207728:	002107b7          	lui	a5,0x210
  20772c:	0987b703          	ld	a4,152(a5) # 210098 <wayPriorityTablePtr>
  207730:	fe842783          	lw	a5,-24(s0)
  207734:	8bbd                	andi	a5,a5,15
  207736:	0ff7f693          	andi	a3,a5,255
  20773a:	fec46783          	lwu	a5,-20(s0)
  20773e:	078e                	slli	a5,a5,0x3
  207740:	97ba                	add	a5,a5,a4
  207742:	8736                	mv	a4,a3
  207744:	8b3d                	andi	a4,a4,15
  207746:	0047171b          	slliw	a4,a4,0x4
  20774a:	43d4                	lw	a3,4(a5)
  20774c:	f0f6f693          	andi	a3,a3,-241
  207750:	8f55                	or	a4,a4,a3
  207752:	c3d8                	sw	a4,4(a5)
  207754:	0001                	nop
  207756:	6462                	ld	s0,24(sp)
  207758:	6105                	addi	sp,sp,32
  20775a:	8082                	ret

000000000020775c <SelectiveGetFromNandReadTransferList>:
  20775c:	1101                	addi	sp,sp,-32
  20775e:	ec22                	sd	s0,24(sp)
  207760:	1000                	addi	s0,sp,32
  207762:	87aa                	mv	a5,a0
  207764:	872e                	mv	a4,a1
  207766:	fef42623          	sw	a5,-20(s0)
  20776a:	87ba                	mv	a5,a4
  20776c:	fef42423          	sw	a5,-24(s0)
  207770:	002107b7          	lui	a5,0x210
  207774:	0b07b703          	ld	a4,176(a5) # 2100b0 <dieStateTablePtr>
  207778:	fe846783          	lwu	a5,-24(s0)
  20777c:	fec46683          	lwu	a3,-20(s0)
  207780:	068e                	slli	a3,a3,0x3
  207782:	97b6                	add	a5,a5,a3
  207784:	078a                	slli	a5,a5,0x2
  207786:	97ba                	add	a5,a5,a4
  207788:	439c                	lw	a5,0(a5)
  20778a:	0107d79b          	srliw	a5,a5,0x10
  20778e:	8bbd                	andi	a5,a5,15
  207790:	0ff7f793          	andi	a5,a5,255
  207794:	873e                	mv	a4,a5
  207796:	47bd                	li	a5,15
  207798:	10f70c63          	beq	a4,a5,2078b0 <SelectiveGetFromNandReadTransferList+0x154>
  20779c:	002107b7          	lui	a5,0x210
  2077a0:	0b07b703          	ld	a4,176(a5) # 2100b0 <dieStateTablePtr>
  2077a4:	fe846783          	lwu	a5,-24(s0)
  2077a8:	fec46683          	lwu	a3,-20(s0)
  2077ac:	068e                	slli	a3,a3,0x3
  2077ae:	97b6                	add	a5,a5,a3
  2077b0:	078a                	slli	a5,a5,0x2
  2077b2:	97ba                	add	a5,a5,a4
  2077b4:	439c                	lw	a5,0(a5)
  2077b6:	00c7d79b          	srliw	a5,a5,0xc
  2077ba:	8bbd                	andi	a5,a5,15
  2077bc:	0ff7f793          	andi	a5,a5,255
  2077c0:	873e                	mv	a4,a5
  2077c2:	47bd                	li	a5,15
  2077c4:	0ef70663          	beq	a4,a5,2078b0 <SelectiveGetFromNandReadTransferList+0x154>
  2077c8:	002107b7          	lui	a5,0x210
  2077cc:	0b07b603          	ld	a2,176(a5) # 2100b0 <dieStateTablePtr>
  2077d0:	002107b7          	lui	a5,0x210
  2077d4:	0b07b703          	ld	a4,176(a5) # 2100b0 <dieStateTablePtr>
  2077d8:	002107b7          	lui	a5,0x210
  2077dc:	0b07b683          	ld	a3,176(a5) # 2100b0 <dieStateTablePtr>
  2077e0:	fe846783          	lwu	a5,-24(s0)
  2077e4:	fec46583          	lwu	a1,-20(s0)
  2077e8:	058e                	slli	a1,a1,0x3
  2077ea:	97ae                	add	a5,a5,a1
  2077ec:	078a                	slli	a5,a5,0x2
  2077ee:	97b6                	add	a5,a5,a3
  2077f0:	439c                	lw	a5,0(a5)
  2077f2:	00c7d79b          	srliw	a5,a5,0xc
  2077f6:	8bbd                	andi	a5,a5,15
  2077f8:	0ff7f793          	andi	a5,a5,255
  2077fc:	2781                	sext.w	a5,a5
  2077fe:	fe846683          	lwu	a3,-24(s0)
  207802:	fec46583          	lwu	a1,-20(s0)
  207806:	058e                	slli	a1,a1,0x3
  207808:	96ae                	add	a3,a3,a1
  20780a:	068a                	slli	a3,a3,0x2
  20780c:	96b2                	add	a3,a3,a2
  20780e:	4294                	lw	a3,0(a3)
  207810:	0106d69b          	srliw	a3,a3,0x10
  207814:	8abd                	andi	a3,a3,15
  207816:	0ff6f613          	andi	a2,a3,255
  20781a:	fec46683          	lwu	a3,-20(s0)
  20781e:	068e                	slli	a3,a3,0x3
  207820:	97b6                	add	a5,a5,a3
  207822:	078a                	slli	a5,a5,0x2
  207824:	97ba                	add	a5,a5,a4
  207826:	8732                	mv	a4,a2
  207828:	8b3d                	andi	a4,a4,15
  20782a:	0107171b          	slliw	a4,a4,0x10
  20782e:	4390                	lw	a2,0(a5)
  207830:	fff106b7          	lui	a3,0xfff10
  207834:	16fd                	addi	a3,a3,-1
  207836:	8ef1                	and	a3,a3,a2
  207838:	8f55                	or	a4,a4,a3
  20783a:	c398                	sw	a4,0(a5)
  20783c:	002107b7          	lui	a5,0x210
  207840:	0b07b603          	ld	a2,176(a5) # 2100b0 <dieStateTablePtr>
  207844:	002107b7          	lui	a5,0x210
  207848:	0b07b703          	ld	a4,176(a5) # 2100b0 <dieStateTablePtr>
  20784c:	002107b7          	lui	a5,0x210
  207850:	0b07b683          	ld	a3,176(a5) # 2100b0 <dieStateTablePtr>
  207854:	fe846783          	lwu	a5,-24(s0)
  207858:	fec46583          	lwu	a1,-20(s0)
  20785c:	058e                	slli	a1,a1,0x3
  20785e:	97ae                	add	a5,a5,a1
  207860:	078a                	slli	a5,a5,0x2
  207862:	97b6                	add	a5,a5,a3
  207864:	439c                	lw	a5,0(a5)
  207866:	0107d79b          	srliw	a5,a5,0x10
  20786a:	8bbd                	andi	a5,a5,15
  20786c:	0ff7f793          	andi	a5,a5,255
  207870:	2781                	sext.w	a5,a5
  207872:	fe846683          	lwu	a3,-24(s0)
  207876:	fec46583          	lwu	a1,-20(s0)
  20787a:	058e                	slli	a1,a1,0x3
  20787c:	96ae                	add	a3,a3,a1
  20787e:	068a                	slli	a3,a3,0x2
  207880:	96b2                	add	a3,a3,a2
  207882:	4294                	lw	a3,0(a3)
  207884:	00c6d69b          	srliw	a3,a3,0xc
  207888:	8abd                	andi	a3,a3,15
  20788a:	0ff6f613          	andi	a2,a3,255
  20788e:	fec46683          	lwu	a3,-20(s0)
  207892:	068e                	slli	a3,a3,0x3
  207894:	97b6                	add	a5,a5,a3
  207896:	078a                	slli	a5,a5,0x2
  207898:	97ba                	add	a5,a5,a4
  20789a:	8732                	mv	a4,a2
  20789c:	8b3d                	andi	a4,a4,15
  20789e:	00c7171b          	slliw	a4,a4,0xc
  2078a2:	4390                	lw	a2,0(a5)
  2078a4:	76c5                	lui	a3,0xffff1
  2078a6:	16fd                	addi	a3,a3,-1
  2078a8:	8ef1                	and	a3,a3,a2
  2078aa:	8f55                	or	a4,a4,a3
  2078ac:	c398                	sw	a4,0(a5)
  2078ae:	aaed                	j	207aa8 <SelectiveGetFromNandReadTransferList+0x34c>
  2078b0:	002107b7          	lui	a5,0x210
  2078b4:	0b07b703          	ld	a4,176(a5) # 2100b0 <dieStateTablePtr>
  2078b8:	fe846783          	lwu	a5,-24(s0)
  2078bc:	fec46683          	lwu	a3,-20(s0)
  2078c0:	068e                	slli	a3,a3,0x3
  2078c2:	97b6                	add	a5,a5,a3
  2078c4:	078a                	slli	a5,a5,0x2
  2078c6:	97ba                	add	a5,a5,a4
  2078c8:	439c                	lw	a5,0(a5)
  2078ca:	0107d79b          	srliw	a5,a5,0x10
  2078ce:	8bbd                	andi	a5,a5,15
  2078d0:	0ff7f793          	andi	a5,a5,255
  2078d4:	873e                	mv	a4,a5
  2078d6:	47bd                	li	a5,15
  2078d8:	0af71e63          	bne	a4,a5,207994 <SelectiveGetFromNandReadTransferList+0x238>
  2078dc:	002107b7          	lui	a5,0x210
  2078e0:	0b07b703          	ld	a4,176(a5) # 2100b0 <dieStateTablePtr>
  2078e4:	fe846783          	lwu	a5,-24(s0)
  2078e8:	fec46683          	lwu	a3,-20(s0)
  2078ec:	068e                	slli	a3,a3,0x3
  2078ee:	97b6                	add	a5,a5,a3
  2078f0:	078a                	slli	a5,a5,0x2
  2078f2:	97ba                	add	a5,a5,a4
  2078f4:	439c                	lw	a5,0(a5)
  2078f6:	00c7d79b          	srliw	a5,a5,0xc
  2078fa:	8bbd                	andi	a5,a5,15
  2078fc:	0ff7f793          	andi	a5,a5,255
  207900:	873e                	mv	a4,a5
  207902:	47bd                	li	a5,15
  207904:	08f70863          	beq	a4,a5,207994 <SelectiveGetFromNandReadTransferList+0x238>
  207908:	002107b7          	lui	a5,0x210
  20790c:	0b07b703          	ld	a4,176(a5) # 2100b0 <dieStateTablePtr>
  207910:	002107b7          	lui	a5,0x210
  207914:	0b07b683          	ld	a3,176(a5) # 2100b0 <dieStateTablePtr>
  207918:	fe846783          	lwu	a5,-24(s0)
  20791c:	fec46603          	lwu	a2,-20(s0)
  207920:	060e                	slli	a2,a2,0x3
  207922:	97b2                	add	a5,a5,a2
  207924:	078a                	slli	a5,a5,0x2
  207926:	97b6                	add	a5,a5,a3
  207928:	439c                	lw	a5,0(a5)
  20792a:	00c7d79b          	srliw	a5,a5,0xc
  20792e:	8bbd                	andi	a5,a5,15
  207930:	0ff7f793          	andi	a5,a5,255
  207934:	2781                	sext.w	a5,a5
  207936:	fec46683          	lwu	a3,-20(s0)
  20793a:	068e                	slli	a3,a3,0x3
  20793c:	97b6                	add	a5,a5,a3
  20793e:	078a                	slli	a5,a5,0x2
  207940:	97ba                	add	a5,a5,a4
  207942:	4394                	lw	a3,0(a5)
  207944:	000f0737          	lui	a4,0xf0
  207948:	8f55                	or	a4,a4,a3
  20794a:	c398                	sw	a4,0(a5)
  20794c:	002107b7          	lui	a5,0x210
  207950:	0b07b683          	ld	a3,176(a5) # 2100b0 <dieStateTablePtr>
  207954:	002107b7          	lui	a5,0x210
  207958:	0987b703          	ld	a4,152(a5) # 210098 <wayPriorityTablePtr>
  20795c:	fe846783          	lwu	a5,-24(s0)
  207960:	fec46603          	lwu	a2,-20(s0)
  207964:	060e                	slli	a2,a2,0x3
  207966:	97b2                	add	a5,a5,a2
  207968:	078a                	slli	a5,a5,0x2
  20796a:	97b6                	add	a5,a5,a3
  20796c:	439c                	lw	a5,0(a5)
  20796e:	00c7d79b          	srliw	a5,a5,0xc
  207972:	8bbd                	andi	a5,a5,15
  207974:	0ff7f693          	andi	a3,a5,255
  207978:	fec46783          	lwu	a5,-20(s0)
  20797c:	078e                	slli	a5,a5,0x3
  20797e:	97ba                	add	a5,a5,a4
  207980:	8736                	mv	a4,a3
  207982:	8b3d                	andi	a4,a4,15
  207984:	0047171b          	slliw	a4,a4,0x4
  207988:	43d4                	lw	a3,4(a5)
  20798a:	f0f6f693          	andi	a3,a3,-241
  20798e:	8f55                	or	a4,a4,a3
  207990:	c3d8                	sw	a4,4(a5)
  207992:	aa19                	j	207aa8 <SelectiveGetFromNandReadTransferList+0x34c>
  207994:	002107b7          	lui	a5,0x210
  207998:	0b07b703          	ld	a4,176(a5) # 2100b0 <dieStateTablePtr>
  20799c:	fe846783          	lwu	a5,-24(s0)
  2079a0:	fec46683          	lwu	a3,-20(s0)
  2079a4:	068e                	slli	a3,a3,0x3
  2079a6:	97b6                	add	a5,a5,a3
  2079a8:	078a                	slli	a5,a5,0x2
  2079aa:	97ba                	add	a5,a5,a4
  2079ac:	439c                	lw	a5,0(a5)
  2079ae:	0107d79b          	srliw	a5,a5,0x10
  2079b2:	8bbd                	andi	a5,a5,15
  2079b4:	0ff7f793          	andi	a5,a5,255
  2079b8:	873e                	mv	a4,a5
  2079ba:	47bd                	li	a5,15
  2079bc:	0af70d63          	beq	a4,a5,207a76 <SelectiveGetFromNandReadTransferList+0x31a>
  2079c0:	002107b7          	lui	a5,0x210
  2079c4:	0b07b703          	ld	a4,176(a5) # 2100b0 <dieStateTablePtr>
  2079c8:	fe846783          	lwu	a5,-24(s0)
  2079cc:	fec46683          	lwu	a3,-20(s0)
  2079d0:	068e                	slli	a3,a3,0x3
  2079d2:	97b6                	add	a5,a5,a3
  2079d4:	078a                	slli	a5,a5,0x2
  2079d6:	97ba                	add	a5,a5,a4
  2079d8:	439c                	lw	a5,0(a5)
  2079da:	00c7d79b          	srliw	a5,a5,0xc
  2079de:	8bbd                	andi	a5,a5,15
  2079e0:	0ff7f793          	andi	a5,a5,255
  2079e4:	873e                	mv	a4,a5
  2079e6:	47bd                	li	a5,15
  2079e8:	08f71763          	bne	a4,a5,207a76 <SelectiveGetFromNandReadTransferList+0x31a>
  2079ec:	002107b7          	lui	a5,0x210
  2079f0:	0b07b703          	ld	a4,176(a5) # 2100b0 <dieStateTablePtr>
  2079f4:	002107b7          	lui	a5,0x210
  2079f8:	0b07b683          	ld	a3,176(a5) # 2100b0 <dieStateTablePtr>
  2079fc:	fe846783          	lwu	a5,-24(s0)
  207a00:	fec46603          	lwu	a2,-20(s0)
  207a04:	060e                	slli	a2,a2,0x3
  207a06:	97b2                	add	a5,a5,a2
  207a08:	078a                	slli	a5,a5,0x2
  207a0a:	97b6                	add	a5,a5,a3
  207a0c:	439c                	lw	a5,0(a5)
  207a0e:	0107d79b          	srliw	a5,a5,0x10
  207a12:	8bbd                	andi	a5,a5,15
  207a14:	0ff7f793          	andi	a5,a5,255
  207a18:	2781                	sext.w	a5,a5
  207a1a:	fec46683          	lwu	a3,-20(s0)
  207a1e:	068e                	slli	a3,a3,0x3
  207a20:	97b6                	add	a5,a5,a3
  207a22:	078a                	slli	a5,a5,0x2
  207a24:	97ba                	add	a5,a5,a4
  207a26:	4394                	lw	a3,0(a5)
  207a28:	673d                	lui	a4,0xf
  207a2a:	8f55                	or	a4,a4,a3
  207a2c:	c398                	sw	a4,0(a5)
  207a2e:	002107b7          	lui	a5,0x210
  207a32:	0b07b683          	ld	a3,176(a5) # 2100b0 <dieStateTablePtr>
  207a36:	002107b7          	lui	a5,0x210
  207a3a:	0987b703          	ld	a4,152(a5) # 210098 <wayPriorityTablePtr>
  207a3e:	fe846783          	lwu	a5,-24(s0)
  207a42:	fec46603          	lwu	a2,-20(s0)
  207a46:	060e                	slli	a2,a2,0x3
  207a48:	97b2                	add	a5,a5,a2
  207a4a:	078a                	slli	a5,a5,0x2
  207a4c:	97b6                	add	a5,a5,a3
  207a4e:	439c                	lw	a5,0(a5)
  207a50:	0107d79b          	srliw	a5,a5,0x10
  207a54:	8bbd                	andi	a5,a5,15
  207a56:	0ff7f693          	andi	a3,a5,255
  207a5a:	fec46783          	lwu	a5,-20(s0)
  207a5e:	078e                	slli	a5,a5,0x3
  207a60:	97ba                	add	a5,a5,a4
  207a62:	8736                	mv	a4,a3
  207a64:	00f77613          	andi	a2,a4,15
  207a68:	43d8                	lw	a4,4(a5)
  207a6a:	9b41                	andi	a4,a4,-16
  207a6c:	86ba                	mv	a3,a4
  207a6e:	8732                	mv	a4,a2
  207a70:	8f55                	or	a4,a4,a3
  207a72:	c3d8                	sw	a4,4(a5)
  207a74:	a815                	j	207aa8 <SelectiveGetFromNandReadTransferList+0x34c>
  207a76:	002107b7          	lui	a5,0x210
  207a7a:	0987b703          	ld	a4,152(a5) # 210098 <wayPriorityTablePtr>
  207a7e:	fec46783          	lwu	a5,-20(s0)
  207a82:	078e                	slli	a5,a5,0x3
  207a84:	97ba                	add	a5,a5,a4
  207a86:	43d8                	lw	a4,4(a5)
  207a88:	00f76713          	ori	a4,a4,15
  207a8c:	c3d8                	sw	a4,4(a5)
  207a8e:	002107b7          	lui	a5,0x210
  207a92:	0987b703          	ld	a4,152(a5) # 210098 <wayPriorityTablePtr>
  207a96:	fec46783          	lwu	a5,-20(s0)
  207a9a:	078e                	slli	a5,a5,0x3
  207a9c:	97ba                	add	a5,a5,a4
  207a9e:	43d8                	lw	a4,4(a5)
  207aa0:	0f076713          	ori	a4,a4,240
  207aa4:	c3d8                	sw	a4,4(a5)
  207aa6:	0001                	nop
  207aa8:	0001                	nop
  207aaa:	6462                	ld	s0,24(sp)
  207aac:	6105                	addi	sp,sp,32
  207aae:	8082                	ret

0000000000207ab0 <PutToNandEraseList>:
  207ab0:	1101                	addi	sp,sp,-32
  207ab2:	ec22                	sd	s0,24(sp)
  207ab4:	1000                	addi	s0,sp,32
  207ab6:	87aa                	mv	a5,a0
  207ab8:	872e                	mv	a4,a1
  207aba:	fef42623          	sw	a5,-20(s0)
  207abe:	87ba                	mv	a5,a4
  207ac0:	fef42423          	sw	a5,-24(s0)
  207ac4:	002107b7          	lui	a5,0x210
  207ac8:	0987b703          	ld	a4,152(a5) # 210098 <wayPriorityTablePtr>
  207acc:	fec46783          	lwu	a5,-20(s0)
  207ad0:	078e                	slli	a5,a5,0x3
  207ad2:	97ba                	add	a5,a5,a4
  207ad4:	43dc                	lw	a5,4(a5)
  207ad6:	00c7d79b          	srliw	a5,a5,0xc
  207ada:	8bbd                	andi	a5,a5,15
  207adc:	0ff7f793          	andi	a5,a5,255
  207ae0:	873e                	mv	a4,a5
  207ae2:	47bd                	li	a5,15
  207ae4:	0ef70863          	beq	a4,a5,207bd4 <PutToNandEraseList+0x124>
  207ae8:	002107b7          	lui	a5,0x210
  207aec:	0987b683          	ld	a3,152(a5) # 210098 <wayPriorityTablePtr>
  207af0:	002107b7          	lui	a5,0x210
  207af4:	0b07b703          	ld	a4,176(a5) # 2100b0 <dieStateTablePtr>
  207af8:	fec46783          	lwu	a5,-20(s0)
  207afc:	078e                	slli	a5,a5,0x3
  207afe:	97b6                	add	a5,a5,a3
  207b00:	43dc                	lw	a5,4(a5)
  207b02:	00c7d79b          	srliw	a5,a5,0xc
  207b06:	8bbd                	andi	a5,a5,15
  207b08:	0ff7f613          	andi	a2,a5,255
  207b0c:	fe846783          	lwu	a5,-24(s0)
  207b10:	fec46683          	lwu	a3,-20(s0)
  207b14:	068e                	slli	a3,a3,0x3
  207b16:	97b6                	add	a5,a5,a3
  207b18:	078a                	slli	a5,a5,0x2
  207b1a:	97ba                	add	a5,a5,a4
  207b1c:	8732                	mv	a4,a2
  207b1e:	8b3d                	andi	a4,a4,15
  207b20:	00c7171b          	slliw	a4,a4,0xc
  207b24:	4390                	lw	a2,0(a5)
  207b26:	76c5                	lui	a3,0xffff1
  207b28:	16fd                	addi	a3,a3,-1
  207b2a:	8ef1                	and	a3,a3,a2
  207b2c:	8f55                	or	a4,a4,a3
  207b2e:	c398                	sw	a4,0(a5)
  207b30:	002107b7          	lui	a5,0x210
  207b34:	0b07b703          	ld	a4,176(a5) # 2100b0 <dieStateTablePtr>
  207b38:	fe846783          	lwu	a5,-24(s0)
  207b3c:	fec46683          	lwu	a3,-20(s0)
  207b40:	068e                	slli	a3,a3,0x3
  207b42:	97b6                	add	a5,a5,a3
  207b44:	078a                	slli	a5,a5,0x2
  207b46:	97ba                	add	a5,a5,a4
  207b48:	4394                	lw	a3,0(a5)
  207b4a:	000f0737          	lui	a4,0xf0
  207b4e:	8f55                	or	a4,a4,a3
  207b50:	c398                	sw	a4,0(a5)
  207b52:	002107b7          	lui	a5,0x210
  207b56:	0b07b703          	ld	a4,176(a5) # 2100b0 <dieStateTablePtr>
  207b5a:	002107b7          	lui	a5,0x210
  207b5e:	0987b683          	ld	a3,152(a5) # 210098 <wayPriorityTablePtr>
  207b62:	fec46783          	lwu	a5,-20(s0)
  207b66:	078e                	slli	a5,a5,0x3
  207b68:	97b6                	add	a5,a5,a3
  207b6a:	43dc                	lw	a5,4(a5)
  207b6c:	00c7d79b          	srliw	a5,a5,0xc
  207b70:	8bbd                	andi	a5,a5,15
  207b72:	0ff7f793          	andi	a5,a5,255
  207b76:	2781                	sext.w	a5,a5
  207b78:	fe842683          	lw	a3,-24(s0)
  207b7c:	8abd                	andi	a3,a3,15
  207b7e:	0ff6f613          	andi	a2,a3,255
  207b82:	fec46683          	lwu	a3,-20(s0)
  207b86:	068e                	slli	a3,a3,0x3
  207b88:	97b6                	add	a5,a5,a3
  207b8a:	078a                	slli	a5,a5,0x2
  207b8c:	97ba                	add	a5,a5,a4
  207b8e:	8732                	mv	a4,a2
  207b90:	8b3d                	andi	a4,a4,15
  207b92:	0107171b          	slliw	a4,a4,0x10
  207b96:	4390                	lw	a2,0(a5)
  207b98:	fff106b7          	lui	a3,0xfff10
  207b9c:	16fd                	addi	a3,a3,-1
  207b9e:	8ef1                	and	a3,a3,a2
  207ba0:	8f55                	or	a4,a4,a3
  207ba2:	c398                	sw	a4,0(a5)
  207ba4:	002107b7          	lui	a5,0x210
  207ba8:	0987b703          	ld	a4,152(a5) # 210098 <wayPriorityTablePtr>
  207bac:	fe842783          	lw	a5,-24(s0)
  207bb0:	8bbd                	andi	a5,a5,15
  207bb2:	0ff7f693          	andi	a3,a5,255
  207bb6:	fec46783          	lwu	a5,-20(s0)
  207bba:	078e                	slli	a5,a5,0x3
  207bbc:	97ba                	add	a5,a5,a4
  207bbe:	8736                	mv	a4,a3
  207bc0:	8b3d                	andi	a4,a4,15
  207bc2:	00c7171b          	slliw	a4,a4,0xc
  207bc6:	43d0                	lw	a2,4(a5)
  207bc8:	76c5                	lui	a3,0xffff1
  207bca:	16fd                	addi	a3,a3,-1
  207bcc:	8ef1                	and	a3,a3,a2
  207bce:	8f55                	or	a4,a4,a3
  207bd0:	c3d8                	sw	a4,4(a5)
  207bd2:	a04d                	j	207c74 <PutToNandEraseList+0x1c4>
  207bd4:	002107b7          	lui	a5,0x210
  207bd8:	0b07b703          	ld	a4,176(a5) # 2100b0 <dieStateTablePtr>
  207bdc:	fe846783          	lwu	a5,-24(s0)
  207be0:	fec46683          	lwu	a3,-20(s0)
  207be4:	068e                	slli	a3,a3,0x3
  207be6:	97b6                	add	a5,a5,a3
  207be8:	078a                	slli	a5,a5,0x2
  207bea:	97ba                	add	a5,a5,a4
  207bec:	4394                	lw	a3,0(a5)
  207bee:	673d                	lui	a4,0xf
  207bf0:	8f55                	or	a4,a4,a3
  207bf2:	c398                	sw	a4,0(a5)
  207bf4:	002107b7          	lui	a5,0x210
  207bf8:	0b07b703          	ld	a4,176(a5) # 2100b0 <dieStateTablePtr>
  207bfc:	fe846783          	lwu	a5,-24(s0)
  207c00:	fec46683          	lwu	a3,-20(s0)
  207c04:	068e                	slli	a3,a3,0x3
  207c06:	97b6                	add	a5,a5,a3
  207c08:	078a                	slli	a5,a5,0x2
  207c0a:	97ba                	add	a5,a5,a4
  207c0c:	4394                	lw	a3,0(a5)
  207c0e:	000f0737          	lui	a4,0xf0
  207c12:	8f55                	or	a4,a4,a3
  207c14:	c398                	sw	a4,0(a5)
  207c16:	002107b7          	lui	a5,0x210
  207c1a:	0987b703          	ld	a4,152(a5) # 210098 <wayPriorityTablePtr>
  207c1e:	fe842783          	lw	a5,-24(s0)
  207c22:	8bbd                	andi	a5,a5,15
  207c24:	0ff7f693          	andi	a3,a5,255
  207c28:	fec46783          	lwu	a5,-20(s0)
  207c2c:	078e                	slli	a5,a5,0x3
  207c2e:	97ba                	add	a5,a5,a4
  207c30:	8736                	mv	a4,a3
  207c32:	8b3d                	andi	a4,a4,15
  207c34:	0087171b          	slliw	a4,a4,0x8
  207c38:	43d0                	lw	a2,4(a5)
  207c3a:	76fd                	lui	a3,0xfffff
  207c3c:	0ff68693          	addi	a3,a3,255 # fffffffffffff0ff <g_nvmeTask+0xffffffffffdeefb7>
  207c40:	8ef1                	and	a3,a3,a2
  207c42:	8f55                	or	a4,a4,a3
  207c44:	c3d8                	sw	a4,4(a5)
  207c46:	002107b7          	lui	a5,0x210
  207c4a:	0987b703          	ld	a4,152(a5) # 210098 <wayPriorityTablePtr>
  207c4e:	fe842783          	lw	a5,-24(s0)
  207c52:	8bbd                	andi	a5,a5,15
  207c54:	0ff7f693          	andi	a3,a5,255
  207c58:	fec46783          	lwu	a5,-20(s0)
  207c5c:	078e                	slli	a5,a5,0x3
  207c5e:	97ba                	add	a5,a5,a4
  207c60:	8736                	mv	a4,a3
  207c62:	8b3d                	andi	a4,a4,15
  207c64:	00c7171b          	slliw	a4,a4,0xc
  207c68:	43d0                	lw	a2,4(a5)
  207c6a:	76c5                	lui	a3,0xffff1
  207c6c:	16fd                	addi	a3,a3,-1
  207c6e:	8ef1                	and	a3,a3,a2
  207c70:	8f55                	or	a4,a4,a3
  207c72:	c3d8                	sw	a4,4(a5)
  207c74:	0001                	nop
  207c76:	6462                	ld	s0,24(sp)
  207c78:	6105                	addi	sp,sp,32
  207c7a:	8082                	ret

0000000000207c7c <SelectiveGetFromNandEraseList>:
  207c7c:	1101                	addi	sp,sp,-32
  207c7e:	ec22                	sd	s0,24(sp)
  207c80:	1000                	addi	s0,sp,32
  207c82:	87aa                	mv	a5,a0
  207c84:	872e                	mv	a4,a1
  207c86:	fef42623          	sw	a5,-20(s0)
  207c8a:	87ba                	mv	a5,a4
  207c8c:	fef42423          	sw	a5,-24(s0)
  207c90:	002107b7          	lui	a5,0x210
  207c94:	0b07b703          	ld	a4,176(a5) # 2100b0 <dieStateTablePtr>
  207c98:	fe846783          	lwu	a5,-24(s0)
  207c9c:	fec46683          	lwu	a3,-20(s0)
  207ca0:	068e                	slli	a3,a3,0x3
  207ca2:	97b6                	add	a5,a5,a3
  207ca4:	078a                	slli	a5,a5,0x2
  207ca6:	97ba                	add	a5,a5,a4
  207ca8:	439c                	lw	a5,0(a5)
  207caa:	0107d79b          	srliw	a5,a5,0x10
  207cae:	8bbd                	andi	a5,a5,15
  207cb0:	0ff7f793          	andi	a5,a5,255
  207cb4:	873e                	mv	a4,a5
  207cb6:	47bd                	li	a5,15
  207cb8:	10f70c63          	beq	a4,a5,207dd0 <SelectiveGetFromNandEraseList+0x154>
  207cbc:	002107b7          	lui	a5,0x210
  207cc0:	0b07b703          	ld	a4,176(a5) # 2100b0 <dieStateTablePtr>
  207cc4:	fe846783          	lwu	a5,-24(s0)
  207cc8:	fec46683          	lwu	a3,-20(s0)
  207ccc:	068e                	slli	a3,a3,0x3
  207cce:	97b6                	add	a5,a5,a3
  207cd0:	078a                	slli	a5,a5,0x2
  207cd2:	97ba                	add	a5,a5,a4
  207cd4:	439c                	lw	a5,0(a5)
  207cd6:	00c7d79b          	srliw	a5,a5,0xc
  207cda:	8bbd                	andi	a5,a5,15
  207cdc:	0ff7f793          	andi	a5,a5,255
  207ce0:	873e                	mv	a4,a5
  207ce2:	47bd                	li	a5,15
  207ce4:	0ef70663          	beq	a4,a5,207dd0 <SelectiveGetFromNandEraseList+0x154>
  207ce8:	002107b7          	lui	a5,0x210
  207cec:	0b07b603          	ld	a2,176(a5) # 2100b0 <dieStateTablePtr>
  207cf0:	002107b7          	lui	a5,0x210
  207cf4:	0b07b703          	ld	a4,176(a5) # 2100b0 <dieStateTablePtr>
  207cf8:	002107b7          	lui	a5,0x210
  207cfc:	0b07b683          	ld	a3,176(a5) # 2100b0 <dieStateTablePtr>
  207d00:	fe846783          	lwu	a5,-24(s0)
  207d04:	fec46583          	lwu	a1,-20(s0)
  207d08:	058e                	slli	a1,a1,0x3
  207d0a:	97ae                	add	a5,a5,a1
  207d0c:	078a                	slli	a5,a5,0x2
  207d0e:	97b6                	add	a5,a5,a3
  207d10:	439c                	lw	a5,0(a5)
  207d12:	00c7d79b          	srliw	a5,a5,0xc
  207d16:	8bbd                	andi	a5,a5,15
  207d18:	0ff7f793          	andi	a5,a5,255
  207d1c:	2781                	sext.w	a5,a5
  207d1e:	fe846683          	lwu	a3,-24(s0)
  207d22:	fec46583          	lwu	a1,-20(s0)
  207d26:	058e                	slli	a1,a1,0x3
  207d28:	96ae                	add	a3,a3,a1
  207d2a:	068a                	slli	a3,a3,0x2
  207d2c:	96b2                	add	a3,a3,a2
  207d2e:	4294                	lw	a3,0(a3)
  207d30:	0106d69b          	srliw	a3,a3,0x10
  207d34:	8abd                	andi	a3,a3,15
  207d36:	0ff6f613          	andi	a2,a3,255
  207d3a:	fec46683          	lwu	a3,-20(s0)
  207d3e:	068e                	slli	a3,a3,0x3
  207d40:	97b6                	add	a5,a5,a3
  207d42:	078a                	slli	a5,a5,0x2
  207d44:	97ba                	add	a5,a5,a4
  207d46:	8732                	mv	a4,a2
  207d48:	8b3d                	andi	a4,a4,15
  207d4a:	0107171b          	slliw	a4,a4,0x10
  207d4e:	4390                	lw	a2,0(a5)
  207d50:	fff106b7          	lui	a3,0xfff10
  207d54:	16fd                	addi	a3,a3,-1
  207d56:	8ef1                	and	a3,a3,a2
  207d58:	8f55                	or	a4,a4,a3
  207d5a:	c398                	sw	a4,0(a5)
  207d5c:	002107b7          	lui	a5,0x210
  207d60:	0b07b603          	ld	a2,176(a5) # 2100b0 <dieStateTablePtr>
  207d64:	002107b7          	lui	a5,0x210
  207d68:	0b07b703          	ld	a4,176(a5) # 2100b0 <dieStateTablePtr>
  207d6c:	002107b7          	lui	a5,0x210
  207d70:	0b07b683          	ld	a3,176(a5) # 2100b0 <dieStateTablePtr>
  207d74:	fe846783          	lwu	a5,-24(s0)
  207d78:	fec46583          	lwu	a1,-20(s0)
  207d7c:	058e                	slli	a1,a1,0x3
  207d7e:	97ae                	add	a5,a5,a1
  207d80:	078a                	slli	a5,a5,0x2
  207d82:	97b6                	add	a5,a5,a3
  207d84:	439c                	lw	a5,0(a5)
  207d86:	0107d79b          	srliw	a5,a5,0x10
  207d8a:	8bbd                	andi	a5,a5,15
  207d8c:	0ff7f793          	andi	a5,a5,255
  207d90:	2781                	sext.w	a5,a5
  207d92:	fe846683          	lwu	a3,-24(s0)
  207d96:	fec46583          	lwu	a1,-20(s0)
  207d9a:	058e                	slli	a1,a1,0x3
  207d9c:	96ae                	add	a3,a3,a1
  207d9e:	068a                	slli	a3,a3,0x2
  207da0:	96b2                	add	a3,a3,a2
  207da2:	4294                	lw	a3,0(a3)
  207da4:	00c6d69b          	srliw	a3,a3,0xc
  207da8:	8abd                	andi	a3,a3,15
  207daa:	0ff6f613          	andi	a2,a3,255
  207dae:	fec46683          	lwu	a3,-20(s0)
  207db2:	068e                	slli	a3,a3,0x3
  207db4:	97b6                	add	a5,a5,a3
  207db6:	078a                	slli	a5,a5,0x2
  207db8:	97ba                	add	a5,a5,a4
  207dba:	8732                	mv	a4,a2
  207dbc:	8b3d                	andi	a4,a4,15
  207dbe:	00c7171b          	slliw	a4,a4,0xc
  207dc2:	4390                	lw	a2,0(a5)
  207dc4:	76c5                	lui	a3,0xffff1
  207dc6:	16fd                	addi	a3,a3,-1
  207dc8:	8ef1                	and	a3,a3,a2
  207dca:	8f55                	or	a4,a4,a3
  207dcc:	c398                	sw	a4,0(a5)
  207dce:	a411                	j	207fd2 <SelectiveGetFromNandEraseList+0x356>
  207dd0:	002107b7          	lui	a5,0x210
  207dd4:	0b07b703          	ld	a4,176(a5) # 2100b0 <dieStateTablePtr>
  207dd8:	fe846783          	lwu	a5,-24(s0)
  207ddc:	fec46683          	lwu	a3,-20(s0)
  207de0:	068e                	slli	a3,a3,0x3
  207de2:	97b6                	add	a5,a5,a3
  207de4:	078a                	slli	a5,a5,0x2
  207de6:	97ba                	add	a5,a5,a4
  207de8:	439c                	lw	a5,0(a5)
  207dea:	0107d79b          	srliw	a5,a5,0x10
  207dee:	8bbd                	andi	a5,a5,15
  207df0:	0ff7f793          	andi	a5,a5,255
  207df4:	873e                	mv	a4,a5
  207df6:	47bd                	li	a5,15
  207df8:	0af71f63          	bne	a4,a5,207eb6 <SelectiveGetFromNandEraseList+0x23a>
  207dfc:	002107b7          	lui	a5,0x210
  207e00:	0b07b703          	ld	a4,176(a5) # 2100b0 <dieStateTablePtr>
  207e04:	fe846783          	lwu	a5,-24(s0)
  207e08:	fec46683          	lwu	a3,-20(s0)
  207e0c:	068e                	slli	a3,a3,0x3
  207e0e:	97b6                	add	a5,a5,a3
  207e10:	078a                	slli	a5,a5,0x2
  207e12:	97ba                	add	a5,a5,a4
  207e14:	439c                	lw	a5,0(a5)
  207e16:	00c7d79b          	srliw	a5,a5,0xc
  207e1a:	8bbd                	andi	a5,a5,15
  207e1c:	0ff7f793          	andi	a5,a5,255
  207e20:	873e                	mv	a4,a5
  207e22:	47bd                	li	a5,15
  207e24:	08f70963          	beq	a4,a5,207eb6 <SelectiveGetFromNandEraseList+0x23a>
  207e28:	002107b7          	lui	a5,0x210
  207e2c:	0b07b703          	ld	a4,176(a5) # 2100b0 <dieStateTablePtr>
  207e30:	002107b7          	lui	a5,0x210
  207e34:	0b07b683          	ld	a3,176(a5) # 2100b0 <dieStateTablePtr>
  207e38:	fe846783          	lwu	a5,-24(s0)
  207e3c:	fec46603          	lwu	a2,-20(s0)
  207e40:	060e                	slli	a2,a2,0x3
  207e42:	97b2                	add	a5,a5,a2
  207e44:	078a                	slli	a5,a5,0x2
  207e46:	97b6                	add	a5,a5,a3
  207e48:	439c                	lw	a5,0(a5)
  207e4a:	00c7d79b          	srliw	a5,a5,0xc
  207e4e:	8bbd                	andi	a5,a5,15
  207e50:	0ff7f793          	andi	a5,a5,255
  207e54:	2781                	sext.w	a5,a5
  207e56:	fec46683          	lwu	a3,-20(s0)
  207e5a:	068e                	slli	a3,a3,0x3
  207e5c:	97b6                	add	a5,a5,a3
  207e5e:	078a                	slli	a5,a5,0x2
  207e60:	97ba                	add	a5,a5,a4
  207e62:	4394                	lw	a3,0(a5)
  207e64:	000f0737          	lui	a4,0xf0
  207e68:	8f55                	or	a4,a4,a3
  207e6a:	c398                	sw	a4,0(a5)
  207e6c:	002107b7          	lui	a5,0x210
  207e70:	0b07b683          	ld	a3,176(a5) # 2100b0 <dieStateTablePtr>
  207e74:	002107b7          	lui	a5,0x210
  207e78:	0987b703          	ld	a4,152(a5) # 210098 <wayPriorityTablePtr>
  207e7c:	fe846783          	lwu	a5,-24(s0)
  207e80:	fec46603          	lwu	a2,-20(s0)
  207e84:	060e                	slli	a2,a2,0x3
  207e86:	97b2                	add	a5,a5,a2
  207e88:	078a                	slli	a5,a5,0x2
  207e8a:	97b6                	add	a5,a5,a3
  207e8c:	439c                	lw	a5,0(a5)
  207e8e:	00c7d79b          	srliw	a5,a5,0xc
  207e92:	8bbd                	andi	a5,a5,15
  207e94:	0ff7f693          	andi	a3,a5,255
  207e98:	fec46783          	lwu	a5,-20(s0)
  207e9c:	078e                	slli	a5,a5,0x3
  207e9e:	97ba                	add	a5,a5,a4
  207ea0:	8736                	mv	a4,a3
  207ea2:	8b3d                	andi	a4,a4,15
  207ea4:	00c7171b          	slliw	a4,a4,0xc
  207ea8:	43d0                	lw	a2,4(a5)
  207eaa:	76c5                	lui	a3,0xffff1
  207eac:	16fd                	addi	a3,a3,-1
  207eae:	8ef1                	and	a3,a3,a2
  207eb0:	8f55                	or	a4,a4,a3
  207eb2:	c3d8                	sw	a4,4(a5)
  207eb4:	aa39                	j	207fd2 <SelectiveGetFromNandEraseList+0x356>
  207eb6:	002107b7          	lui	a5,0x210
  207eba:	0b07b703          	ld	a4,176(a5) # 2100b0 <dieStateTablePtr>
  207ebe:	fe846783          	lwu	a5,-24(s0)
  207ec2:	fec46683          	lwu	a3,-20(s0)
  207ec6:	068e                	slli	a3,a3,0x3
  207ec8:	97b6                	add	a5,a5,a3
  207eca:	078a                	slli	a5,a5,0x2
  207ecc:	97ba                	add	a5,a5,a4
  207ece:	439c                	lw	a5,0(a5)
  207ed0:	0107d79b          	srliw	a5,a5,0x10
  207ed4:	8bbd                	andi	a5,a5,15
  207ed6:	0ff7f793          	andi	a5,a5,255
  207eda:	873e                	mv	a4,a5
  207edc:	47bd                	li	a5,15
  207ede:	0af70f63          	beq	a4,a5,207f9c <SelectiveGetFromNandEraseList+0x320>
  207ee2:	002107b7          	lui	a5,0x210
  207ee6:	0b07b703          	ld	a4,176(a5) # 2100b0 <dieStateTablePtr>
  207eea:	fe846783          	lwu	a5,-24(s0)
  207eee:	fec46683          	lwu	a3,-20(s0)
  207ef2:	068e                	slli	a3,a3,0x3
  207ef4:	97b6                	add	a5,a5,a3
  207ef6:	078a                	slli	a5,a5,0x2
  207ef8:	97ba                	add	a5,a5,a4
  207efa:	439c                	lw	a5,0(a5)
  207efc:	00c7d79b          	srliw	a5,a5,0xc
  207f00:	8bbd                	andi	a5,a5,15
  207f02:	0ff7f793          	andi	a5,a5,255
  207f06:	873e                	mv	a4,a5
  207f08:	47bd                	li	a5,15
  207f0a:	08f71963          	bne	a4,a5,207f9c <SelectiveGetFromNandEraseList+0x320>
  207f0e:	002107b7          	lui	a5,0x210
  207f12:	0b07b703          	ld	a4,176(a5) # 2100b0 <dieStateTablePtr>
  207f16:	002107b7          	lui	a5,0x210
  207f1a:	0b07b683          	ld	a3,176(a5) # 2100b0 <dieStateTablePtr>
  207f1e:	fe846783          	lwu	a5,-24(s0)
  207f22:	fec46603          	lwu	a2,-20(s0)
  207f26:	060e                	slli	a2,a2,0x3
  207f28:	97b2                	add	a5,a5,a2
  207f2a:	078a                	slli	a5,a5,0x2
  207f2c:	97b6                	add	a5,a5,a3
  207f2e:	439c                	lw	a5,0(a5)
  207f30:	0107d79b          	srliw	a5,a5,0x10
  207f34:	8bbd                	andi	a5,a5,15
  207f36:	0ff7f793          	andi	a5,a5,255
  207f3a:	2781                	sext.w	a5,a5
  207f3c:	fec46683          	lwu	a3,-20(s0)
  207f40:	068e                	slli	a3,a3,0x3
  207f42:	97b6                	add	a5,a5,a3
  207f44:	078a                	slli	a5,a5,0x2
  207f46:	97ba                	add	a5,a5,a4
  207f48:	4394                	lw	a3,0(a5)
  207f4a:	673d                	lui	a4,0xf
  207f4c:	8f55                	or	a4,a4,a3
  207f4e:	c398                	sw	a4,0(a5)
  207f50:	002107b7          	lui	a5,0x210
  207f54:	0b07b683          	ld	a3,176(a5) # 2100b0 <dieStateTablePtr>
  207f58:	002107b7          	lui	a5,0x210
  207f5c:	0987b703          	ld	a4,152(a5) # 210098 <wayPriorityTablePtr>
  207f60:	fe846783          	lwu	a5,-24(s0)
  207f64:	fec46603          	lwu	a2,-20(s0)
  207f68:	060e                	slli	a2,a2,0x3
  207f6a:	97b2                	add	a5,a5,a2
  207f6c:	078a                	slli	a5,a5,0x2
  207f6e:	97b6                	add	a5,a5,a3
  207f70:	439c                	lw	a5,0(a5)
  207f72:	0107d79b          	srliw	a5,a5,0x10
  207f76:	8bbd                	andi	a5,a5,15
  207f78:	0ff7f693          	andi	a3,a5,255
  207f7c:	fec46783          	lwu	a5,-20(s0)
  207f80:	078e                	slli	a5,a5,0x3
  207f82:	97ba                	add	a5,a5,a4
  207f84:	8736                	mv	a4,a3
  207f86:	8b3d                	andi	a4,a4,15
  207f88:	0087171b          	slliw	a4,a4,0x8
  207f8c:	43d0                	lw	a2,4(a5)
  207f8e:	76fd                	lui	a3,0xfffff
  207f90:	0ff68693          	addi	a3,a3,255 # fffffffffffff0ff <g_nvmeTask+0xffffffffffdeefb7>
  207f94:	8ef1                	and	a3,a3,a2
  207f96:	8f55                	or	a4,a4,a3
  207f98:	c3d8                	sw	a4,4(a5)
  207f9a:	a825                	j	207fd2 <SelectiveGetFromNandEraseList+0x356>
  207f9c:	002107b7          	lui	a5,0x210
  207fa0:	0987b703          	ld	a4,152(a5) # 210098 <wayPriorityTablePtr>
  207fa4:	fec46783          	lwu	a5,-20(s0)
  207fa8:	078e                	slli	a5,a5,0x3
  207faa:	97ba                	add	a5,a5,a4
  207fac:	43d4                	lw	a3,4(a5)
  207fae:	6705                	lui	a4,0x1
  207fb0:	f0070713          	addi	a4,a4,-256 # f00 <start-0x1ff100>
  207fb4:	8f55                	or	a4,a4,a3
  207fb6:	c3d8                	sw	a4,4(a5)
  207fb8:	002107b7          	lui	a5,0x210
  207fbc:	0987b703          	ld	a4,152(a5) # 210098 <wayPriorityTablePtr>
  207fc0:	fec46783          	lwu	a5,-20(s0)
  207fc4:	078e                	slli	a5,a5,0x3
  207fc6:	97ba                	add	a5,a5,a4
  207fc8:	43d4                	lw	a3,4(a5)
  207fca:	673d                	lui	a4,0xf
  207fcc:	8f55                	or	a4,a4,a3
  207fce:	c3d8                	sw	a4,4(a5)
  207fd0:	0001                	nop
  207fd2:	0001                	nop
  207fd4:	6462                	ld	s0,24(sp)
  207fd6:	6105                	addi	sp,sp,32
  207fd8:	8082                	ret

0000000000207fda <PutToNandStatusCheckList>:
  207fda:	1101                	addi	sp,sp,-32
  207fdc:	ec22                	sd	s0,24(sp)
  207fde:	1000                	addi	s0,sp,32
  207fe0:	87aa                	mv	a5,a0
  207fe2:	872e                	mv	a4,a1
  207fe4:	fef42623          	sw	a5,-20(s0)
  207fe8:	87ba                	mv	a5,a4
  207fea:	fef42423          	sw	a5,-24(s0)
  207fee:	002107b7          	lui	a5,0x210
  207ff2:	0987b703          	ld	a4,152(a5) # 210098 <wayPriorityTablePtr>
  207ff6:	fec46783          	lwu	a5,-20(s0)
  207ffa:	078e                	slli	a5,a5,0x3
  207ffc:	97ba                	add	a5,a5,a4
  207ffe:	43dc                	lw	a5,4(a5)
  208000:	0147d79b          	srliw	a5,a5,0x14
  208004:	8bbd                	andi	a5,a5,15
  208006:	0ff7f793          	andi	a5,a5,255
  20800a:	873e                	mv	a4,a5
  20800c:	47bd                	li	a5,15
  20800e:	0ef70963          	beq	a4,a5,208100 <PutToNandStatusCheckList+0x126>
  208012:	002107b7          	lui	a5,0x210
  208016:	0987b683          	ld	a3,152(a5) # 210098 <wayPriorityTablePtr>
  20801a:	002107b7          	lui	a5,0x210
  20801e:	0b07b703          	ld	a4,176(a5) # 2100b0 <dieStateTablePtr>
  208022:	fec46783          	lwu	a5,-20(s0)
  208026:	078e                	slli	a5,a5,0x3
  208028:	97b6                	add	a5,a5,a3
  20802a:	43dc                	lw	a5,4(a5)
  20802c:	0147d79b          	srliw	a5,a5,0x14
  208030:	8bbd                	andi	a5,a5,15
  208032:	0ff7f613          	andi	a2,a5,255
  208036:	fe846783          	lwu	a5,-24(s0)
  20803a:	fec46683          	lwu	a3,-20(s0)
  20803e:	068e                	slli	a3,a3,0x3
  208040:	97b6                	add	a5,a5,a3
  208042:	078a                	slli	a5,a5,0x2
  208044:	97ba                	add	a5,a5,a4
  208046:	8732                	mv	a4,a2
  208048:	8b3d                	andi	a4,a4,15
  20804a:	00c7171b          	slliw	a4,a4,0xc
  20804e:	4390                	lw	a2,0(a5)
  208050:	76c5                	lui	a3,0xffff1
  208052:	16fd                	addi	a3,a3,-1
  208054:	8ef1                	and	a3,a3,a2
  208056:	8f55                	or	a4,a4,a3
  208058:	c398                	sw	a4,0(a5)
  20805a:	002107b7          	lui	a5,0x210
  20805e:	0b07b703          	ld	a4,176(a5) # 2100b0 <dieStateTablePtr>
  208062:	fe846783          	lwu	a5,-24(s0)
  208066:	fec46683          	lwu	a3,-20(s0)
  20806a:	068e                	slli	a3,a3,0x3
  20806c:	97b6                	add	a5,a5,a3
  20806e:	078a                	slli	a5,a5,0x2
  208070:	97ba                	add	a5,a5,a4
  208072:	4394                	lw	a3,0(a5)
  208074:	000f0737          	lui	a4,0xf0
  208078:	8f55                	or	a4,a4,a3
  20807a:	c398                	sw	a4,0(a5)
  20807c:	002107b7          	lui	a5,0x210
  208080:	0b07b703          	ld	a4,176(a5) # 2100b0 <dieStateTablePtr>
  208084:	002107b7          	lui	a5,0x210
  208088:	0987b683          	ld	a3,152(a5) # 210098 <wayPriorityTablePtr>
  20808c:	fec46783          	lwu	a5,-20(s0)
  208090:	078e                	slli	a5,a5,0x3
  208092:	97b6                	add	a5,a5,a3
  208094:	43dc                	lw	a5,4(a5)
  208096:	0147d79b          	srliw	a5,a5,0x14
  20809a:	8bbd                	andi	a5,a5,15
  20809c:	0ff7f793          	andi	a5,a5,255
  2080a0:	2781                	sext.w	a5,a5
  2080a2:	fe842683          	lw	a3,-24(s0)
  2080a6:	8abd                	andi	a3,a3,15
  2080a8:	0ff6f613          	andi	a2,a3,255
  2080ac:	fec46683          	lwu	a3,-20(s0)
  2080b0:	068e                	slli	a3,a3,0x3
  2080b2:	97b6                	add	a5,a5,a3
  2080b4:	078a                	slli	a5,a5,0x2
  2080b6:	97ba                	add	a5,a5,a4
  2080b8:	8732                	mv	a4,a2
  2080ba:	8b3d                	andi	a4,a4,15
  2080bc:	0107171b          	slliw	a4,a4,0x10
  2080c0:	4390                	lw	a2,0(a5)
  2080c2:	fff106b7          	lui	a3,0xfff10
  2080c6:	16fd                	addi	a3,a3,-1
  2080c8:	8ef1                	and	a3,a3,a2
  2080ca:	8f55                	or	a4,a4,a3
  2080cc:	c398                	sw	a4,0(a5)
  2080ce:	002107b7          	lui	a5,0x210
  2080d2:	0987b703          	ld	a4,152(a5) # 210098 <wayPriorityTablePtr>
  2080d6:	fe842783          	lw	a5,-24(s0)
  2080da:	8bbd                	andi	a5,a5,15
  2080dc:	0ff7f693          	andi	a3,a5,255
  2080e0:	fec46783          	lwu	a5,-20(s0)
  2080e4:	078e                	slli	a5,a5,0x3
  2080e6:	97ba                	add	a5,a5,a4
  2080e8:	8736                	mv	a4,a3
  2080ea:	8b3d                	andi	a4,a4,15
  2080ec:	0147171b          	slliw	a4,a4,0x14
  2080f0:	43d0                	lw	a2,4(a5)
  2080f2:	ff1006b7          	lui	a3,0xff100
  2080f6:	16fd                	addi	a3,a3,-1
  2080f8:	8ef1                	and	a3,a3,a2
  2080fa:	8f55                	or	a4,a4,a3
  2080fc:	c3d8                	sw	a4,4(a5)
  2080fe:	a055                	j	2081a2 <PutToNandStatusCheckList+0x1c8>
  208100:	002107b7          	lui	a5,0x210
  208104:	0b07b703          	ld	a4,176(a5) # 2100b0 <dieStateTablePtr>
  208108:	fe846783          	lwu	a5,-24(s0)
  20810c:	fec46683          	lwu	a3,-20(s0)
  208110:	068e                	slli	a3,a3,0x3
  208112:	97b6                	add	a5,a5,a3
  208114:	078a                	slli	a5,a5,0x2
  208116:	97ba                	add	a5,a5,a4
  208118:	4394                	lw	a3,0(a5)
  20811a:	673d                	lui	a4,0xf
  20811c:	8f55                	or	a4,a4,a3
  20811e:	c398                	sw	a4,0(a5)
  208120:	002107b7          	lui	a5,0x210
  208124:	0b07b703          	ld	a4,176(a5) # 2100b0 <dieStateTablePtr>
  208128:	fe846783          	lwu	a5,-24(s0)
  20812c:	fec46683          	lwu	a3,-20(s0)
  208130:	068e                	slli	a3,a3,0x3
  208132:	97b6                	add	a5,a5,a3
  208134:	078a                	slli	a5,a5,0x2
  208136:	97ba                	add	a5,a5,a4
  208138:	4394                	lw	a3,0(a5)
  20813a:	000f0737          	lui	a4,0xf0
  20813e:	8f55                	or	a4,a4,a3
  208140:	c398                	sw	a4,0(a5)
  208142:	002107b7          	lui	a5,0x210
  208146:	0987b703          	ld	a4,152(a5) # 210098 <wayPriorityTablePtr>
  20814a:	fe842783          	lw	a5,-24(s0)
  20814e:	8bbd                	andi	a5,a5,15
  208150:	0ff7f693          	andi	a3,a5,255
  208154:	fec46783          	lwu	a5,-20(s0)
  208158:	078e                	slli	a5,a5,0x3
  20815a:	97ba                	add	a5,a5,a4
  20815c:	8736                	mv	a4,a3
  20815e:	8b3d                	andi	a4,a4,15
  208160:	0107171b          	slliw	a4,a4,0x10
  208164:	43d0                	lw	a2,4(a5)
  208166:	fff106b7          	lui	a3,0xfff10
  20816a:	16fd                	addi	a3,a3,-1
  20816c:	8ef1                	and	a3,a3,a2
  20816e:	8f55                	or	a4,a4,a3
  208170:	c3d8                	sw	a4,4(a5)
  208172:	002107b7          	lui	a5,0x210
  208176:	0987b703          	ld	a4,152(a5) # 210098 <wayPriorityTablePtr>
  20817a:	fe842783          	lw	a5,-24(s0)
  20817e:	8bbd                	andi	a5,a5,15
  208180:	0ff7f693          	andi	a3,a5,255
  208184:	fec46783          	lwu	a5,-20(s0)
  208188:	078e                	slli	a5,a5,0x3
  20818a:	97ba                	add	a5,a5,a4
  20818c:	8736                	mv	a4,a3
  20818e:	8b3d                	andi	a4,a4,15
  208190:	0147171b          	slliw	a4,a4,0x14
  208194:	43d0                	lw	a2,4(a5)
  208196:	ff1006b7          	lui	a3,0xff100
  20819a:	16fd                	addi	a3,a3,-1
  20819c:	8ef1                	and	a3,a3,a2
  20819e:	8f55                	or	a4,a4,a3
  2081a0:	c3d8                	sw	a4,4(a5)
  2081a2:	0001                	nop
  2081a4:	6462                	ld	s0,24(sp)
  2081a6:	6105                	addi	sp,sp,32
  2081a8:	8082                	ret

00000000002081aa <SelectiveGetFromNandStatusCheckList>:
  2081aa:	1101                	addi	sp,sp,-32
  2081ac:	ec22                	sd	s0,24(sp)
  2081ae:	1000                	addi	s0,sp,32
  2081b0:	87aa                	mv	a5,a0
  2081b2:	872e                	mv	a4,a1
  2081b4:	fef42623          	sw	a5,-20(s0)
  2081b8:	87ba                	mv	a5,a4
  2081ba:	fef42423          	sw	a5,-24(s0)
  2081be:	002107b7          	lui	a5,0x210
  2081c2:	0b07b703          	ld	a4,176(a5) # 2100b0 <dieStateTablePtr>
  2081c6:	fe846783          	lwu	a5,-24(s0)
  2081ca:	fec46683          	lwu	a3,-20(s0)
  2081ce:	068e                	slli	a3,a3,0x3
  2081d0:	97b6                	add	a5,a5,a3
  2081d2:	078a                	slli	a5,a5,0x2
  2081d4:	97ba                	add	a5,a5,a4
  2081d6:	439c                	lw	a5,0(a5)
  2081d8:	0107d79b          	srliw	a5,a5,0x10
  2081dc:	8bbd                	andi	a5,a5,15
  2081de:	0ff7f793          	andi	a5,a5,255
  2081e2:	873e                	mv	a4,a5
  2081e4:	47bd                	li	a5,15
  2081e6:	10f70c63          	beq	a4,a5,2082fe <SelectiveGetFromNandStatusCheckList+0x154>
  2081ea:	002107b7          	lui	a5,0x210
  2081ee:	0b07b703          	ld	a4,176(a5) # 2100b0 <dieStateTablePtr>
  2081f2:	fe846783          	lwu	a5,-24(s0)
  2081f6:	fec46683          	lwu	a3,-20(s0)
  2081fa:	068e                	slli	a3,a3,0x3
  2081fc:	97b6                	add	a5,a5,a3
  2081fe:	078a                	slli	a5,a5,0x2
  208200:	97ba                	add	a5,a5,a4
  208202:	439c                	lw	a5,0(a5)
  208204:	00c7d79b          	srliw	a5,a5,0xc
  208208:	8bbd                	andi	a5,a5,15
  20820a:	0ff7f793          	andi	a5,a5,255
  20820e:	873e                	mv	a4,a5
  208210:	47bd                	li	a5,15
  208212:	0ef70663          	beq	a4,a5,2082fe <SelectiveGetFromNandStatusCheckList+0x154>
  208216:	002107b7          	lui	a5,0x210
  20821a:	0b07b603          	ld	a2,176(a5) # 2100b0 <dieStateTablePtr>
  20821e:	002107b7          	lui	a5,0x210
  208222:	0b07b703          	ld	a4,176(a5) # 2100b0 <dieStateTablePtr>
  208226:	002107b7          	lui	a5,0x210
  20822a:	0b07b683          	ld	a3,176(a5) # 2100b0 <dieStateTablePtr>
  20822e:	fe846783          	lwu	a5,-24(s0)
  208232:	fec46583          	lwu	a1,-20(s0)
  208236:	058e                	slli	a1,a1,0x3
  208238:	97ae                	add	a5,a5,a1
  20823a:	078a                	slli	a5,a5,0x2
  20823c:	97b6                	add	a5,a5,a3
  20823e:	439c                	lw	a5,0(a5)
  208240:	00c7d79b          	srliw	a5,a5,0xc
  208244:	8bbd                	andi	a5,a5,15
  208246:	0ff7f793          	andi	a5,a5,255
  20824a:	2781                	sext.w	a5,a5
  20824c:	fe846683          	lwu	a3,-24(s0)
  208250:	fec46583          	lwu	a1,-20(s0)
  208254:	058e                	slli	a1,a1,0x3
  208256:	96ae                	add	a3,a3,a1
  208258:	068a                	slli	a3,a3,0x2
  20825a:	96b2                	add	a3,a3,a2
  20825c:	4294                	lw	a3,0(a3)
  20825e:	0106d69b          	srliw	a3,a3,0x10
  208262:	8abd                	andi	a3,a3,15
  208264:	0ff6f613          	andi	a2,a3,255
  208268:	fec46683          	lwu	a3,-20(s0)
  20826c:	068e                	slli	a3,a3,0x3
  20826e:	97b6                	add	a5,a5,a3
  208270:	078a                	slli	a5,a5,0x2
  208272:	97ba                	add	a5,a5,a4
  208274:	8732                	mv	a4,a2
  208276:	8b3d                	andi	a4,a4,15
  208278:	0107171b          	slliw	a4,a4,0x10
  20827c:	4390                	lw	a2,0(a5)
  20827e:	fff106b7          	lui	a3,0xfff10
  208282:	16fd                	addi	a3,a3,-1
  208284:	8ef1                	and	a3,a3,a2
  208286:	8f55                	or	a4,a4,a3
  208288:	c398                	sw	a4,0(a5)
  20828a:	002107b7          	lui	a5,0x210
  20828e:	0b07b603          	ld	a2,176(a5) # 2100b0 <dieStateTablePtr>
  208292:	002107b7          	lui	a5,0x210
  208296:	0b07b703          	ld	a4,176(a5) # 2100b0 <dieStateTablePtr>
  20829a:	002107b7          	lui	a5,0x210
  20829e:	0b07b683          	ld	a3,176(a5) # 2100b0 <dieStateTablePtr>
  2082a2:	fe846783          	lwu	a5,-24(s0)
  2082a6:	fec46583          	lwu	a1,-20(s0)
  2082aa:	058e                	slli	a1,a1,0x3
  2082ac:	97ae                	add	a5,a5,a1
  2082ae:	078a                	slli	a5,a5,0x2
  2082b0:	97b6                	add	a5,a5,a3
  2082b2:	439c                	lw	a5,0(a5)
  2082b4:	0107d79b          	srliw	a5,a5,0x10
  2082b8:	8bbd                	andi	a5,a5,15
  2082ba:	0ff7f793          	andi	a5,a5,255
  2082be:	2781                	sext.w	a5,a5
  2082c0:	fe846683          	lwu	a3,-24(s0)
  2082c4:	fec46583          	lwu	a1,-20(s0)
  2082c8:	058e                	slli	a1,a1,0x3
  2082ca:	96ae                	add	a3,a3,a1
  2082cc:	068a                	slli	a3,a3,0x2
  2082ce:	96b2                	add	a3,a3,a2
  2082d0:	4294                	lw	a3,0(a3)
  2082d2:	00c6d69b          	srliw	a3,a3,0xc
  2082d6:	8abd                	andi	a3,a3,15
  2082d8:	0ff6f613          	andi	a2,a3,255
  2082dc:	fec46683          	lwu	a3,-20(s0)
  2082e0:	068e                	slli	a3,a3,0x3
  2082e2:	97b6                	add	a5,a5,a3
  2082e4:	078a                	slli	a5,a5,0x2
  2082e6:	97ba                	add	a5,a5,a4
  2082e8:	8732                	mv	a4,a2
  2082ea:	8b3d                	andi	a4,a4,15
  2082ec:	00c7171b          	slliw	a4,a4,0xc
  2082f0:	4390                	lw	a2,0(a5)
  2082f2:	76c5                	lui	a3,0xffff1
  2082f4:	16fd                	addi	a3,a3,-1
  2082f6:	8ef1                	and	a3,a3,a2
  2082f8:	8f55                	or	a4,a4,a3
  2082fa:	c398                	sw	a4,0(a5)
  2082fc:	a419                	j	208502 <SelectiveGetFromNandStatusCheckList+0x358>
  2082fe:	002107b7          	lui	a5,0x210
  208302:	0b07b703          	ld	a4,176(a5) # 2100b0 <dieStateTablePtr>
  208306:	fe846783          	lwu	a5,-24(s0)
  20830a:	fec46683          	lwu	a3,-20(s0)
  20830e:	068e                	slli	a3,a3,0x3
  208310:	97b6                	add	a5,a5,a3
  208312:	078a                	slli	a5,a5,0x2
  208314:	97ba                	add	a5,a5,a4
  208316:	439c                	lw	a5,0(a5)
  208318:	0107d79b          	srliw	a5,a5,0x10
  20831c:	8bbd                	andi	a5,a5,15
  20831e:	0ff7f793          	andi	a5,a5,255
  208322:	873e                	mv	a4,a5
  208324:	47bd                	li	a5,15
  208326:	0cf71063          	bne	a4,a5,2083e6 <SelectiveGetFromNandStatusCheckList+0x23c>
  20832a:	002107b7          	lui	a5,0x210
  20832e:	0b07b703          	ld	a4,176(a5) # 2100b0 <dieStateTablePtr>
  208332:	fe846783          	lwu	a5,-24(s0)
  208336:	fec46683          	lwu	a3,-20(s0)
  20833a:	068e                	slli	a3,a3,0x3
  20833c:	97b6                	add	a5,a5,a3
  20833e:	078a                	slli	a5,a5,0x2
  208340:	97ba                	add	a5,a5,a4
  208342:	439c                	lw	a5,0(a5)
  208344:	00c7d79b          	srliw	a5,a5,0xc
  208348:	8bbd                	andi	a5,a5,15
  20834a:	0ff7f793          	andi	a5,a5,255
  20834e:	873e                	mv	a4,a5
  208350:	47bd                	li	a5,15
  208352:	08f70a63          	beq	a4,a5,2083e6 <SelectiveGetFromNandStatusCheckList+0x23c>
  208356:	002107b7          	lui	a5,0x210
  20835a:	0b07b703          	ld	a4,176(a5) # 2100b0 <dieStateTablePtr>
  20835e:	002107b7          	lui	a5,0x210
  208362:	0b07b683          	ld	a3,176(a5) # 2100b0 <dieStateTablePtr>
  208366:	fe846783          	lwu	a5,-24(s0)
  20836a:	fec46603          	lwu	a2,-20(s0)
  20836e:	060e                	slli	a2,a2,0x3
  208370:	97b2                	add	a5,a5,a2
  208372:	078a                	slli	a5,a5,0x2
  208374:	97b6                	add	a5,a5,a3
  208376:	439c                	lw	a5,0(a5)
  208378:	00c7d79b          	srliw	a5,a5,0xc
  20837c:	8bbd                	andi	a5,a5,15
  20837e:	0ff7f793          	andi	a5,a5,255
  208382:	2781                	sext.w	a5,a5
  208384:	fec46683          	lwu	a3,-20(s0)
  208388:	068e                	slli	a3,a3,0x3
  20838a:	97b6                	add	a5,a5,a3
  20838c:	078a                	slli	a5,a5,0x2
  20838e:	97ba                	add	a5,a5,a4
  208390:	4394                	lw	a3,0(a5)
  208392:	000f0737          	lui	a4,0xf0
  208396:	8f55                	or	a4,a4,a3
  208398:	c398                	sw	a4,0(a5)
  20839a:	002107b7          	lui	a5,0x210
  20839e:	0b07b683          	ld	a3,176(a5) # 2100b0 <dieStateTablePtr>
  2083a2:	002107b7          	lui	a5,0x210
  2083a6:	0987b703          	ld	a4,152(a5) # 210098 <wayPriorityTablePtr>
  2083aa:	fe846783          	lwu	a5,-24(s0)
  2083ae:	fec46603          	lwu	a2,-20(s0)
  2083b2:	060e                	slli	a2,a2,0x3
  2083b4:	97b2                	add	a5,a5,a2
  2083b6:	078a                	slli	a5,a5,0x2
  2083b8:	97b6                	add	a5,a5,a3
  2083ba:	439c                	lw	a5,0(a5)
  2083bc:	00c7d79b          	srliw	a5,a5,0xc
  2083c0:	8bbd                	andi	a5,a5,15
  2083c2:	0ff7f693          	andi	a3,a5,255
  2083c6:	fec46783          	lwu	a5,-20(s0)
  2083ca:	078e                	slli	a5,a5,0x3
  2083cc:	97ba                	add	a5,a5,a4
  2083ce:	8736                	mv	a4,a3
  2083d0:	8b3d                	andi	a4,a4,15
  2083d2:	0147171b          	slliw	a4,a4,0x14
  2083d6:	43d0                	lw	a2,4(a5)
  2083d8:	ff1006b7          	lui	a3,0xff100
  2083dc:	16fd                	addi	a3,a3,-1
  2083de:	8ef1                	and	a3,a3,a2
  2083e0:	8f55                	or	a4,a4,a3
  2083e2:	c3d8                	sw	a4,4(a5)
  2083e4:	aa39                	j	208502 <SelectiveGetFromNandStatusCheckList+0x358>
  2083e6:	002107b7          	lui	a5,0x210
  2083ea:	0b07b703          	ld	a4,176(a5) # 2100b0 <dieStateTablePtr>
  2083ee:	fe846783          	lwu	a5,-24(s0)
  2083f2:	fec46683          	lwu	a3,-20(s0)
  2083f6:	068e                	slli	a3,a3,0x3
  2083f8:	97b6                	add	a5,a5,a3
  2083fa:	078a                	slli	a5,a5,0x2
  2083fc:	97ba                	add	a5,a5,a4
  2083fe:	439c                	lw	a5,0(a5)
  208400:	0107d79b          	srliw	a5,a5,0x10
  208404:	8bbd                	andi	a5,a5,15
  208406:	0ff7f793          	andi	a5,a5,255
  20840a:	873e                	mv	a4,a5
  20840c:	47bd                	li	a5,15
  20840e:	0af70f63          	beq	a4,a5,2084cc <SelectiveGetFromNandStatusCheckList+0x322>
  208412:	002107b7          	lui	a5,0x210
  208416:	0b07b703          	ld	a4,176(a5) # 2100b0 <dieStateTablePtr>
  20841a:	fe846783          	lwu	a5,-24(s0)
  20841e:	fec46683          	lwu	a3,-20(s0)
  208422:	068e                	slli	a3,a3,0x3
  208424:	97b6                	add	a5,a5,a3
  208426:	078a                	slli	a5,a5,0x2
  208428:	97ba                	add	a5,a5,a4
  20842a:	439c                	lw	a5,0(a5)
  20842c:	00c7d79b          	srliw	a5,a5,0xc
  208430:	8bbd                	andi	a5,a5,15
  208432:	0ff7f793          	andi	a5,a5,255
  208436:	873e                	mv	a4,a5
  208438:	47bd                	li	a5,15
  20843a:	08f71963          	bne	a4,a5,2084cc <SelectiveGetFromNandStatusCheckList+0x322>
  20843e:	002107b7          	lui	a5,0x210
  208442:	0b07b703          	ld	a4,176(a5) # 2100b0 <dieStateTablePtr>
  208446:	002107b7          	lui	a5,0x210
  20844a:	0b07b683          	ld	a3,176(a5) # 2100b0 <dieStateTablePtr>
  20844e:	fe846783          	lwu	a5,-24(s0)
  208452:	fec46603          	lwu	a2,-20(s0)
  208456:	060e                	slli	a2,a2,0x3
  208458:	97b2                	add	a5,a5,a2
  20845a:	078a                	slli	a5,a5,0x2
  20845c:	97b6                	add	a5,a5,a3
  20845e:	439c                	lw	a5,0(a5)
  208460:	0107d79b          	srliw	a5,a5,0x10
  208464:	8bbd                	andi	a5,a5,15
  208466:	0ff7f793          	andi	a5,a5,255
  20846a:	2781                	sext.w	a5,a5
  20846c:	fec46683          	lwu	a3,-20(s0)
  208470:	068e                	slli	a3,a3,0x3
  208472:	97b6                	add	a5,a5,a3
  208474:	078a                	slli	a5,a5,0x2
  208476:	97ba                	add	a5,a5,a4
  208478:	4394                	lw	a3,0(a5)
  20847a:	673d                	lui	a4,0xf
  20847c:	8f55                	or	a4,a4,a3
  20847e:	c398                	sw	a4,0(a5)
  208480:	002107b7          	lui	a5,0x210
  208484:	0b07b683          	ld	a3,176(a5) # 2100b0 <dieStateTablePtr>
  208488:	002107b7          	lui	a5,0x210
  20848c:	0987b703          	ld	a4,152(a5) # 210098 <wayPriorityTablePtr>
  208490:	fe846783          	lwu	a5,-24(s0)
  208494:	fec46603          	lwu	a2,-20(s0)
  208498:	060e                	slli	a2,a2,0x3
  20849a:	97b2                	add	a5,a5,a2
  20849c:	078a                	slli	a5,a5,0x2
  20849e:	97b6                	add	a5,a5,a3
  2084a0:	439c                	lw	a5,0(a5)
  2084a2:	0107d79b          	srliw	a5,a5,0x10
  2084a6:	8bbd                	andi	a5,a5,15
  2084a8:	0ff7f693          	andi	a3,a5,255
  2084ac:	fec46783          	lwu	a5,-20(s0)
  2084b0:	078e                	slli	a5,a5,0x3
  2084b2:	97ba                	add	a5,a5,a4
  2084b4:	8736                	mv	a4,a3
  2084b6:	8b3d                	andi	a4,a4,15
  2084b8:	0107171b          	slliw	a4,a4,0x10
  2084bc:	43d0                	lw	a2,4(a5)
  2084be:	fff106b7          	lui	a3,0xfff10
  2084c2:	16fd                	addi	a3,a3,-1
  2084c4:	8ef1                	and	a3,a3,a2
  2084c6:	8f55                	or	a4,a4,a3
  2084c8:	c3d8                	sw	a4,4(a5)
  2084ca:	a825                	j	208502 <SelectiveGetFromNandStatusCheckList+0x358>
  2084cc:	002107b7          	lui	a5,0x210
  2084d0:	0987b703          	ld	a4,152(a5) # 210098 <wayPriorityTablePtr>
  2084d4:	fec46783          	lwu	a5,-20(s0)
  2084d8:	078e                	slli	a5,a5,0x3
  2084da:	97ba                	add	a5,a5,a4
  2084dc:	43d4                	lw	a3,4(a5)
  2084de:	000f0737          	lui	a4,0xf0
  2084e2:	8f55                	or	a4,a4,a3
  2084e4:	c3d8                	sw	a4,4(a5)
  2084e6:	002107b7          	lui	a5,0x210
  2084ea:	0987b703          	ld	a4,152(a5) # 210098 <wayPriorityTablePtr>
  2084ee:	fec46783          	lwu	a5,-20(s0)
  2084f2:	078e                	slli	a5,a5,0x3
  2084f4:	97ba                	add	a5,a5,a4
  2084f6:	43d4                	lw	a3,4(a5)
  2084f8:	00f00737          	lui	a4,0xf00
  2084fc:	8f55                	or	a4,a4,a3
  2084fe:	c3d8                	sw	a4,4(a5)
  208500:	0001                	nop
  208502:	0001                	nop
  208504:	6462                	ld	s0,24(sp)
  208506:	6105                	addi	sp,sp,32
  208508:	8082                	ret

000000000020850a <IssueNandReq>:
  20850a:	715d                	addi	sp,sp,-80
  20850c:	e486                	sd	ra,72(sp)
  20850e:	e0a2                	sd	s0,64(sp)
  208510:	0880                	addi	s0,sp,80
  208512:	87aa                	mv	a5,a0
  208514:	872e                	mv	a4,a1
  208516:	faf42e23          	sw	a5,-68(s0)
  20851a:	87ba                	mv	a5,a4
  20851c:	faf42c23          	sw	a5,-72(s0)
  208520:	002107b7          	lui	a5,0x210
  208524:	e6878713          	addi	a4,a5,-408 # 20fe68 <nandReqQ>
  208528:	fb846783          	lwu	a5,-72(s0)
  20852c:	fbc46683          	lwu	a3,-68(s0)
  208530:	068e                	slli	a3,a3,0x3
  208532:	97b6                	add	a5,a5,a3
  208534:	078e                	slli	a5,a5,0x3
  208536:	97ba                	add	a5,a5,a4
  208538:	0007d783          	lhu	a5,0(a5)
  20853c:	fef42623          	sw	a5,-20(s0)
  208540:	fec42783          	lw	a5,-20(s0)
  208544:	853e                	mv	a0,a5
  208546:	384000ef          	jal	ra,2088ca <GenerateNandRowAddr>
  20854a:	87aa                	mv	a5,a0
  20854c:	fef42423          	sw	a5,-24(s0)
  208550:	fec42783          	lw	a5,-20(s0)
  208554:	853e                	mv	a0,a5
  208556:	71a000ef          	jal	ra,208c70 <GenerateDataBufAddr>
  20855a:	87aa                	mv	a5,a0
  20855c:	2781                	sext.w	a5,a5
  20855e:	1782                	slli	a5,a5,0x20
  208560:	9381                	srli	a5,a5,0x20
  208562:	fef43023          	sd	a5,-32(s0)
  208566:	fec42783          	lw	a5,-20(s0)
  20856a:	853e                	mv	a0,a5
  20856c:	0cf000ef          	jal	ra,208e3a <GenerateSpareDataBufAddr>
  208570:	87aa                	mv	a5,a0
  208572:	2781                	sext.w	a5,a5
  208574:	1782                	slli	a5,a5,0x20
  208576:	9381                	srli	a5,a5,0x20
  208578:	fcf43c23          	sd	a5,-40(s0)
  20857c:	002107b7          	lui	a5,0x210
  208580:	e507b703          	ld	a4,-432(a5) # 20fe50 <reqPoolPtr>
  208584:	fec46683          	lwu	a3,-20(s0)
  208588:	03400793          	li	a5,52
  20858c:	02f687b3          	mul	a5,a3,a5
  208590:	97ba                	add	a5,a5,a4
  208592:	0017c783          	lbu	a5,1(a5)
  208596:	873e                	mv	a4,a5
  208598:	47a1                	li	a5,8
  20859a:	04f71963          	bne	a4,a5,2085ec <IssueNandReq+0xe2>
  20859e:	002107b7          	lui	a5,0x210
  2085a2:	0b07b703          	ld	a4,176(a5) # 2100b0 <dieStateTablePtr>
  2085a6:	fb846783          	lwu	a5,-72(s0)
  2085aa:	fbc46683          	lwu	a3,-68(s0)
  2085ae:	068e                	slli	a3,a3,0x3
  2085b0:	97b6                	add	a5,a5,a3
  2085b2:	078a                	slli	a5,a5,0x2
  2085b4:	97ba                	add	a5,a5,a4
  2085b6:	4394                	lw	a3,0(a5)
  2085b8:	777d                	lui	a4,0xfffff
  2085ba:	0ff70713          	addi	a4,a4,255 # fffffffffffff0ff <g_nvmeTask+0xffffffffffdeefb7>
  2085be:	8f75                	and	a4,a4,a3
  2085c0:	10076713          	ori	a4,a4,256
  2085c4:	c398                	sw	a4,0(a5)
  2085c6:	002107b7          	lui	a5,0x210
  2085ca:	0c878713          	addi	a4,a5,200 # 2100c8 <chCtlReg>
  2085ce:	fbc46783          	lwu	a5,-68(s0)
  2085d2:	078e                	slli	a5,a5,0x3
  2085d4:	97ba                	add	a5,a5,a4
  2085d6:	639c                	ld	a5,0(a5)
  2085d8:	fb842703          	lw	a4,-72(s0)
  2085dc:	fe842683          	lw	a3,-24(s0)
  2085e0:	8636                	mv	a2,a3
  2085e2:	85ba                	mv	a1,a4
  2085e4:	853e                	mv	a0,a5
  2085e6:	4b0010ef          	jal	ra,209a96 <V2FReadPageTriggerAsync>
  2085ea:	acd9                	j	2088c0 <IssueNandReq+0x3b6>
  2085ec:	002107b7          	lui	a5,0x210
  2085f0:	e507b703          	ld	a4,-432(a5) # 20fe50 <reqPoolPtr>
  2085f4:	fec46683          	lwu	a3,-20(s0)
  2085f8:	03400793          	li	a5,52
  2085fc:	02f687b3          	mul	a5,a3,a5
  208600:	97ba                	add	a5,a5,a4
  208602:	0017c783          	lbu	a5,1(a5)
  208606:	873e                	mv	a4,a5
  208608:	47a5                	li	a5,9
  20860a:	0ef71a63          	bne	a4,a5,2086fe <IssueNandReq+0x1f4>
  20860e:	002107b7          	lui	a5,0x210
  208612:	0b07b703          	ld	a4,176(a5) # 2100b0 <dieStateTablePtr>
  208616:	fb846783          	lwu	a5,-72(s0)
  20861a:	fbc46683          	lwu	a3,-68(s0)
  20861e:	068e                	slli	a3,a3,0x3
  208620:	97b6                	add	a5,a5,a3
  208622:	078a                	slli	a5,a5,0x2
  208624:	97ba                	add	a5,a5,a4
  208626:	4394                	lw	a3,0(a5)
  208628:	777d                	lui	a4,0xfffff
  20862a:	0ff70713          	addi	a4,a4,255 # fffffffffffff0ff <g_nvmeTask+0xffffffffffdeefb7>
  20862e:	8f75                	and	a4,a4,a3
  208630:	30076713          	ori	a4,a4,768
  208634:	c398                	sw	a4,0(a5)
  208636:	002107b7          	lui	a5,0x210
  20863a:	0a07b703          	ld	a4,160(a5) # 2100a0 <eccErrorInfoTablePtr>
  20863e:	fb846683          	lwu	a3,-72(s0)
  208642:	02c00793          	li	a5,44
  208646:	02f686b3          	mul	a3,a3,a5
  20864a:	fbc46603          	lwu	a2,-68(s0)
  20864e:	16000793          	li	a5,352
  208652:	02f607b3          	mul	a5,a2,a5
  208656:	97b6                	add	a5,a5,a3
  208658:	97ba                	add	a5,a5,a4
  20865a:	fcf43823          	sd	a5,-48(s0)
  20865e:	002107b7          	lui	a5,0x210
  208662:	0a87b703          	ld	a4,168(a5) # 2100a8 <completeFlagTablePtr>
  208666:	fb846683          	lwu	a3,-72(s0)
  20866a:	fbc46783          	lwu	a5,-68(s0)
  20866e:	078e                	slli	a5,a5,0x3
  208670:	97b6                	add	a5,a5,a3
  208672:	078a                	slli	a5,a5,0x2
  208674:	97ba                	add	a5,a5,a4
  208676:	fcf43423          	sd	a5,-56(s0)
  20867a:	002107b7          	lui	a5,0x210
  20867e:	e507b703          	ld	a4,-432(a5) # 20fe50 <reqPoolPtr>
  208682:	fec46683          	lwu	a3,-20(s0)
  208686:	03400793          	li	a5,52
  20868a:	02f687b3          	mul	a5,a3,a5
  20868e:	97ba                	add	a5,a5,a4
  208690:	4b9c                	lw	a5,16(a5)
  208692:	0047d79b          	srliw	a5,a5,0x4
  208696:	8b85                	andi	a5,a5,1
  208698:	0ff7f793          	andi	a5,a5,255
  20869c:	873e                	mv	a4,a5
  20869e:	4785                	li	a5,1
  2086a0:	02f71b63          	bne	a4,a5,2086d6 <IssueNandReq+0x1cc>
  2086a4:	002107b7          	lui	a5,0x210
  2086a8:	0c878713          	addi	a4,a5,200 # 2100c8 <chCtlReg>
  2086ac:	fbc46783          	lwu	a5,-68(s0)
  2086b0:	078e                	slli	a5,a5,0x3
  2086b2:	97ba                	add	a5,a5,a4
  2086b4:	6388                	ld	a0,0(a5)
  2086b6:	fb842583          	lw	a1,-72(s0)
  2086ba:	fe842783          	lw	a5,-24(s0)
  2086be:	883e                	mv	a6,a5
  2086c0:	fc843783          	ld	a5,-56(s0)
  2086c4:	fd043703          	ld	a4,-48(s0)
  2086c8:	fd843683          	ld	a3,-40(s0)
  2086cc:	fe043603          	ld	a2,-32(s0)
  2086d0:	406010ef          	jal	ra,209ad6 <V2FReadPageTransferAsync>
  2086d4:	a2f5                	j	2088c0 <IssueNandReq+0x3b6>
  2086d6:	002107b7          	lui	a5,0x210
  2086da:	0c878713          	addi	a4,a5,200 # 2100c8 <chCtlReg>
  2086de:	fbc46783          	lwu	a5,-68(s0)
  2086e2:	078e                	slli	a5,a5,0x3
  2086e4:	97ba                	add	a5,a5,a4
  2086e6:	639c                	ld	a5,0(a5)
  2086e8:	fb842703          	lw	a4,-72(s0)
  2086ec:	fc843683          	ld	a3,-56(s0)
  2086f0:	fe043603          	ld	a2,-32(s0)
  2086f4:	85ba                	mv	a1,a4
  2086f6:	853e                	mv	a0,a5
  2086f8:	46e010ef          	jal	ra,209b66 <V2FReadPageTransferRawAsync>
  2086fc:	a2d1                	j	2088c0 <IssueNandReq+0x3b6>
  2086fe:	002107b7          	lui	a5,0x210
  208702:	e507b703          	ld	a4,-432(a5) # 20fe50 <reqPoolPtr>
  208706:	fec46683          	lwu	a3,-20(s0)
  20870a:	03400793          	li	a5,52
  20870e:	02f687b3          	mul	a5,a3,a5
  208712:	97ba                	add	a5,a5,a4
  208714:	0017c783          	lbu	a5,1(a5)
  208718:	ebb1                	bnez	a5,20876c <IssueNandReq+0x262>
  20871a:	002107b7          	lui	a5,0x210
  20871e:	0b07b703          	ld	a4,176(a5) # 2100b0 <dieStateTablePtr>
  208722:	fb846783          	lwu	a5,-72(s0)
  208726:	fbc46683          	lwu	a3,-68(s0)
  20872a:	068e                	slli	a3,a3,0x3
  20872c:	97b6                	add	a5,a5,a3
  20872e:	078a                	slli	a5,a5,0x2
  208730:	97ba                	add	a5,a5,a4
  208732:	4394                	lw	a3,0(a5)
  208734:	777d                	lui	a4,0xfffff
  208736:	0ff70713          	addi	a4,a4,255 # fffffffffffff0ff <g_nvmeTask+0xffffffffffdeefb7>
  20873a:	8f75                	and	a4,a4,a3
  20873c:	10076713          	ori	a4,a4,256
  208740:	c398                	sw	a4,0(a5)
  208742:	002107b7          	lui	a5,0x210
  208746:	0c878713          	addi	a4,a5,200 # 2100c8 <chCtlReg>
  20874a:	fbc46783          	lwu	a5,-68(s0)
  20874e:	078e                	slli	a5,a5,0x3
  208750:	97ba                	add	a5,a5,a4
  208752:	639c                	ld	a5,0(a5)
  208754:	fb842583          	lw	a1,-72(s0)
  208758:	fe842603          	lw	a2,-24(s0)
  20875c:	fd843703          	ld	a4,-40(s0)
  208760:	fe043683          	ld	a3,-32(s0)
  208764:	853e                	mv	a0,a5
  208766:	45a010ef          	jal	ra,209bc0 <V2FProgramPageAsync>
  20876a:	aa99                	j	2088c0 <IssueNandReq+0x3b6>
  20876c:	002107b7          	lui	a5,0x210
  208770:	e507b703          	ld	a4,-432(a5) # 20fe50 <reqPoolPtr>
  208774:	fec46683          	lwu	a3,-20(s0)
  208778:	03400793          	li	a5,52
  20877c:	02f687b3          	mul	a5,a3,a5
  208780:	97ba                	add	a5,a5,a4
  208782:	0017c783          	lbu	a5,1(a5)
  208786:	873e                	mv	a4,a5
  208788:	47b1                	li	a5,12
  20878a:	04f71963          	bne	a4,a5,2087dc <IssueNandReq+0x2d2>
  20878e:	002107b7          	lui	a5,0x210
  208792:	0b07b703          	ld	a4,176(a5) # 2100b0 <dieStateTablePtr>
  208796:	fb846783          	lwu	a5,-72(s0)
  20879a:	fbc46683          	lwu	a3,-68(s0)
  20879e:	068e                	slli	a3,a3,0x3
  2087a0:	97b6                	add	a5,a5,a3
  2087a2:	078a                	slli	a5,a5,0x2
  2087a4:	97ba                	add	a5,a5,a4
  2087a6:	4394                	lw	a3,0(a5)
  2087a8:	777d                	lui	a4,0xfffff
  2087aa:	0ff70713          	addi	a4,a4,255 # fffffffffffff0ff <g_nvmeTask+0xffffffffffdeefb7>
  2087ae:	8f75                	and	a4,a4,a3
  2087b0:	10076713          	ori	a4,a4,256
  2087b4:	c398                	sw	a4,0(a5)
  2087b6:	002107b7          	lui	a5,0x210
  2087ba:	0c878713          	addi	a4,a5,200 # 2100c8 <chCtlReg>
  2087be:	fbc46783          	lwu	a5,-68(s0)
  2087c2:	078e                	slli	a5,a5,0x3
  2087c4:	97ba                	add	a5,a5,a4
  2087c6:	639c                	ld	a5,0(a5)
  2087c8:	fb842703          	lw	a4,-72(s0)
  2087cc:	fe842683          	lw	a3,-24(s0)
  2087d0:	8636                	mv	a2,a3
  2087d2:	85ba                	mv	a1,a4
  2087d4:	853e                	mv	a0,a5
  2087d6:	44c010ef          	jal	ra,209c22 <V2FEraseBlockAsync>
  2087da:	a0dd                	j	2088c0 <IssueNandReq+0x3b6>
  2087dc:	002107b7          	lui	a5,0x210
  2087e0:	e507b703          	ld	a4,-432(a5) # 20fe50 <reqPoolPtr>
  2087e4:	fec46683          	lwu	a3,-20(s0)
  2087e8:	03400793          	li	a5,52
  2087ec:	02f687b3          	mul	a5,a3,a5
  2087f0:	97ba                	add	a5,a5,a4
  2087f2:	0017c783          	lbu	a5,1(a5)
  2087f6:	873e                	mv	a4,a5
  2087f8:	47b5                	li	a5,13
  2087fa:	04f71463          	bne	a4,a5,208842 <IssueNandReq+0x338>
  2087fe:	002107b7          	lui	a5,0x210
  208802:	0b07b703          	ld	a4,176(a5) # 2100b0 <dieStateTablePtr>
  208806:	fb846783          	lwu	a5,-72(s0)
  20880a:	fbc46683          	lwu	a3,-68(s0)
  20880e:	068e                	slli	a3,a3,0x3
  208810:	97b6                	add	a5,a5,a3
  208812:	078a                	slli	a5,a5,0x2
  208814:	97ba                	add	a5,a5,a4
  208816:	4394                	lw	a3,0(a5)
  208818:	777d                	lui	a4,0xfffff
  20881a:	0ff70713          	addi	a4,a4,255 # fffffffffffff0ff <g_nvmeTask+0xffffffffffdeefb7>
  20881e:	8f75                	and	a4,a4,a3
  208820:	c398                	sw	a4,0(a5)
  208822:	002107b7          	lui	a5,0x210
  208826:	0c878713          	addi	a4,a5,200 # 2100c8 <chCtlReg>
  20882a:	fbc46783          	lwu	a5,-68(s0)
  20882e:	078e                	slli	a5,a5,0x3
  208830:	97ba                	add	a5,a5,a4
  208832:	639c                	ld	a5,0(a5)
  208834:	fb842703          	lw	a4,-72(s0)
  208838:	85ba                	mv	a1,a4
  20883a:	853e                	mv	a0,a5
  20883c:	0bc010ef          	jal	ra,2098f8 <V2FResetSync>
  208840:	a041                	j	2088c0 <IssueNandReq+0x3b6>
  208842:	002107b7          	lui	a5,0x210
  208846:	e507b703          	ld	a4,-432(a5) # 20fe50 <reqPoolPtr>
  20884a:	fec46683          	lwu	a3,-20(s0)
  20884e:	03400793          	li	a5,52
  208852:	02f687b3          	mul	a5,a3,a5
  208856:	97ba                	add	a5,a5,a4
  208858:	0017c783          	lbu	a5,1(a5)
  20885c:	873e                	mv	a4,a5
  20885e:	47b9                	li	a5,14
  208860:	04f71a63          	bne	a4,a5,2088b4 <IssueNandReq+0x3aa>
  208864:	002107b7          	lui	a5,0x210
  208868:	0b07b703          	ld	a4,176(a5) # 2100b0 <dieStateTablePtr>
  20886c:	fb846783          	lwu	a5,-72(s0)
  208870:	fbc46683          	lwu	a3,-68(s0)
  208874:	068e                	slli	a3,a3,0x3
  208876:	97b6                	add	a5,a5,a3
  208878:	078a                	slli	a5,a5,0x2
  20887a:	97ba                	add	a5,a5,a4
  20887c:	4394                	lw	a3,0(a5)
  20887e:	777d                	lui	a4,0xfffff
  208880:	0ff70713          	addi	a4,a4,255 # fffffffffffff0ff <g_nvmeTask+0xffffffffffdeefb7>
  208884:	8f75                	and	a4,a4,a3
  208886:	c398                	sw	a4,0(a5)
  208888:	002107b7          	lui	a5,0x210
  20888c:	0c878713          	addi	a4,a5,200 # 2100c8 <chCtlReg>
  208890:	fbc46783          	lwu	a5,-68(s0)
  208894:	078e                	slli	a5,a5,0x3
  208896:	97ba                	add	a5,a5,a4
  208898:	6388                	ld	a0,0(a5)
  20889a:	fb842583          	lw	a1,-72(s0)
  20889e:	170017b7          	lui	a5,0x17001
  2088a2:	d0078793          	addi	a5,a5,-768 # 17000d00 <g_nvmeTask+0x16df0bb8>
  2088a6:	02000713          	li	a4,32
  2088aa:	46a1                	li	a3,8
  2088ac:	4619                	li	a2,6
  2088ae:	08c010ef          	jal	ra,20993a <V2FSetFeaturesSync>
  2088b2:	a039                	j	2088c0 <IssueNandReq+0x3b6>
  2088b4:	0020f7b7          	lui	a5,0x20f
  2088b8:	22078513          	addi	a0,a5,544 # 20f220 <nvme_main+0x8a8>
  2088bc:	d5dfb0ef          	jal	ra,204618 <cpl_print>
  2088c0:	0001                	nop
  2088c2:	60a6                	ld	ra,72(sp)
  2088c4:	6406                	ld	s0,64(sp)
  2088c6:	6161                	addi	sp,sp,80
  2088c8:	8082                	ret

00000000002088ca <GenerateNandRowAddr>:
  2088ca:	7139                	addi	sp,sp,-64
  2088cc:	fc06                	sd	ra,56(sp)
  2088ce:	f822                	sd	s0,48(sp)
  2088d0:	0080                	addi	s0,sp,64
  2088d2:	87aa                	mv	a5,a0
  2088d4:	fcf42623          	sw	a5,-52(s0)
  2088d8:	002107b7          	lui	a5,0x210
  2088dc:	e507b703          	ld	a4,-432(a5) # 20fe50 <reqPoolPtr>
  2088e0:	fcc46683          	lwu	a3,-52(s0)
  2088e4:	03400793          	li	a5,52
  2088e8:	02f687b3          	mul	a5,a3,a5
  2088ec:	97ba                	add	a5,a5,a4
  2088ee:	4b9c                	lw	a5,16(a5)
  2088f0:	0027d79b          	srliw	a5,a5,0x2
  2088f4:	8b8d                	andi	a5,a5,3
  2088f6:	0ff7f793          	andi	a5,a5,255
  2088fa:	10079063          	bnez	a5,2089fa <GenerateNandRowAddr+0x130>
  2088fe:	002107b7          	lui	a5,0x210
  208902:	e507b703          	ld	a4,-432(a5) # 20fe50 <reqPoolPtr>
  208906:	fcc46683          	lwu	a3,-52(s0)
  20890a:	03400793          	li	a5,52
  20890e:	02f687b3          	mul	a5,a3,a5
  208912:	97ba                	add	a5,a5,a4
  208914:	53dc                	lw	a5,36(a5)
  208916:	03f7f793          	andi	a5,a5,63
  20891a:	fcf42e23          	sw	a5,-36(s0)
  20891e:	002107b7          	lui	a5,0x210
  208922:	e507b703          	ld	a4,-432(a5) # 20fe50 <reqPoolPtr>
  208926:	fcc46683          	lwu	a3,-52(s0)
  20892a:	03400793          	li	a5,52
  20892e:	02f687b3          	mul	a5,a3,a5
  208932:	97ba                	add	a5,a5,a4
  208934:	53dc                	lw	a5,36(a5)
  208936:	00d7d79b          	srliw	a5,a5,0xd
  20893a:	fcf42c23          	sw	a5,-40(s0)
  20893e:	fd842783          	lw	a5,-40(s0)
  208942:	00c7d79b          	srliw	a5,a5,0xc
  208946:	0007871b          	sext.w	a4,a5
  20894a:	6785                	lui	a5,0x1
  20894c:	0587879b          	addiw	a5,a5,88
  208950:	02f707bb          	mulw	a5,a4,a5
  208954:	0007871b          	sext.w	a4,a5
  208958:	fd842683          	lw	a3,-40(s0)
  20895c:	6785                	lui	a5,0x1
  20895e:	17fd                	addi	a5,a5,-1
  208960:	8ff5                	and	a5,a5,a3
  208962:	2781                	sext.w	a5,a5
  208964:	9fb9                	addw	a5,a5,a4
  208966:	fcf42a23          	sw	a5,-44(s0)
  20896a:	fd442703          	lw	a4,-44(s0)
  20896e:	6785                	lui	a5,0x1
  208970:	0587879b          	addiw	a5,a5,88
  208974:	02f757bb          	divuw	a5,a4,a5
  208978:	fef42423          	sw	a5,-24(s0)
  20897c:	002107b7          	lui	a5,0x210
  208980:	c307b703          	ld	a4,-976(a5) # 20fc30 <phyBlockMapPtr>
  208984:	fd446783          	lwu	a5,-44(s0)
  208988:	fdc46603          	lwu	a2,-36(s0)
  20898c:	6689                	lui	a3,0x2
  20898e:	0b068693          	addi	a3,a3,176 # 20b0 <start-0x1fdf50>
  208992:	02d606b3          	mul	a3,a2,a3
  208996:	97b6                	add	a5,a5,a3
  208998:	078a                	slli	a5,a5,0x2
  20899a:	97ba                	add	a5,a5,a4
  20899c:	0007d783          	lhu	a5,0(a5)
  2089a0:	873e                	mv	a4,a5
  2089a2:	6785                	lui	a5,0x1
  2089a4:	0587879b          	addiw	a5,a5,88
  2089a8:	02f777bb          	remuw	a5,a4,a5
  2089ac:	17c2                	slli	a5,a5,0x30
  2089ae:	93c1                	srli	a5,a5,0x30
  2089b0:	fef42223          	sw	a5,-28(s0)
  2089b4:	002107b7          	lui	a5,0x210
  2089b8:	e507b703          	ld	a4,-432(a5) # 20fe50 <reqPoolPtr>
  2089bc:	fcc46683          	lwu	a3,-52(s0)
  2089c0:	03400793          	li	a5,52
  2089c4:	02f687b3          	mul	a5,a3,a5
  2089c8:	97ba                	add	a5,a5,a4
  2089ca:	53dc                	lw	a5,36(a5)
  2089cc:	0067d79b          	srliw	a5,a5,0x6
  2089d0:	2781                	sext.w	a5,a5
  2089d2:	07f7f793          	andi	a5,a5,127
  2089d6:	fef42023          	sw	a5,-32(s0)
  2089da:	fe042783          	lw	a5,-32(s0)
  2089de:	2781                	sext.w	a5,a5
  2089e0:	cb89                	beqz	a5,2089f2 <GenerateNandRowAddr+0x128>
  2089e2:	fe042783          	lw	a5,-32(s0)
  2089e6:	0017979b          	slliw	a5,a5,0x1
  2089ea:	2781                	sext.w	a5,a5
  2089ec:	37fd                	addiw	a5,a5,-1
  2089ee:	2781                	sext.w	a5,a5
  2089f0:	a011                	j	2089f4 <GenerateNandRowAddr+0x12a>
  2089f2:	4781                	li	a5,0
  2089f4:	fef42023          	sw	a5,-32(s0)
  2089f8:	ac0d                	j	208c2a <GenerateNandRowAddr+0x360>
  2089fa:	002107b7          	lui	a5,0x210
  2089fe:	e507b703          	ld	a4,-432(a5) # 20fe50 <reqPoolPtr>
  208a02:	fcc46683          	lwu	a3,-52(s0)
  208a06:	03400793          	li	a5,52
  208a0a:	02f687b3          	mul	a5,a3,a5
  208a0e:	97ba                	add	a5,a5,a4
  208a10:	4b9c                	lw	a5,16(a5)
  208a12:	0027d79b          	srliw	a5,a5,0x2
  208a16:	8b8d                	andi	a5,a5,3
  208a18:	0ff7f793          	andi	a5,a5,255
  208a1c:	873e                	mv	a4,a5
  208a1e:	4785                	li	a5,1
  208a20:	1ef71f63          	bne	a4,a5,208c1e <GenerateNandRowAddr+0x354>
  208a24:	002107b7          	lui	a5,0x210
  208a28:	e507b703          	ld	a4,-432(a5) # 20fe50 <reqPoolPtr>
  208a2c:	fcc46683          	lwu	a3,-52(s0)
  208a30:	03400793          	li	a5,52
  208a34:	02f687b3          	mul	a5,a3,a5
  208a38:	97ba                	add	a5,a5,a4
  208a3a:	53dc                	lw	a5,36(a5)
  208a3c:	8bbd                	andi	a5,a5,15
  208a3e:	0ff7f793          	andi	a5,a5,255
  208a42:	0007871b          	sext.w	a4,a5
  208a46:	002107b7          	lui	a5,0x210
  208a4a:	e507b683          	ld	a3,-432(a5) # 20fe50 <reqPoolPtr>
  208a4e:	fcc46603          	lwu	a2,-52(s0)
  208a52:	03400793          	li	a5,52
  208a56:	02f607b3          	mul	a5,a2,a5
  208a5a:	97b6                	add	a5,a5,a3
  208a5c:	53dc                	lw	a5,36(a5)
  208a5e:	0047d79b          	srliw	a5,a5,0x4
  208a62:	8bbd                	andi	a5,a5,15
  208a64:	0ff7f793          	andi	a5,a5,255
  208a68:	2781                	sext.w	a5,a5
  208a6a:	0037979b          	slliw	a5,a5,0x3
  208a6e:	2781                	sext.w	a5,a5
  208a70:	9fb9                	addw	a5,a5,a4
  208a72:	2781                	sext.w	a5,a5
  208a74:	fcf42e23          	sw	a5,-36(s0)
  208a78:	002107b7          	lui	a5,0x210
  208a7c:	e507b703          	ld	a4,-432(a5) # 20fe50 <reqPoolPtr>
  208a80:	fcc46683          	lwu	a3,-52(s0)
  208a84:	03400793          	li	a5,52
  208a88:	02f687b3          	mul	a5,a3,a5
  208a8c:	97ba                	add	a5,a5,a4
  208a8e:	4b9c                	lw	a5,16(a5)
  208a90:	0077d79b          	srliw	a5,a5,0x7
  208a94:	8b85                	andi	a5,a5,1
  208a96:	0ff7f793          	andi	a5,a5,255
  208a9a:	873e                	mv	a4,a5
  208a9c:	4785                	li	a5,1
  208a9e:	08f71863          	bne	a4,a5,208b2e <GenerateNandRowAddr+0x264>
  208aa2:	002107b7          	lui	a5,0x210
  208aa6:	e507b703          	ld	a4,-432(a5) # 20fe50 <reqPoolPtr>
  208aaa:	fcc46683          	lwu	a3,-52(s0)
  208aae:	03400793          	li	a5,52
  208ab2:	02f687b3          	mul	a5,a3,a5
  208ab6:	97ba                	add	a5,a5,a4
  208ab8:	53dc                	lw	a5,36(a5)
  208aba:	0087d79b          	srliw	a5,a5,0x8
  208abe:	9bfd                	andi	a5,a5,-1
  208ac0:	17c2                	slli	a5,a5,0x30
  208ac2:	93c1                	srli	a5,a5,0x30
  208ac4:	873e                	mv	a4,a5
  208ac6:	6785                	lui	a5,0x1
  208ac8:	0587879b          	addiw	a5,a5,88
  208acc:	02f757bb          	divuw	a5,a4,a5
  208ad0:	17c2                	slli	a5,a5,0x30
  208ad2:	93c1                	srli	a5,a5,0x30
  208ad4:	fef42423          	sw	a5,-24(s0)
  208ad8:	002107b7          	lui	a5,0x210
  208adc:	e507b703          	ld	a4,-432(a5) # 20fe50 <reqPoolPtr>
  208ae0:	fcc46683          	lwu	a3,-52(s0)
  208ae4:	03400793          	li	a5,52
  208ae8:	02f687b3          	mul	a5,a3,a5
  208aec:	97ba                	add	a5,a5,a4
  208aee:	53dc                	lw	a5,36(a5)
  208af0:	0087d79b          	srliw	a5,a5,0x8
  208af4:	9bfd                	andi	a5,a5,-1
  208af6:	17c2                	slli	a5,a5,0x30
  208af8:	93c1                	srli	a5,a5,0x30
  208afa:	873e                	mv	a4,a5
  208afc:	6785                	lui	a5,0x1
  208afe:	0587879b          	addiw	a5,a5,88
  208b02:	02f777bb          	remuw	a5,a4,a5
  208b06:	17c2                	slli	a5,a5,0x30
  208b08:	93c1                	srli	a5,a5,0x30
  208b0a:	fef42223          	sw	a5,-28(s0)
  208b0e:	002107b7          	lui	a5,0x210
  208b12:	e507b703          	ld	a4,-432(a5) # 20fe50 <reqPoolPtr>
  208b16:	fcc46683          	lwu	a3,-52(s0)
  208b1a:	03400793          	li	a5,52
  208b1e:	02f687b3          	mul	a5,a3,a5
  208b22:	97ba                	add	a5,a5,a4
  208b24:	0287d783          	lhu	a5,40(a5)
  208b28:	fef42023          	sw	a5,-32(s0)
  208b2c:	a8fd                	j	208c2a <GenerateNandRowAddr+0x360>
  208b2e:	002107b7          	lui	a5,0x210
  208b32:	e507b703          	ld	a4,-432(a5) # 20fe50 <reqPoolPtr>
  208b36:	fcc46683          	lwu	a3,-52(s0)
  208b3a:	03400793          	li	a5,52
  208b3e:	02f687b3          	mul	a5,a3,a5
  208b42:	97ba                	add	a5,a5,a4
  208b44:	4b9c                	lw	a5,16(a5)
  208b46:	0077d79b          	srliw	a5,a5,0x7
  208b4a:	8b85                	andi	a5,a5,1
  208b4c:	0ff7f793          	andi	a5,a5,255
  208b50:	efe9                	bnez	a5,208c2a <GenerateNandRowAddr+0x360>
  208b52:	002107b7          	lui	a5,0x210
  208b56:	e507b703          	ld	a4,-432(a5) # 20fe50 <reqPoolPtr>
  208b5a:	fcc46683          	lwu	a3,-52(s0)
  208b5e:	03400793          	li	a5,52
  208b62:	02f687b3          	mul	a5,a3,a5
  208b66:	97ba                	add	a5,a5,a4
  208b68:	53dc                	lw	a5,36(a5)
  208b6a:	0087d79b          	srliw	a5,a5,0x8
  208b6e:	9bfd                	andi	a5,a5,-1
  208b70:	17c2                	slli	a5,a5,0x30
  208b72:	93c1                	srli	a5,a5,0x30
  208b74:	00c7d79b          	srliw	a5,a5,0xc
  208b78:	17c2                	slli	a5,a5,0x30
  208b7a:	93c1                	srli	a5,a5,0x30
  208b7c:	fef42423          	sw	a5,-24(s0)
  208b80:	002107b7          	lui	a5,0x210
  208b84:	e507b703          	ld	a4,-432(a5) # 20fe50 <reqPoolPtr>
  208b88:	fcc46683          	lwu	a3,-52(s0)
  208b8c:	03400793          	li	a5,52
  208b90:	02f687b3          	mul	a5,a3,a5
  208b94:	97ba                	add	a5,a5,a4
  208b96:	53dc                	lw	a5,36(a5)
  208b98:	0087d79b          	srliw	a5,a5,0x8
  208b9c:	9bfd                	andi	a5,a5,-1
  208b9e:	17c2                	slli	a5,a5,0x30
  208ba0:	93c1                	srli	a5,a5,0x30
  208ba2:	2781                	sext.w	a5,a5
  208ba4:	873e                	mv	a4,a5
  208ba6:	6785                	lui	a5,0x1
  208ba8:	17fd                	addi	a5,a5,-1
  208baa:	8ff9                	and	a5,a5,a4
  208bac:	0007871b          	sext.w	a4,a5
  208bb0:	fe842683          	lw	a3,-24(s0)
  208bb4:	6785                	lui	a5,0x1
  208bb6:	0587879b          	addiw	a5,a5,88
  208bba:	02f687bb          	mulw	a5,a3,a5
  208bbe:	2781                	sext.w	a5,a5
  208bc0:	9fb9                	addw	a5,a5,a4
  208bc2:	fef42223          	sw	a5,-28(s0)
  208bc6:	002107b7          	lui	a5,0x210
  208bca:	c307b703          	ld	a4,-976(a5) # 20fc30 <phyBlockMapPtr>
  208bce:	fe446783          	lwu	a5,-28(s0)
  208bd2:	fdc46603          	lwu	a2,-36(s0)
  208bd6:	6689                	lui	a3,0x2
  208bd8:	0b068693          	addi	a3,a3,176 # 20b0 <start-0x1fdf50>
  208bdc:	02d606b3          	mul	a3,a2,a3
  208be0:	97b6                	add	a5,a5,a3
  208be2:	078a                	slli	a5,a5,0x2
  208be4:	97ba                	add	a5,a5,a4
  208be6:	0007d783          	lhu	a5,0(a5)
  208bea:	873e                	mv	a4,a5
  208bec:	6785                	lui	a5,0x1
  208bee:	0587879b          	addiw	a5,a5,88
  208bf2:	02f777bb          	remuw	a5,a4,a5
  208bf6:	17c2                	slli	a5,a5,0x30
  208bf8:	93c1                	srli	a5,a5,0x30
  208bfa:	fef42223          	sw	a5,-28(s0)
  208bfe:	002107b7          	lui	a5,0x210
  208c02:	e507b703          	ld	a4,-432(a5) # 20fe50 <reqPoolPtr>
  208c06:	fcc46683          	lwu	a3,-52(s0)
  208c0a:	03400793          	li	a5,52
  208c0e:	02f687b3          	mul	a5,a3,a5
  208c12:	97ba                	add	a5,a5,a4
  208c14:	0287d783          	lhu	a5,40(a5)
  208c18:	fef42023          	sw	a5,-32(s0)
  208c1c:	a039                	j	208c2a <GenerateNandRowAddr+0x360>
  208c1e:	0020f7b7          	lui	a5,0x20f
  208c22:	25078513          	addi	a0,a5,592 # 20f250 <nvme_main+0x8d8>
  208c26:	9f3fb0ef          	jal	ra,204618 <cpl_print>
  208c2a:	fe842783          	lw	a5,-24(s0)
  208c2e:	2781                	sext.w	a5,a5
  208c30:	ef81                	bnez	a5,208c48 <GenerateNandRowAddr+0x37e>
  208c32:	fe442783          	lw	a5,-28(s0)
  208c36:	0087979b          	slliw	a5,a5,0x8
  208c3a:	2781                	sext.w	a5,a5
  208c3c:	fe042703          	lw	a4,-32(s0)
  208c40:	9fb9                	addw	a5,a5,a4
  208c42:	fef42623          	sw	a5,-20(s0)
  208c46:	a831                	j	208c62 <GenerateNandRowAddr+0x398>
  208c48:	fe442703          	lw	a4,-28(s0)
  208c4c:	6789                	lui	a5,0x2
  208c4e:	9fb9                	addw	a5,a5,a4
  208c50:	2781                	sext.w	a5,a5
  208c52:	0087979b          	slliw	a5,a5,0x8
  208c56:	2781                	sext.w	a5,a5
  208c58:	fe042703          	lw	a4,-32(s0)
  208c5c:	9fb9                	addw	a5,a5,a4
  208c5e:	fef42623          	sw	a5,-20(s0)
  208c62:	fec42783          	lw	a5,-20(s0)
  208c66:	853e                	mv	a0,a5
  208c68:	70e2                	ld	ra,56(sp)
  208c6a:	7442                	ld	s0,48(sp)
  208c6c:	6121                	addi	sp,sp,64
  208c6e:	8082                	ret

0000000000208c70 <GenerateDataBufAddr>:
  208c70:	1101                	addi	sp,sp,-32
  208c72:	ec06                	sd	ra,24(sp)
  208c74:	e822                	sd	s0,16(sp)
  208c76:	1000                	addi	s0,sp,32
  208c78:	87aa                	mv	a5,a0
  208c7a:	fef42623          	sw	a5,-20(s0)
  208c7e:	002107b7          	lui	a5,0x210
  208c82:	e507b703          	ld	a4,-432(a5) # 20fe50 <reqPoolPtr>
  208c86:	fec46683          	lwu	a3,-20(s0)
  208c8a:	03400793          	li	a5,52
  208c8e:	02f687b3          	mul	a5,a3,a5
  208c92:	97ba                	add	a5,a5,a4
  208c94:	439c                	lw	a5,0(a5)
  208c96:	8bbd                	andi	a5,a5,15
  208c98:	0ff7f793          	andi	a5,a5,255
  208c9c:	873e                	mv	a4,a5
  208c9e:	4785                	li	a5,1
  208ca0:	0ef71063          	bne	a4,a5,208d80 <GenerateDataBufAddr+0x110>
  208ca4:	002107b7          	lui	a5,0x210
  208ca8:	e507b703          	ld	a4,-432(a5) # 20fe50 <reqPoolPtr>
  208cac:	fec46683          	lwu	a3,-20(s0)
  208cb0:	03400793          	li	a5,52
  208cb4:	02f687b3          	mul	a5,a3,a5
  208cb8:	97ba                	add	a5,a5,a4
  208cba:	4b9c                	lw	a5,16(a5)
  208cbc:	8b8d                	andi	a5,a5,3
  208cbe:	0ff7f793          	andi	a5,a5,255
  208cc2:	e785                	bnez	a5,208cea <GenerateDataBufAddr+0x7a>
  208cc4:	002107b7          	lui	a5,0x210
  208cc8:	e507b703          	ld	a4,-432(a5) # 20fe50 <reqPoolPtr>
  208ccc:	fec46683          	lwu	a3,-20(s0)
  208cd0:	03400793          	li	a5,52
  208cd4:	02f687b3          	mul	a5,a3,a5
  208cd8:	97ba                	add	a5,a5,a4
  208cda:	4bd8                	lw	a4,20(a5)
  208cdc:	6791                	lui	a5,0x4
  208cde:	9fb9                	addw	a5,a5,a4
  208ce0:	2781                	sext.w	a5,a5
  208ce2:	00e7979b          	slliw	a5,a5,0xe
  208ce6:	2781                	sext.w	a5,a5
  208ce8:	a2a1                	j	208e30 <GenerateDataBufAddr+0x1c0>
  208cea:	002107b7          	lui	a5,0x210
  208cee:	e507b703          	ld	a4,-432(a5) # 20fe50 <reqPoolPtr>
  208cf2:	fec46683          	lwu	a3,-20(s0)
  208cf6:	03400793          	li	a5,52
  208cfa:	02f687b3          	mul	a5,a3,a5
  208cfe:	97ba                	add	a5,a5,a4
  208d00:	4b9c                	lw	a5,16(a5)
  208d02:	8b8d                	andi	a5,a5,3
  208d04:	0ff7f793          	andi	a5,a5,255
  208d08:	873e                	mv	a4,a5
  208d0a:	4785                	li	a5,1
  208d0c:	02f71763          	bne	a4,a5,208d3a <GenerateDataBufAddr+0xca>
  208d10:	002107b7          	lui	a5,0x210
  208d14:	e507b703          	ld	a4,-432(a5) # 20fe50 <reqPoolPtr>
  208d18:	fec46683          	lwu	a3,-20(s0)
  208d1c:	03400793          	li	a5,52
  208d20:	02f687b3          	mul	a5,a3,a5
  208d24:	97ba                	add	a5,a5,a4
  208d26:	4bd8                	lw	a4,20(a5)
  208d28:	6791                	lui	a5,0x4
  208d2a:	4007879b          	addiw	a5,a5,1024
  208d2e:	9fb9                	addw	a5,a5,a4
  208d30:	2781                	sext.w	a5,a5
  208d32:	00e7979b          	slliw	a5,a5,0xe
  208d36:	2781                	sext.w	a5,a5
  208d38:	a8e5                	j	208e30 <GenerateDataBufAddr+0x1c0>
  208d3a:	002107b7          	lui	a5,0x210
  208d3e:	e507b703          	ld	a4,-432(a5) # 20fe50 <reqPoolPtr>
  208d42:	fec46683          	lwu	a3,-20(s0)
  208d46:	03400793          	li	a5,52
  208d4a:	02f687b3          	mul	a5,a3,a5
  208d4e:	97ba                	add	a5,a5,a4
  208d50:	4b9c                	lw	a5,16(a5)
  208d52:	8b8d                	andi	a5,a5,3
  208d54:	0ff7f793          	andi	a5,a5,255
  208d58:	873e                	mv	a4,a5
  208d5a:	4789                	li	a5,2
  208d5c:	00f71f63          	bne	a4,a5,208d7a <GenerateDataBufAddr+0x10a>
  208d60:	002107b7          	lui	a5,0x210
  208d64:	e507b703          	ld	a4,-432(a5) # 20fe50 <reqPoolPtr>
  208d68:	fec46683          	lwu	a3,-20(s0)
  208d6c:	03400793          	li	a5,52
  208d70:	02f687b3          	mul	a5,a3,a5
  208d74:	97ba                	add	a5,a5,a4
  208d76:	4bdc                	lw	a5,20(a5)
  208d78:	a865                	j	208e30 <GenerateDataBufAddr+0x1c0>
  208d7a:	111447b7          	lui	a5,0x11144
  208d7e:	a84d                	j	208e30 <GenerateDataBufAddr+0x1c0>
  208d80:	002107b7          	lui	a5,0x210
  208d84:	e507b703          	ld	a4,-432(a5) # 20fe50 <reqPoolPtr>
  208d88:	fec46683          	lwu	a3,-20(s0)
  208d8c:	03400793          	li	a5,52
  208d90:	02f687b3          	mul	a5,a3,a5
  208d94:	97ba                	add	a5,a5,a4
  208d96:	439c                	lw	a5,0(a5)
  208d98:	8bbd                	andi	a5,a5,15
  208d9a:	0ff7f793          	andi	a5,a5,255
  208d9e:	873e                	mv	a4,a5
  208da0:	4789                	li	a5,2
  208da2:	08f71163          	bne	a4,a5,208e24 <GenerateDataBufAddr+0x1b4>
  208da6:	002107b7          	lui	a5,0x210
  208daa:	e507b703          	ld	a4,-432(a5) # 20fe50 <reqPoolPtr>
  208dae:	fec46683          	lwu	a3,-20(s0)
  208db2:	03400793          	li	a5,52
  208db6:	02f687b3          	mul	a5,a3,a5
  208dba:	97ba                	add	a5,a5,a4
  208dbc:	4b9c                	lw	a5,16(a5)
  208dbe:	8b8d                	andi	a5,a5,3
  208dc0:	0ff7f793          	andi	a5,a5,255
  208dc4:	eba9                	bnez	a5,208e16 <GenerateDataBufAddr+0x1a6>
  208dc6:	002107b7          	lui	a5,0x210
  208dca:	e507b703          	ld	a4,-432(a5) # 20fe50 <reqPoolPtr>
  208dce:	fec46683          	lwu	a3,-20(s0)
  208dd2:	03400793          	li	a5,52
  208dd6:	02f687b3          	mul	a5,a3,a5
  208dda:	97ba                	add	a5,a5,a4
  208ddc:	4bd8                	lw	a4,20(a5)
  208dde:	6791                	lui	a5,0x4
  208de0:	9fb9                	addw	a5,a5,a4
  208de2:	2781                	sext.w	a5,a5
  208de4:	00e7979b          	slliw	a5,a5,0xe
  208de8:	0007871b          	sext.w	a4,a5
  208dec:	002107b7          	lui	a5,0x210
  208df0:	e507b683          	ld	a3,-432(a5) # 20fe50 <reqPoolPtr>
  208df4:	fec46603          	lwu	a2,-20(s0)
  208df8:	03400793          	li	a5,52
  208dfc:	02f607b3          	mul	a5,a2,a5
  208e00:	97b6                	add	a5,a5,a3
  208e02:	01a7d783          	lhu	a5,26(a5)
  208e06:	2781                	sext.w	a5,a5
  208e08:	00c7979b          	slliw	a5,a5,0xc
  208e0c:	2781                	sext.w	a5,a5
  208e0e:	2781                	sext.w	a5,a5
  208e10:	9fb9                	addw	a5,a5,a4
  208e12:	2781                	sext.w	a5,a5
  208e14:	a831                	j	208e30 <GenerateDataBufAddr+0x1c0>
  208e16:	0020f7b7          	lui	a5,0x20f
  208e1a:	28078513          	addi	a0,a5,640 # 20f280 <nvme_main+0x908>
  208e1e:	ffafb0ef          	jal	ra,204618 <cpl_print>
  208e22:	a039                	j	208e30 <GenerateDataBufAddr+0x1c0>
  208e24:	0020f7b7          	lui	a5,0x20f
  208e28:	2b078513          	addi	a0,a5,688 # 20f2b0 <nvme_main+0x938>
  208e2c:	fecfb0ef          	jal	ra,204618 <cpl_print>
  208e30:	853e                	mv	a0,a5
  208e32:	60e2                	ld	ra,24(sp)
  208e34:	6442                	ld	s0,16(sp)
  208e36:	6105                	addi	sp,sp,32
  208e38:	8082                	ret

0000000000208e3a <GenerateSpareDataBufAddr>:
  208e3a:	1101                	addi	sp,sp,-32
  208e3c:	ec06                	sd	ra,24(sp)
  208e3e:	e822                	sd	s0,16(sp)
  208e40:	1000                	addi	s0,sp,32
  208e42:	87aa                	mv	a5,a0
  208e44:	fef42623          	sw	a5,-20(s0)
  208e48:	002107b7          	lui	a5,0x210
  208e4c:	e507b703          	ld	a4,-432(a5) # 20fe50 <reqPoolPtr>
  208e50:	fec46683          	lwu	a3,-20(s0)
  208e54:	03400793          	li	a5,52
  208e58:	02f687b3          	mul	a5,a3,a5
  208e5c:	97ba                	add	a5,a5,a4
  208e5e:	439c                	lw	a5,0(a5)
  208e60:	8bbd                	andi	a5,a5,15
  208e62:	0ff7f793          	andi	a5,a5,255
  208e66:	873e                	mv	a4,a5
  208e68:	4785                	li	a5,1
  208e6a:	0ef71563          	bne	a4,a5,208f54 <GenerateSpareDataBufAddr+0x11a>
  208e6e:	002107b7          	lui	a5,0x210
  208e72:	e507b703          	ld	a4,-432(a5) # 20fe50 <reqPoolPtr>
  208e76:	fec46683          	lwu	a3,-20(s0)
  208e7a:	03400793          	li	a5,52
  208e7e:	02f687b3          	mul	a5,a3,a5
  208e82:	97ba                	add	a5,a5,a4
  208e84:	4b9c                	lw	a5,16(a5)
  208e86:	8b8d                	andi	a5,a5,3
  208e88:	0ff7f793          	andi	a5,a5,255
  208e8c:	e78d                	bnez	a5,208eb6 <GenerateSpareDataBufAddr+0x7c>
  208e8e:	002107b7          	lui	a5,0x210
  208e92:	e507b703          	ld	a4,-432(a5) # 20fe50 <reqPoolPtr>
  208e96:	fec46683          	lwu	a3,-20(s0)
  208e9a:	03400793          	li	a5,52
  208e9e:	02f687b3          	mul	a5,a3,a5
  208ea2:	97ba                	add	a5,a5,a4
  208ea4:	4bd8                	lw	a4,20(a5)
  208ea6:	001117b7          	lui	a5,0x111
  208eaa:	9fb9                	addw	a5,a5,a4
  208eac:	2781                	sext.w	a5,a5
  208eae:	0087979b          	slliw	a5,a5,0x8
  208eb2:	2781                	sext.w	a5,a5
  208eb4:	a225                	j	208fdc <GenerateSpareDataBufAddr+0x1a2>
  208eb6:	002107b7          	lui	a5,0x210
  208eba:	e507b703          	ld	a4,-432(a5) # 20fe50 <reqPoolPtr>
  208ebe:	fec46683          	lwu	a3,-20(s0)
  208ec2:	03400793          	li	a5,52
  208ec6:	02f687b3          	mul	a5,a3,a5
  208eca:	97ba                	add	a5,a5,a4
  208ecc:	4b9c                	lw	a5,16(a5)
  208ece:	8b8d                	andi	a5,a5,3
  208ed0:	0ff7f793          	andi	a5,a5,255
  208ed4:	873e                	mv	a4,a5
  208ed6:	4785                	li	a5,1
  208ed8:	02f71863          	bne	a4,a5,208f08 <GenerateSpareDataBufAddr+0xce>
  208edc:	002107b7          	lui	a5,0x210
  208ee0:	e507b703          	ld	a4,-432(a5) # 20fe50 <reqPoolPtr>
  208ee4:	fec46683          	lwu	a3,-20(s0)
  208ee8:	03400793          	li	a5,52
  208eec:	02f687b3          	mul	a5,a3,a5
  208ef0:	97ba                	add	a5,a5,a4
  208ef2:	4bd8                	lw	a4,20(a5)
  208ef4:	001117b7          	lui	a5,0x111
  208ef8:	4007879b          	addiw	a5,a5,1024
  208efc:	9fb9                	addw	a5,a5,a4
  208efe:	2781                	sext.w	a5,a5
  208f00:	0087979b          	slliw	a5,a5,0x8
  208f04:	2781                	sext.w	a5,a5
  208f06:	a8d9                	j	208fdc <GenerateSpareDataBufAddr+0x1a2>
  208f08:	002107b7          	lui	a5,0x210
  208f0c:	e507b703          	ld	a4,-432(a5) # 20fe50 <reqPoolPtr>
  208f10:	fec46683          	lwu	a3,-20(s0)
  208f14:	03400793          	li	a5,52
  208f18:	02f687b3          	mul	a5,a3,a5
  208f1c:	97ba                	add	a5,a5,a4
  208f1e:	4b9c                	lw	a5,16(a5)
  208f20:	8b8d                	andi	a5,a5,3
  208f22:	0ff7f793          	andi	a5,a5,255
  208f26:	873e                	mv	a4,a5
  208f28:	4789                	li	a5,2
  208f2a:	02f71263          	bne	a4,a5,208f4e <GenerateSpareDataBufAddr+0x114>
  208f2e:	002107b7          	lui	a5,0x210
  208f32:	e507b703          	ld	a4,-432(a5) # 20fe50 <reqPoolPtr>
  208f36:	fec46683          	lwu	a3,-20(s0)
  208f3a:	03400793          	li	a5,52
  208f3e:	02f687b3          	mul	a5,a3,a5
  208f42:	97ba                	add	a5,a5,a4
  208f44:	4bd8                	lw	a4,20(a5)
  208f46:	6791                	lui	a5,0x4
  208f48:	9fb9                	addw	a5,a5,a4
  208f4a:	2781                	sext.w	a5,a5
  208f4c:	a841                	j	208fdc <GenerateSpareDataBufAddr+0x1a2>
  208f4e:	111487b7          	lui	a5,0x11148
  208f52:	a069                	j	208fdc <GenerateSpareDataBufAddr+0x1a2>
  208f54:	002107b7          	lui	a5,0x210
  208f58:	e507b703          	ld	a4,-432(a5) # 20fe50 <reqPoolPtr>
  208f5c:	fec46683          	lwu	a3,-20(s0)
  208f60:	03400793          	li	a5,52
  208f64:	02f687b3          	mul	a5,a3,a5
  208f68:	97ba                	add	a5,a5,a4
  208f6a:	439c                	lw	a5,0(a5)
  208f6c:	8bbd                	andi	a5,a5,15
  208f6e:	0ff7f793          	andi	a5,a5,255
  208f72:	873e                	mv	a4,a5
  208f74:	4789                	li	a5,2
  208f76:	04f71d63          	bne	a4,a5,208fd0 <GenerateSpareDataBufAddr+0x196>
  208f7a:	002107b7          	lui	a5,0x210
  208f7e:	e507b703          	ld	a4,-432(a5) # 20fe50 <reqPoolPtr>
  208f82:	fec46683          	lwu	a3,-20(s0)
  208f86:	03400793          	li	a5,52
  208f8a:	02f687b3          	mul	a5,a3,a5
  208f8e:	97ba                	add	a5,a5,a4
  208f90:	4b9c                	lw	a5,16(a5)
  208f92:	8b8d                	andi	a5,a5,3
  208f94:	0ff7f793          	andi	a5,a5,255
  208f98:	e78d                	bnez	a5,208fc2 <GenerateSpareDataBufAddr+0x188>
  208f9a:	002107b7          	lui	a5,0x210
  208f9e:	e507b703          	ld	a4,-432(a5) # 20fe50 <reqPoolPtr>
  208fa2:	fec46683          	lwu	a3,-20(s0)
  208fa6:	03400793          	li	a5,52
  208faa:	02f687b3          	mul	a5,a3,a5
  208fae:	97ba                	add	a5,a5,a4
  208fb0:	4bd8                	lw	a4,20(a5)
  208fb2:	001117b7          	lui	a5,0x111
  208fb6:	9fb9                	addw	a5,a5,a4
  208fb8:	2781                	sext.w	a5,a5
  208fba:	0087979b          	slliw	a5,a5,0x8
  208fbe:	2781                	sext.w	a5,a5
  208fc0:	a831                	j	208fdc <GenerateSpareDataBufAddr+0x1a2>
  208fc2:	0020f7b7          	lui	a5,0x20f
  208fc6:	28078513          	addi	a0,a5,640 # 20f280 <nvme_main+0x908>
  208fca:	e4efb0ef          	jal	ra,204618 <cpl_print>
  208fce:	a039                	j	208fdc <GenerateSpareDataBufAddr+0x1a2>
  208fd0:	0020f7b7          	lui	a5,0x20f
  208fd4:	2b078513          	addi	a0,a5,688 # 20f2b0 <nvme_main+0x938>
  208fd8:	e40fb0ef          	jal	ra,204618 <cpl_print>
  208fdc:	853e                	mv	a0,a5
  208fde:	60e2                	ld	ra,24(sp)
  208fe0:	6442                	ld	s0,16(sp)
  208fe2:	6105                	addi	sp,sp,32
  208fe4:	8082                	ret

0000000000208fe6 <CheckReqStatus>:
  208fe6:	7139                	addi	sp,sp,-64
  208fe8:	fc06                	sd	ra,56(sp)
  208fea:	f822                	sd	s0,48(sp)
  208fec:	0080                	addi	s0,sp,64
  208fee:	87aa                	mv	a5,a0
  208ff0:	872e                	mv	a4,a1
  208ff2:	fcf42623          	sw	a5,-52(s0)
  208ff6:	87ba                	mv	a5,a4
  208ff8:	fcf42423          	sw	a5,-56(s0)
  208ffc:	002107b7          	lui	a5,0x210
  209000:	e6878713          	addi	a4,a5,-408 # 20fe68 <nandReqQ>
  209004:	fc846783          	lwu	a5,-56(s0)
  209008:	fcc46683          	lwu	a3,-52(s0)
  20900c:	068e                	slli	a3,a3,0x3
  20900e:	97b6                	add	a5,a5,a3
  209010:	078e                	slli	a5,a5,0x3
  209012:	97ba                	add	a5,a5,a4
  209014:	0007d783          	lhu	a5,0(a5)
  209018:	fef42623          	sw	a5,-20(s0)
  20901c:	002107b7          	lui	a5,0x210
  209020:	0b07b703          	ld	a4,176(a5) # 2100b0 <dieStateTablePtr>
  209024:	fc846783          	lwu	a5,-56(s0)
  209028:	fcc46683          	lwu	a3,-52(s0)
  20902c:	068e                	slli	a3,a3,0x3
  20902e:	97b6                	add	a5,a5,a3
  209030:	078a                	slli	a5,a5,0x2
  209032:	97ba                	add	a5,a5,a4
  209034:	439c                	lw	a5,0(a5)
  209036:	0087d79b          	srliw	a5,a5,0x8
  20903a:	8bbd                	andi	a5,a5,15
  20903c:	0ff7f793          	andi	a5,a5,255
  209040:	873e                	mv	a4,a5
  209042:	478d                	li	a5,3
  209044:	08f71863          	bne	a4,a5,2090d4 <CheckReqStatus+0xee>
  209048:	002107b7          	lui	a5,0x210
  20904c:	0a87b703          	ld	a4,168(a5) # 2100a8 <completeFlagTablePtr>
  209050:	fc846783          	lwu	a5,-56(s0)
  209054:	fcc46683          	lwu	a3,-52(s0)
  209058:	068e                	slli	a3,a3,0x3
  20905a:	97b6                	add	a5,a5,a3
  20905c:	078a                	slli	a5,a5,0x2
  20905e:	97ba                	add	a5,a5,a4
  209060:	439c                	lw	a5,0(a5)
  209062:	fcf42a23          	sw	a5,-44(s0)
  209066:	fd442783          	lw	a5,-44(s0)
  20906a:	8b85                	andi	a5,a5,1
  20906c:	2781                	sext.w	a5,a5
  20906e:	22078b63          	beqz	a5,2092a4 <CheckReqStatus+0x2be>
  209072:	002107b7          	lui	a5,0x210
  209076:	e507b703          	ld	a4,-432(a5) # 20fe50 <reqPoolPtr>
  20907a:	fec46683          	lwu	a3,-20(s0)
  20907e:	03400793          	li	a5,52
  209082:	02f687b3          	mul	a5,a3,a5
  209086:	97ba                	add	a5,a5,a4
  209088:	4b9c                	lw	a5,16(a5)
  20908a:	0047d79b          	srliw	a5,a5,0x4
  20908e:	8b85                	andi	a5,a5,1
  209090:	0ff7f793          	andi	a5,a5,255
  209094:	873e                	mv	a4,a5
  209096:	4785                	li	a5,1
  209098:	02f71c63          	bne	a4,a5,2090d0 <CheckReqStatus+0xea>
  20909c:	fc842703          	lw	a4,-56(s0)
  2090a0:	fcc42783          	lw	a5,-52(s0)
  2090a4:	85ba                	mv	a1,a4
  2090a6:	853e                	mv	a0,a5
  2090a8:	208000ef          	jal	ra,2092b0 <CheckEccErrorInfo>
  2090ac:	87aa                	mv	a5,a0
  2090ae:	fcf42823          	sw	a5,-48(s0)
  2090b2:	fd042783          	lw	a5,-48(s0)
  2090b6:	0007871b          	sext.w	a4,a5
  2090ba:	4789                	li	a5,2
  2090bc:	00f71463          	bne	a4,a5,2090c4 <CheckReqStatus+0xde>
  2090c0:	478d                	li	a5,3
  2090c2:	a2d5                	j	2092a6 <CheckReqStatus+0x2c0>
  2090c4:	fd042783          	lw	a5,-48(s0)
  2090c8:	2781                	sext.w	a5,a5
  2090ca:	e399                	bnez	a5,2090d0 <CheckReqStatus+0xea>
  2090cc:	4789                	li	a5,2
  2090ce:	aae1                	j	2092a6 <CheckReqStatus+0x2c0>
  2090d0:	4785                	li	a5,1
  2090d2:	aad1                	j	2092a6 <CheckReqStatus+0x2c0>
  2090d4:	002107b7          	lui	a5,0x210
  2090d8:	0b07b703          	ld	a4,176(a5) # 2100b0 <dieStateTablePtr>
  2090dc:	fc846783          	lwu	a5,-56(s0)
  2090e0:	fcc46683          	lwu	a3,-52(s0)
  2090e4:	068e                	slli	a3,a3,0x3
  2090e6:	97b6                	add	a5,a5,a3
  2090e8:	078a                	slli	a5,a5,0x2
  2090ea:	97ba                	add	a5,a5,a4
  2090ec:	439c                	lw	a5,0(a5)
  2090ee:	0087d79b          	srliw	a5,a5,0x8
  2090f2:	8bbd                	andi	a5,a5,15
  2090f4:	0ff7f793          	andi	a5,a5,255
  2090f8:	873e                	mv	a4,a5
  2090fa:	4785                	li	a5,1
  2090fc:	06f71663          	bne	a4,a5,209168 <CheckReqStatus+0x182>
  209100:	002107b7          	lui	a5,0x210
  209104:	0907b703          	ld	a4,144(a5) # 210090 <statusReportTablePtr>
  209108:	fc846683          	lwu	a3,-56(s0)
  20910c:	fcc46783          	lwu	a5,-52(s0)
  209110:	078e                	slli	a5,a5,0x3
  209112:	97b6                	add	a5,a5,a3
  209114:	078a                	slli	a5,a5,0x2
  209116:	97ba                	add	a5,a5,a4
  209118:	fcf43c23          	sd	a5,-40(s0)
  20911c:	002107b7          	lui	a5,0x210
  209120:	0c878713          	addi	a4,a5,200 # 2100c8 <chCtlReg>
  209124:	fcc46783          	lwu	a5,-52(s0)
  209128:	078e                	slli	a5,a5,0x3
  20912a:	97ba                	add	a5,a5,a4
  20912c:	639c                	ld	a5,0(a5)
  20912e:	fc842703          	lw	a4,-56(s0)
  209132:	fd843603          	ld	a2,-40(s0)
  209136:	85ba                	mv	a1,a4
  209138:	853e                	mv	a0,a5
  20913a:	32b000ef          	jal	ra,209c64 <V2FStatusCheckAsync>
  20913e:	002107b7          	lui	a5,0x210
  209142:	0b07b703          	ld	a4,176(a5) # 2100b0 <dieStateTablePtr>
  209146:	fc846783          	lwu	a5,-56(s0)
  20914a:	fcc46683          	lwu	a3,-52(s0)
  20914e:	068e                	slli	a3,a3,0x3
  209150:	97b6                	add	a5,a5,a3
  209152:	078a                	slli	a5,a5,0x2
  209154:	97ba                	add	a5,a5,a4
  209156:	4394                	lw	a3,0(a5)
  209158:	777d                	lui	a4,0xfffff
  20915a:	0ff70713          	addi	a4,a4,255 # fffffffffffff0ff <g_nvmeTask+0xffffffffffdeefb7>
  20915e:	8f75                	and	a4,a4,a3
  209160:	20076713          	ori	a4,a4,512
  209164:	c398                	sw	a4,0(a5)
  209166:	aa3d                	j	2092a4 <CheckReqStatus+0x2be>
  209168:	002107b7          	lui	a5,0x210
  20916c:	0b07b703          	ld	a4,176(a5) # 2100b0 <dieStateTablePtr>
  209170:	fc846783          	lwu	a5,-56(s0)
  209174:	fcc46683          	lwu	a3,-52(s0)
  209178:	068e                	slli	a3,a3,0x3
  20917a:	97b6                	add	a5,a5,a3
  20917c:	078a                	slli	a5,a5,0x2
  20917e:	97ba                	add	a5,a5,a4
  209180:	439c                	lw	a5,0(a5)
  209182:	0087d79b          	srliw	a5,a5,0x8
  209186:	8bbd                	andi	a5,a5,15
  209188:	0ff7f793          	andi	a5,a5,255
  20918c:	873e                	mv	a4,a5
  20918e:	4789                	li	a5,2
  209190:	0af71663          	bne	a4,a5,20923c <CheckReqStatus+0x256>
  209194:	002107b7          	lui	a5,0x210
  209198:	0907b703          	ld	a4,144(a5) # 210090 <statusReportTablePtr>
  20919c:	fc846783          	lwu	a5,-56(s0)
  2091a0:	fcc46683          	lwu	a3,-52(s0)
  2091a4:	068e                	slli	a3,a3,0x3
  2091a6:	97b6                	add	a5,a5,a3
  2091a8:	078a                	slli	a5,a5,0x2
  2091aa:	97ba                	add	a5,a5,a4
  2091ac:	439c                	lw	a5,0(a5)
  2091ae:	fef42223          	sw	a5,-28(s0)
  2091b2:	fe442783          	lw	a5,-28(s0)
  2091b6:	8b85                	andi	a5,a5,1
  2091b8:	2781                	sext.w	a5,a5
  2091ba:	c7ed                	beqz	a5,2092a4 <CheckReqStatus+0x2be>
  2091bc:	fe442783          	lw	a5,-28(s0)
  2091c0:	0017d79b          	srliw	a5,a5,0x1
  2091c4:	fef42023          	sw	a5,-32(s0)
  2091c8:	fe042783          	lw	a5,-32(s0)
  2091cc:	0607f793          	andi	a5,a5,96
  2091d0:	2781                	sext.w	a5,a5
  2091d2:	873e                	mv	a4,a5
  2091d4:	06000793          	li	a5,96
  2091d8:	02f71d63          	bne	a4,a5,209212 <CheckReqStatus+0x22c>
  2091dc:	fe042783          	lw	a5,-32(s0)
  2091e0:	8b8d                	andi	a5,a5,3
  2091e2:	2781                	sext.w	a5,a5
  2091e4:	c399                	beqz	a5,2091ea <CheckReqStatus+0x204>
  2091e6:	4789                	li	a5,2
  2091e8:	a87d                	j	2092a6 <CheckReqStatus+0x2c0>
  2091ea:	002107b7          	lui	a5,0x210
  2091ee:	0b07b703          	ld	a4,176(a5) # 2100b0 <dieStateTablePtr>
  2091f2:	fc846783          	lwu	a5,-56(s0)
  2091f6:	fcc46683          	lwu	a3,-52(s0)
  2091fa:	068e                	slli	a3,a3,0x3
  2091fc:	97b6                	add	a5,a5,a3
  2091fe:	078a                	slli	a5,a5,0x2
  209200:	97ba                	add	a5,a5,a4
  209202:	4394                	lw	a3,0(a5)
  209204:	777d                	lui	a4,0xfffff
  209206:	0ff70713          	addi	a4,a4,255 # fffffffffffff0ff <g_nvmeTask+0xffffffffffdeefb7>
  20920a:	8f75                	and	a4,a4,a3
  20920c:	c398                	sw	a4,0(a5)
  20920e:	4785                	li	a5,1
  209210:	a859                	j	2092a6 <CheckReqStatus+0x2c0>
  209212:	002107b7          	lui	a5,0x210
  209216:	0b07b703          	ld	a4,176(a5) # 2100b0 <dieStateTablePtr>
  20921a:	fc846783          	lwu	a5,-56(s0)
  20921e:	fcc46683          	lwu	a3,-52(s0)
  209222:	068e                	slli	a3,a3,0x3
  209224:	97b6                	add	a5,a5,a3
  209226:	078a                	slli	a5,a5,0x2
  209228:	97ba                	add	a5,a5,a4
  20922a:	4394                	lw	a3,0(a5)
  20922c:	777d                	lui	a4,0xfffff
  20922e:	0ff70713          	addi	a4,a4,255 # fffffffffffff0ff <g_nvmeTask+0xffffffffffdeefb7>
  209232:	8f75                	and	a4,a4,a3
  209234:	10076713          	ori	a4,a4,256
  209238:	c398                	sw	a4,0(a5)
  20923a:	a0ad                	j	2092a4 <CheckReqStatus+0x2be>
  20923c:	002107b7          	lui	a5,0x210
  209240:	0b07b703          	ld	a4,176(a5) # 2100b0 <dieStateTablePtr>
  209244:	fc846783          	lwu	a5,-56(s0)
  209248:	fcc46683          	lwu	a3,-52(s0)
  20924c:	068e                	slli	a3,a3,0x3
  20924e:	97b6                	add	a5,a5,a3
  209250:	078a                	slli	a5,a5,0x2
  209252:	97ba                	add	a5,a5,a4
  209254:	439c                	lw	a5,0(a5)
  209256:	0087d79b          	srliw	a5,a5,0x8
  20925a:	8bbd                	andi	a5,a5,15
  20925c:	0ff7f793          	andi	a5,a5,255
  209260:	ef85                	bnez	a5,209298 <CheckReqStatus+0x2b2>
  209262:	002107b7          	lui	a5,0x210
  209266:	0c878713          	addi	a4,a5,200 # 2100c8 <chCtlReg>
  20926a:	fcc46783          	lwu	a5,-52(s0)
  20926e:	078e                	slli	a5,a5,0x3
  209270:	97ba                	add	a5,a5,a4
  209272:	639c                	ld	a5,0(a5)
  209274:	853e                	mv	a0,a5
  209276:	281000ef          	jal	ra,209cf6 <V2FReadyBusyAsync>
  20927a:	87aa                	mv	a5,a0
  20927c:	fef42423          	sw	a5,-24(s0)
  209280:	fc842783          	lw	a5,-56(s0)
  209284:	fe842703          	lw	a4,-24(s0)
  209288:	00f757bb          	srlw	a5,a4,a5
  20928c:	2781                	sext.w	a5,a5
  20928e:	8b85                	andi	a5,a5,1
  209290:	2781                	sext.w	a5,a5
  209292:	cb89                	beqz	a5,2092a4 <CheckReqStatus+0x2be>
  209294:	4785                	li	a5,1
  209296:	a801                	j	2092a6 <CheckReqStatus+0x2c0>
  209298:	0020f7b7          	lui	a5,0x20f
  20929c:	2d878513          	addi	a0,a5,728 # 20f2d8 <nvme_main+0x960>
  2092a0:	b78fb0ef          	jal	ra,204618 <cpl_print>
  2092a4:	4781                	li	a5,0
  2092a6:	853e                	mv	a0,a5
  2092a8:	70e2                	ld	ra,56(sp)
  2092aa:	7442                	ld	s0,48(sp)
  2092ac:	6121                	addi	sp,sp,64
  2092ae:	8082                	ret

00000000002092b0 <CheckEccErrorInfo>:
  2092b0:	7179                	addi	sp,sp,-48
  2092b2:	f422                	sd	s0,40(sp)
  2092b4:	1800                	addi	s0,sp,48
  2092b6:	87aa                	mv	a5,a0
  2092b8:	872e                	mv	a4,a1
  2092ba:	fcf42e23          	sw	a5,-36(s0)
  2092be:	87ba                	mv	a5,a4
  2092c0:	fcf42c23          	sw	a5,-40(s0)
  2092c4:	002107b7          	lui	a5,0x210
  2092c8:	e6878713          	addi	a4,a5,-408 # 20fe68 <nandReqQ>
  2092cc:	fd846783          	lwu	a5,-40(s0)
  2092d0:	fdc46683          	lwu	a3,-36(s0)
  2092d4:	068e                	slli	a3,a3,0x3
  2092d6:	97b6                	add	a5,a5,a3
  2092d8:	078e                	slli	a5,a5,0x3
  2092da:	97ba                	add	a5,a5,a4
  2092dc:	0007d783          	lhu	a5,0(a5)
  2092e0:	fef42623          	sw	a5,-20(s0)
  2092e4:	002107b7          	lui	a5,0x210
  2092e8:	0a07b703          	ld	a4,160(a5) # 2100a0 <eccErrorInfoTablePtr>
  2092ec:	fd846683          	lwu	a3,-40(s0)
  2092f0:	fdc46603          	lwu	a2,-36(s0)
  2092f4:	02c00793          	li	a5,44
  2092f8:	02f686b3          	mul	a3,a3,a5
  2092fc:	16000793          	li	a5,352
  209300:	02f607b3          	mul	a5,a2,a5
  209304:	97b6                	add	a5,a5,a3
  209306:	97ba                	add	a5,a5,a4
  209308:	439c                	lw	a5,0(a5)
  20930a:	fef42423          	sw	a5,-24(s0)
  20930e:	002107b7          	lui	a5,0x210
  209312:	0a07b703          	ld	a4,160(a5) # 2100a0 <eccErrorInfoTablePtr>
  209316:	fd846683          	lwu	a3,-40(s0)
  20931a:	fdc46603          	lwu	a2,-36(s0)
  20931e:	02c00793          	li	a5,44
  209322:	02f686b3          	mul	a3,a3,a5
  209326:	16000793          	li	a5,352
  20932a:	02f607b3          	mul	a5,a2,a5
  20932e:	97b6                	add	a5,a5,a3
  209330:	97ba                	add	a5,a5,a4
  209332:	43dc                	lw	a5,4(a5)
  209334:	fef42223          	sw	a5,-28(s0)
  209338:	fe842703          	lw	a4,-24(s0)
  20933c:	100007b7          	lui	a5,0x10000
  209340:	8ff9                	and	a5,a5,a4
  209342:	2781                	sext.w	a5,a5
  209344:	c7a5                	beqz	a5,2093ac <CheckEccErrorInfo+0xfc>
  209346:	fe842703          	lw	a4,-24(s0)
  20934a:	010007b7          	lui	a5,0x1000
  20934e:	8ff9                	and	a5,a5,a4
  209350:	2781                	sext.w	a5,a5
  209352:	cfa9                	beqz	a5,2093ac <CheckEccErrorInfo+0xfc>
  209354:	fe442783          	lw	a5,-28(s0)
  209358:	0007871b          	sext.w	a4,a5
  20935c:	57fd                	li	a5,-1
  20935e:	04f71763          	bne	a4,a5,2093ac <CheckEccErrorInfo+0xfc>
  209362:	002107b7          	lui	a5,0x210
  209366:	e507b703          	ld	a4,-432(a5) # 20fe50 <reqPoolPtr>
  20936a:	fec46683          	lwu	a3,-20(s0)
  20936e:	03400793          	li	a5,52
  209372:	02f687b3          	mul	a5,a3,a5
  209376:	97ba                	add	a5,a5,a4
  209378:	4b9c                	lw	a5,16(a5)
  20937a:	0057d79b          	srliw	a5,a5,0x5
  20937e:	8b85                	andi	a5,a5,1
  209380:	0ff7f793          	andi	a5,a5,255
  209384:	873e                	mv	a4,a5
  209386:	4785                	li	a5,1
  209388:	02f71063          	bne	a4,a5,2093a8 <CheckEccErrorInfo+0xf8>
  20938c:	fe842783          	lw	a5,-24(s0)
  209390:	0107d79b          	srliw	a5,a5,0x10
  209394:	2781                	sext.w	a5,a5
  209396:	0ff7f793          	andi	a5,a5,255
  20939a:	2781                	sext.w	a5,a5
  20939c:	873e                	mv	a4,a5
  20939e:	47d1                	li	a5,20
  2093a0:	00e7f463          	bgeu	a5,a4,2093a8 <CheckEccErrorInfo+0xf8>
  2093a4:	4789                	li	a5,2
  2093a6:	a021                	j	2093ae <CheckEccErrorInfo+0xfe>
  2093a8:	4785                	li	a5,1
  2093aa:	a011                	j	2093ae <CheckEccErrorInfo+0xfe>
  2093ac:	4781                	li	a5,0
  2093ae:	853e                	mv	a0,a5
  2093b0:	7422                	ld	s0,40(sp)
  2093b2:	6145                	addi	sp,sp,48
  2093b4:	8082                	ret

00000000002093b6 <ExecuteNandReq>:
  2093b6:	7139                	addi	sp,sp,-64
  2093b8:	fc06                	sd	ra,56(sp)
  2093ba:	f822                	sd	s0,48(sp)
  2093bc:	0080                	addi	s0,sp,64
  2093be:	87aa                	mv	a5,a0
  2093c0:	86ae                	mv	a3,a1
  2093c2:	8732                	mv	a4,a2
  2093c4:	fcf42623          	sw	a5,-52(s0)
  2093c8:	87b6                	mv	a5,a3
  2093ca:	fcf42423          	sw	a5,-56(s0)
  2093ce:	87ba                	mv	a5,a4
  2093d0:	fcf42223          	sw	a5,-60(s0)
  2093d4:	002107b7          	lui	a5,0x210
  2093d8:	e6878713          	addi	a4,a5,-408 # 20fe68 <nandReqQ>
  2093dc:	fc846783          	lwu	a5,-56(s0)
  2093e0:	fcc46683          	lwu	a3,-52(s0)
  2093e4:	068e                	slli	a3,a3,0x3
  2093e6:	97b6                	add	a5,a5,a3
  2093e8:	078e                	slli	a5,a5,0x3
  2093ea:	97ba                	add	a5,a5,a4
  2093ec:	0007d783          	lhu	a5,0(a5)
  2093f0:	fef42623          	sw	a5,-20(s0)
  2093f4:	002107b7          	lui	a5,0x210
  2093f8:	0b07b703          	ld	a4,176(a5) # 2100b0 <dieStateTablePtr>
  2093fc:	fc846783          	lwu	a5,-56(s0)
  209400:	fcc46683          	lwu	a3,-52(s0)
  209404:	068e                	slli	a3,a3,0x3
  209406:	97b6                	add	a5,a5,a3
  209408:	078a                	slli	a5,a5,0x2
  20940a:	97ba                	add	a5,a5,a4
  20940c:	0007c783          	lbu	a5,0(a5)
  209410:	2781                	sext.w	a5,a5
  209412:	c791                	beqz	a5,20941e <ExecuteNandReq+0x68>
  209414:	873e                	mv	a4,a5
  209416:	4785                	li	a5,1
  209418:	02f70b63          	beq	a4,a5,20944e <ExecuteNandReq+0x98>
  20941c:	a945                	j	2098cc <ExecuteNandReq+0x516>
  20941e:	fc842703          	lw	a4,-56(s0)
  209422:	fcc42783          	lw	a5,-52(s0)
  209426:	85ba                	mv	a1,a4
  209428:	853e                	mv	a0,a5
  20942a:	8e0ff0ef          	jal	ra,20850a <IssueNandReq>
  20942e:	002107b7          	lui	a5,0x210
  209432:	0b07b703          	ld	a4,176(a5) # 2100b0 <dieStateTablePtr>
  209436:	fc846783          	lwu	a5,-56(s0)
  20943a:	fcc46683          	lwu	a3,-52(s0)
  20943e:	068e                	slli	a3,a3,0x3
  209440:	97b6                	add	a5,a5,a3
  209442:	078a                	slli	a5,a5,0x2
  209444:	97ba                	add	a5,a5,a4
  209446:	4705                	li	a4,1
  209448:	00e78023          	sb	a4,0(a5)
  20944c:	a141                	j	2098cc <ExecuteNandReq+0x516>
  20944e:	fc442783          	lw	a5,-60(s0)
  209452:	0007871b          	sext.w	a4,a5
  209456:	4785                	li	a5,1
  209458:	0af71863          	bne	a4,a5,209508 <ExecuteNandReq+0x152>
  20945c:	002107b7          	lui	a5,0x210
  209460:	e507b703          	ld	a4,-432(a5) # 20fe50 <reqPoolPtr>
  209464:	fec46683          	lwu	a3,-20(s0)
  209468:	03400793          	li	a5,52
  20946c:	02f687b3          	mul	a5,a3,a5
  209470:	97ba                	add	a5,a5,a4
  209472:	0017c783          	lbu	a5,1(a5)
  209476:	873e                	mv	a4,a5
  209478:	47a1                	li	a5,8
  20947a:	02f71163          	bne	a4,a5,20949c <ExecuteNandReq+0xe6>
  20947e:	002107b7          	lui	a5,0x210
  209482:	e507b703          	ld	a4,-432(a5) # 20fe50 <reqPoolPtr>
  209486:	fec46683          	lwu	a3,-20(s0)
  20948a:	03400793          	li	a5,52
  20948e:	02f687b3          	mul	a5,a3,a5
  209492:	97ba                	add	a5,a5,a4
  209494:	4725                	li	a4,9
  209496:	00e780a3          	sb	a4,1(a5)
  20949a:	a881                	j	2094ea <ExecuteNandReq+0x134>
  20949c:	002107b7          	lui	a5,0x210
  2094a0:	0b87b703          	ld	a4,184(a5) # 2100b8 <retryLimitTablePtr>
  2094a4:	fc846783          	lwu	a5,-56(s0)
  2094a8:	fcc46683          	lwu	a3,-52(s0)
  2094ac:	068e                	slli	a3,a3,0x3
  2094ae:	97b6                	add	a5,a5,a3
  2094b0:	078a                	slli	a5,a5,0x2
  2094b2:	97ba                	add	a5,a5,a4
  2094b4:	4715                	li	a4,5
  2094b6:	c398                	sw	a4,0(a5)
  2094b8:	002107b7          	lui	a5,0x210
  2094bc:	e507b703          	ld	a4,-432(a5) # 20fe50 <reqPoolPtr>
  2094c0:	fec46683          	lwu	a3,-20(s0)
  2094c4:	03400793          	li	a5,52
  2094c8:	02f687b3          	mul	a5,a3,a5
  2094cc:	97ba                	add	a5,a5,a4
  2094ce:	0017c783          	lbu	a5,1(a5)
  2094d2:	0007869b          	sext.w	a3,a5
  2094d6:	fc442603          	lw	a2,-60(s0)
  2094da:	fc842703          	lw	a4,-56(s0)
  2094de:	fcc42783          	lw	a5,-52(s0)
  2094e2:	85ba                	mv	a1,a4
  2094e4:	853e                	mv	a0,a5
  2094e6:	f37fa0ef          	jal	ra,20441c <GetFromNandReqQ>
  2094ea:	002107b7          	lui	a5,0x210
  2094ee:	0b07b703          	ld	a4,176(a5) # 2100b0 <dieStateTablePtr>
  2094f2:	fc846783          	lwu	a5,-56(s0)
  2094f6:	fcc46683          	lwu	a3,-52(s0)
  2094fa:	068e                	slli	a3,a3,0x3
  2094fc:	97b6                	add	a5,a5,a3
  2094fe:	078a                	slli	a5,a5,0x2
  209500:	97ba                	add	a5,a5,a4
  209502:	00078023          	sb	zero,0(a5)
  209506:	a6d9                	j	2098cc <ExecuteNandReq+0x516>
  209508:	fc442783          	lw	a5,-60(s0)
  20950c:	0007871b          	sext.w	a4,a5
  209510:	4789                	li	a5,2
  209512:	2af71d63          	bne	a4,a5,2097cc <ExecuteNandReq+0x416>
  209516:	002107b7          	lui	a5,0x210
  20951a:	e507b703          	ld	a4,-432(a5) # 20fe50 <reqPoolPtr>
  20951e:	fec46683          	lwu	a3,-20(s0)
  209522:	03400793          	li	a5,52
  209526:	02f687b3          	mul	a5,a3,a5
  20952a:	97ba                	add	a5,a5,a4
  20952c:	0017c783          	lbu	a5,1(a5)
  209530:	873e                	mv	a4,a5
  209532:	47a1                	li	a5,8
  209534:	02f70363          	beq	a4,a5,20955a <ExecuteNandReq+0x1a4>
  209538:	002107b7          	lui	a5,0x210
  20953c:	e507b703          	ld	a4,-432(a5) # 20fe50 <reqPoolPtr>
  209540:	fec46683          	lwu	a3,-20(s0)
  209544:	03400793          	li	a5,52
  209548:	02f687b3          	mul	a5,a3,a5
  20954c:	97ba                	add	a5,a5,a4
  20954e:	0017c783          	lbu	a5,1(a5)
  209552:	873e                	mv	a4,a5
  209554:	47a5                	li	a5,9
  209556:	0af71763          	bne	a4,a5,209604 <ExecuteNandReq+0x24e>
  20955a:	002107b7          	lui	a5,0x210
  20955e:	0b87b703          	ld	a4,184(a5) # 2100b8 <retryLimitTablePtr>
  209562:	fc846783          	lwu	a5,-56(s0)
  209566:	fcc46683          	lwu	a3,-52(s0)
  20956a:	068e                	slli	a3,a3,0x3
  20956c:	97b6                	add	a5,a5,a3
  20956e:	078a                	slli	a5,a5,0x2
  209570:	97ba                	add	a5,a5,a4
  209572:	439c                	lw	a5,0(a5)
  209574:	08f05863          	blez	a5,209604 <ExecuteNandReq+0x24e>
  209578:	002107b7          	lui	a5,0x210
  20957c:	0b87b783          	ld	a5,184(a5) # 2100b8 <retryLimitTablePtr>
  209580:	fc846703          	lwu	a4,-56(s0)
  209584:	fcc46683          	lwu	a3,-52(s0)
  209588:	068e                	slli	a3,a3,0x3
  20958a:	9736                	add	a4,a4,a3
  20958c:	070a                	slli	a4,a4,0x2
  20958e:	973e                	add	a4,a4,a5
  209590:	4318                	lw	a4,0(a4)
  209592:	377d                	addiw	a4,a4,-1
  209594:	2701                	sext.w	a4,a4
  209596:	fc846683          	lwu	a3,-56(s0)
  20959a:	fcc46603          	lwu	a2,-52(s0)
  20959e:	060e                	slli	a2,a2,0x3
  2095a0:	96b2                	add	a3,a3,a2
  2095a2:	068a                	slli	a3,a3,0x2
  2095a4:	97b6                	add	a5,a5,a3
  2095a6:	c398                	sw	a4,0(a5)
  2095a8:	002107b7          	lui	a5,0x210
  2095ac:	e507b703          	ld	a4,-432(a5) # 20fe50 <reqPoolPtr>
  2095b0:	fec46683          	lwu	a3,-20(s0)
  2095b4:	03400793          	li	a5,52
  2095b8:	02f687b3          	mul	a5,a3,a5
  2095bc:	97ba                	add	a5,a5,a4
  2095be:	0017c783          	lbu	a5,1(a5)
  2095c2:	873e                	mv	a4,a5
  2095c4:	47a5                	li	a5,9
  2095c6:	02f71063          	bne	a4,a5,2095e6 <ExecuteNandReq+0x230>
  2095ca:	002107b7          	lui	a5,0x210
  2095ce:	e507b703          	ld	a4,-432(a5) # 20fe50 <reqPoolPtr>
  2095d2:	fec46683          	lwu	a3,-20(s0)
  2095d6:	03400793          	li	a5,52
  2095da:	02f687b3          	mul	a5,a3,a5
  2095de:	97ba                	add	a5,a5,a4
  2095e0:	4721                	li	a4,8
  2095e2:	00e780a3          	sb	a4,1(a5)
  2095e6:	002107b7          	lui	a5,0x210
  2095ea:	0b07b703          	ld	a4,176(a5) # 2100b0 <dieStateTablePtr>
  2095ee:	fc846783          	lwu	a5,-56(s0)
  2095f2:	fcc46683          	lwu	a3,-52(s0)
  2095f6:	068e                	slli	a3,a3,0x3
  2095f8:	97b6                	add	a5,a5,a3
  2095fa:	078a                	slli	a5,a5,0x2
  2095fc:	97ba                	add	a5,a5,a4
  2095fe:	00078023          	sb	zero,0(a5)
  209602:	a4e9                	j	2098cc <ExecuteNandReq+0x516>
  209604:	002107b7          	lui	a5,0x210
  209608:	e507b703          	ld	a4,-432(a5) # 20fe50 <reqPoolPtr>
  20960c:	fec46683          	lwu	a3,-20(s0)
  209610:	03400793          	li	a5,52
  209614:	02f687b3          	mul	a5,a3,a5
  209618:	97ba                	add	a5,a5,a4
  20961a:	0017c783          	lbu	a5,1(a5)
  20961e:	873e                	mv	a4,a5
  209620:	47a1                	li	a5,8
  209622:	00f71963          	bne	a4,a5,209634 <ExecuteNandReq+0x27e>
  209626:	0020f7b7          	lui	a5,0x20f
  20962a:	31078513          	addi	a0,a5,784 # 20f310 <nvme_main+0x998>
  20962e:	febfa0ef          	jal	ra,204618 <cpl_print>
  209632:	a8a9                	j	20968c <ExecuteNandReq+0x2d6>
  209634:	002107b7          	lui	a5,0x210
  209638:	e507b703          	ld	a4,-432(a5) # 20fe50 <reqPoolPtr>
  20963c:	fec46683          	lwu	a3,-20(s0)
  209640:	03400793          	li	a5,52
  209644:	02f687b3          	mul	a5,a3,a5
  209648:	97ba                	add	a5,a5,a4
  20964a:	0017c783          	lbu	a5,1(a5)
  20964e:	873e                	mv	a4,a5
  209650:	47a5                	li	a5,9
  209652:	00f71963          	bne	a4,a5,209664 <ExecuteNandReq+0x2ae>
  209656:	0020f7b7          	lui	a5,0x20f
  20965a:	33078513          	addi	a0,a5,816 # 20f330 <nvme_main+0x9b8>
  20965e:	fbbfa0ef          	jal	ra,204618 <cpl_print>
  209662:	a02d                	j	20968c <ExecuteNandReq+0x2d6>
  209664:	002107b7          	lui	a5,0x210
  209668:	e507b703          	ld	a4,-432(a5) # 20fe50 <reqPoolPtr>
  20966c:	fec46683          	lwu	a3,-20(s0)
  209670:	03400793          	li	a5,52
  209674:	02f687b3          	mul	a5,a3,a5
  209678:	97ba                	add	a5,a5,a4
  20967a:	0017c783          	lbu	a5,1(a5)
  20967e:	e799                	bnez	a5,20968c <ExecuteNandReq+0x2d6>
  209680:	0020f7b7          	lui	a5,0x20f
  209684:	35078513          	addi	a0,a5,848 # 20f350 <nvme_main+0x9d8>
  209688:	f91fa0ef          	jal	ra,204618 <cpl_print>
  20968c:	fec42783          	lw	a5,-20(s0)
  209690:	853e                	mv	a0,a5
  209692:	a38ff0ef          	jal	ra,2088ca <GenerateNandRowAddr>
  209696:	87aa                	mv	a5,a0
  209698:	fef42423          	sw	a5,-24(s0)
  20969c:	002107b7          	lui	a5,0x210
  2096a0:	e507b703          	ld	a4,-432(a5) # 20fe50 <reqPoolPtr>
  2096a4:	fec46683          	lwu	a3,-20(s0)
  2096a8:	03400793          	li	a5,52
  2096ac:	02f687b3          	mul	a5,a3,a5
  2096b0:	97ba                	add	a5,a5,a4
  2096b2:	4b9c                	lw	a5,16(a5)
  2096b4:	0047d79b          	srliw	a5,a5,0x4
  2096b8:	8b85                	andi	a5,a5,1
  2096ba:	0ff7f793          	andi	a5,a5,255
  2096be:	eba1                	bnez	a5,20970e <ExecuteNandReq+0x358>
  2096c0:	002107b7          	lui	a5,0x210
  2096c4:	e507b703          	ld	a4,-432(a5) # 20fe50 <reqPoolPtr>
  2096c8:	fec46683          	lwu	a3,-20(s0)
  2096cc:	03400793          	li	a5,52
  2096d0:	02f687b3          	mul	a5,a3,a5
  2096d4:	97ba                	add	a5,a5,a4
  2096d6:	4b9c                	lw	a5,16(a5)
  2096d8:	8b8d                	andi	a5,a5,3
  2096da:	0ff7f793          	andi	a5,a5,255
  2096de:	873e                	mv	a4,a5
  2096e0:	4789                	li	a5,2
  2096e2:	02f71663          	bne	a4,a5,20970e <ExecuteNandReq+0x358>
  2096e6:	002107b7          	lui	a5,0x210
  2096ea:	e507b703          	ld	a4,-432(a5) # 20fe50 <reqPoolPtr>
  2096ee:	fec46683          	lwu	a3,-20(s0)
  2096f2:	03400793          	li	a5,52
  2096f6:	02f687b3          	mul	a5,a3,a5
  2096fa:	97ba                	add	a5,a5,a4
  2096fc:	4bdc                	lw	a5,20(a5)
  2096fe:	1782                	slli	a5,a5,0x20
  209700:	9381                	srli	a5,a5,0x20
  209702:	fcf43c23          	sd	a5,-40(s0)
  209706:	fd843783          	ld	a5,-40(s0)
  20970a:	00078023          	sb	zero,0(a5)
  20970e:	fe842703          	lw	a4,-24(s0)
  209712:	002007b7          	lui	a5,0x200
  209716:	17fd                	addi	a5,a5,-1
  209718:	8ff9                	and	a5,a5,a4
  20971a:	2781                	sext.w	a5,a5
  20971c:	0087d79b          	srliw	a5,a5,0x8
  209720:	0007871b          	sext.w	a4,a5
  209724:	fe842783          	lw	a5,-24(s0)
  209728:	0157d79b          	srliw	a5,a5,0x15
  20972c:	0007869b          	sext.w	a3,a5
  209730:	6785                	lui	a5,0x1
  209732:	0587879b          	addiw	a5,a5,88
  209736:	02f687bb          	mulw	a5,a3,a5
  20973a:	2781                	sext.w	a5,a5
  20973c:	9fb9                	addw	a5,a5,a4
  20973e:	fef42223          	sw	a5,-28(s0)
  209742:	fc842783          	lw	a5,-56(s0)
  209746:	0037979b          	slliw	a5,a5,0x3
  20974a:	2781                	sext.w	a5,a5
  20974c:	fcc42703          	lw	a4,-52(s0)
  209750:	9fb9                	addw	a5,a5,a4
  209752:	2781                	sext.w	a5,a5
  209754:	fe442703          	lw	a4,-28(s0)
  209758:	85ba                	mv	a1,a4
  20975a:	853e                	mv	a0,a5
  20975c:	e84f90ef          	jal	ra,202de0 <UpdatePhyBlockMapForGrownBadBlock>
  209760:	002107b7          	lui	a5,0x210
  209764:	0b87b703          	ld	a4,184(a5) # 2100b8 <retryLimitTablePtr>
  209768:	fc846783          	lwu	a5,-56(s0)
  20976c:	fcc46683          	lwu	a3,-52(s0)
  209770:	068e                	slli	a3,a3,0x3
  209772:	97b6                	add	a5,a5,a3
  209774:	078a                	slli	a5,a5,0x2
  209776:	97ba                	add	a5,a5,a4
  209778:	4715                	li	a4,5
  20977a:	c398                	sw	a4,0(a5)
  20977c:	002107b7          	lui	a5,0x210
  209780:	e507b703          	ld	a4,-432(a5) # 20fe50 <reqPoolPtr>
  209784:	fec46683          	lwu	a3,-20(s0)
  209788:	03400793          	li	a5,52
  20978c:	02f687b3          	mul	a5,a3,a5
  209790:	97ba                	add	a5,a5,a4
  209792:	0017c783          	lbu	a5,1(a5)
  209796:	0007869b          	sext.w	a3,a5
  20979a:	fc442603          	lw	a2,-60(s0)
  20979e:	fc842703          	lw	a4,-56(s0)
  2097a2:	fcc42783          	lw	a5,-52(s0)
  2097a6:	85ba                	mv	a1,a4
  2097a8:	853e                	mv	a0,a5
  2097aa:	c73fa0ef          	jal	ra,20441c <GetFromNandReqQ>
  2097ae:	002107b7          	lui	a5,0x210
  2097b2:	0b07b703          	ld	a4,176(a5) # 2100b0 <dieStateTablePtr>
  2097b6:	fc846783          	lwu	a5,-56(s0)
  2097ba:	fcc46683          	lwu	a3,-52(s0)
  2097be:	068e                	slli	a3,a3,0x3
  2097c0:	97b6                	add	a5,a5,a3
  2097c2:	078a                	slli	a5,a5,0x2
  2097c4:	97ba                	add	a5,a5,a4
  2097c6:	00078023          	sb	zero,0(a5)
  2097ca:	a209                	j	2098cc <ExecuteNandReq+0x516>
  2097cc:	fc442783          	lw	a5,-60(s0)
  2097d0:	0007871b          	sext.w	a4,a5
  2097d4:	478d                	li	a5,3
  2097d6:	0cf71f63          	bne	a4,a5,2098b4 <ExecuteNandReq+0x4fe>
  2097da:	fec42783          	lw	a5,-20(s0)
  2097de:	853e                	mv	a0,a5
  2097e0:	8eaff0ef          	jal	ra,2088ca <GenerateNandRowAddr>
  2097e4:	87aa                	mv	a5,a0
  2097e6:	fef42423          	sw	a5,-24(s0)
  2097ea:	0020f7b7          	lui	a5,0x20f
  2097ee:	37078513          	addi	a0,a5,880 # 20f370 <nvme_main+0x9f8>
  2097f2:	e27fa0ef          	jal	ra,204618 <cpl_print>
  2097f6:	fe842703          	lw	a4,-24(s0)
  2097fa:	002007b7          	lui	a5,0x200
  2097fe:	17fd                	addi	a5,a5,-1
  209800:	8ff9                	and	a5,a5,a4
  209802:	2781                	sext.w	a5,a5
  209804:	0087d79b          	srliw	a5,a5,0x8
  209808:	0007871b          	sext.w	a4,a5
  20980c:	fe842783          	lw	a5,-24(s0)
  209810:	0157d79b          	srliw	a5,a5,0x15
  209814:	0007869b          	sext.w	a3,a5
  209818:	6785                	lui	a5,0x1
  20981a:	0587879b          	addiw	a5,a5,88
  20981e:	02f687bb          	mulw	a5,a3,a5
  209822:	2781                	sext.w	a5,a5
  209824:	9fb9                	addw	a5,a5,a4
  209826:	fef42223          	sw	a5,-28(s0)
  20982a:	fc842783          	lw	a5,-56(s0)
  20982e:	0037979b          	slliw	a5,a5,0x3
  209832:	2781                	sext.w	a5,a5
  209834:	fcc42703          	lw	a4,-52(s0)
  209838:	9fb9                	addw	a5,a5,a4
  20983a:	2781                	sext.w	a5,a5
  20983c:	fe442703          	lw	a4,-28(s0)
  209840:	85ba                	mv	a1,a4
  209842:	853e                	mv	a0,a5
  209844:	d9cf90ef          	jal	ra,202de0 <UpdatePhyBlockMapForGrownBadBlock>
  209848:	002107b7          	lui	a5,0x210
  20984c:	0b87b703          	ld	a4,184(a5) # 2100b8 <retryLimitTablePtr>
  209850:	fc846783          	lwu	a5,-56(s0)
  209854:	fcc46683          	lwu	a3,-52(s0)
  209858:	068e                	slli	a3,a3,0x3
  20985a:	97b6                	add	a5,a5,a3
  20985c:	078a                	slli	a5,a5,0x2
  20985e:	97ba                	add	a5,a5,a4
  209860:	4715                	li	a4,5
  209862:	c398                	sw	a4,0(a5)
  209864:	002107b7          	lui	a5,0x210
  209868:	e507b703          	ld	a4,-432(a5) # 20fe50 <reqPoolPtr>
  20986c:	fec46683          	lwu	a3,-20(s0)
  209870:	03400793          	li	a5,52
  209874:	02f687b3          	mul	a5,a3,a5
  209878:	97ba                	add	a5,a5,a4
  20987a:	0017c783          	lbu	a5,1(a5)
  20987e:	0007869b          	sext.w	a3,a5
  209882:	fc442603          	lw	a2,-60(s0)
  209886:	fc842703          	lw	a4,-56(s0)
  20988a:	fcc42783          	lw	a5,-52(s0)
  20988e:	85ba                	mv	a1,a4
  209890:	853e                	mv	a0,a5
  209892:	b8bfa0ef          	jal	ra,20441c <GetFromNandReqQ>
  209896:	002107b7          	lui	a5,0x210
  20989a:	0b07b703          	ld	a4,176(a5) # 2100b0 <dieStateTablePtr>
  20989e:	fc846783          	lwu	a5,-56(s0)
  2098a2:	fcc46683          	lwu	a3,-52(s0)
  2098a6:	068e                	slli	a3,a3,0x3
  2098a8:	97b6                	add	a5,a5,a3
  2098aa:	078a                	slli	a5,a5,0x2
  2098ac:	97ba                	add	a5,a5,a4
  2098ae:	00078023          	sb	zero,0(a5)
  2098b2:	a829                	j	2098cc <ExecuteNandReq+0x516>
  2098b4:	fc442783          	lw	a5,-60(s0)
  2098b8:	2781                	sext.w	a5,a5
  2098ba:	cb81                	beqz	a5,2098ca <ExecuteNandReq+0x514>
  2098bc:	0020f7b7          	lui	a5,0x20f
  2098c0:	3c878513          	addi	a0,a5,968 # 20f3c8 <nvme_main+0xa50>
  2098c4:	d55fa0ef          	jal	ra,204618 <cpl_print>
  2098c8:	a011                	j	2098cc <ExecuteNandReq+0x516>
  2098ca:	0001                	nop
  2098cc:	70e2                	ld	ra,56(sp)
  2098ce:	7442                	ld	s0,48(sp)
  2098d0:	6121                	addi	sp,sp,64
  2098d2:	8082                	ret

00000000002098d4 <V2FIsControllerBusy>:
  2098d4:	7179                	addi	sp,sp,-48
  2098d6:	f422                	sd	s0,40(sp)
  2098d8:	1800                	addi	s0,sp,48
  2098da:	fca43c23          	sd	a0,-40(s0)
  2098de:	fd843783          	ld	a5,-40(s0)
  2098e2:	539c                	lw	a5,32(a5)
  2098e4:	2781                	sext.w	a5,a5
  2098e6:	fef42623          	sw	a5,-20(s0)
  2098ea:	fec42783          	lw	a5,-20(s0)
  2098ee:	2781                	sext.w	a5,a5
  2098f0:	853e                	mv	a0,a5
  2098f2:	7422                	ld	s0,40(sp)
  2098f4:	6145                	addi	sp,sp,48
  2098f6:	8082                	ret

00000000002098f8 <V2FResetSync>:
  2098f8:	1101                	addi	sp,sp,-32
  2098fa:	ec06                	sd	ra,24(sp)
  2098fc:	e822                	sd	s0,16(sp)
  2098fe:	1000                	addi	s0,sp,32
  209900:	fea43423          	sd	a0,-24(s0)
  209904:	87ae                	mv	a5,a1
  209906:	fef42223          	sw	a5,-28(s0)
  20990a:	fe843783          	ld	a5,-24(s0)
  20990e:	07f1                	addi	a5,a5,28
  209910:	fe442703          	lw	a4,-28(s0)
  209914:	c398                	sw	a4,0(a5)
  209916:	fe843783          	ld	a5,-24(s0)
  20991a:	4705                	li	a4,1
  20991c:	c398                	sw	a4,0(a5)
  20991e:	0001                	nop
  209920:	fe843503          	ld	a0,-24(s0)
  209924:	fb1ff0ef          	jal	ra,2098d4 <V2FIsControllerBusy>
  209928:	87aa                	mv	a5,a0
  20992a:	2781                	sext.w	a5,a5
  20992c:	fbf5                	bnez	a5,209920 <V2FResetSync+0x28>
  20992e:	0001                	nop
  209930:	0001                	nop
  209932:	60e2                	ld	ra,24(sp)
  209934:	6442                	ld	s0,16(sp)
  209936:	6105                	addi	sp,sp,32
  209938:	8082                	ret

000000000020993a <V2FSetFeaturesSync>:
  20993a:	7139                	addi	sp,sp,-64
  20993c:	fc06                	sd	ra,56(sp)
  20993e:	f822                	sd	s0,48(sp)
  209940:	0080                	addi	s0,sp,64
  209942:	fca43c23          	sd	a0,-40(s0)
  209946:	852e                	mv	a0,a1
  209948:	85b2                	mv	a1,a2
  20994a:	8636                	mv	a2,a3
  20994c:	86ba                	mv	a3,a4
  20994e:	873e                	mv	a4,a5
  209950:	87aa                	mv	a5,a0
  209952:	fcf42a23          	sw	a5,-44(s0)
  209956:	87ae                	mv	a5,a1
  209958:	fcf42823          	sw	a5,-48(s0)
  20995c:	87b2                	mv	a5,a2
  20995e:	fcf42623          	sw	a5,-52(s0)
  209962:	87b6                	mv	a5,a3
  209964:	fcf42423          	sw	a5,-56(s0)
  209968:	87ba                	mv	a5,a4
  20996a:	fcf42223          	sw	a5,-60(s0)
  20996e:	fc446783          	lwu	a5,-60(s0)
  209972:	fef43423          	sd	a5,-24(s0)
  209976:	fe843783          	ld	a5,-24(s0)
  20997a:	fd042703          	lw	a4,-48(s0)
  20997e:	c398                	sw	a4,0(a5)
  209980:	fe843783          	ld	a5,-24(s0)
  209984:	0791                	addi	a5,a5,4
  209986:	fcc42703          	lw	a4,-52(s0)
  20998a:	c398                	sw	a4,0(a5)
  20998c:	fe843783          	ld	a5,-24(s0)
  209990:	07a1                	addi	a5,a5,8
  209992:	fc842703          	lw	a4,-56(s0)
  209996:	c398                	sw	a4,0(a5)
  209998:	fd843783          	ld	a5,-40(s0)
  20999c:	07f1                	addi	a5,a5,28
  20999e:	fd442703          	lw	a4,-44(s0)
  2099a2:	c398                	sw	a4,0(a5)
  2099a4:	fe843703          	ld	a4,-24(s0)
  2099a8:	fd843783          	ld	a5,-40(s0)
  2099ac:	07a1                	addi	a5,a5,8
  2099ae:	2701                	sext.w	a4,a4
  2099b0:	c398                	sw	a4,0(a5)
  2099b2:	fd843783          	ld	a5,-40(s0)
  2099b6:	4719                	li	a4,6
  2099b8:	c398                	sw	a4,0(a5)
  2099ba:	0001                	nop
  2099bc:	fd843503          	ld	a0,-40(s0)
  2099c0:	f15ff0ef          	jal	ra,2098d4 <V2FIsControllerBusy>
  2099c4:	87aa                	mv	a5,a0
  2099c6:	2781                	sext.w	a5,a5
  2099c8:	fbf5                	bnez	a5,2099bc <V2FSetFeaturesSync+0x82>
  2099ca:	0001                	nop
  2099cc:	0001                	nop
  2099ce:	70e2                	ld	ra,56(sp)
  2099d0:	7442                	ld	s0,48(sp)
  2099d2:	6121                	addi	sp,sp,64
  2099d4:	8082                	ret

00000000002099d6 <V2FGetFeaturesSync>:
  2099d6:	711d                	addi	sp,sp,-96
  2099d8:	ec86                	sd	ra,88(sp)
  2099da:	e8a2                	sd	s0,80(sp)
  2099dc:	1080                	addi	s0,sp,96
  2099de:	fca43423          	sd	a0,-56(s0)
  2099e2:	fac43c23          	sd	a2,-72(s0)
  2099e6:	fad43823          	sd	a3,-80(s0)
  2099ea:	fae43423          	sd	a4,-88(s0)
  2099ee:	faf43023          	sd	a5,-96(s0)
  2099f2:	87ae                	mv	a5,a1
  2099f4:	fcf42223          	sw	a5,-60(s0)
  2099f8:	fe043023          	sd	zero,-32(s0)
  2099fc:	fe043423          	sd	zero,-24(s0)
  209a00:	fc042e23          	sw	zero,-36(s0)
  209a04:	fc843783          	ld	a5,-56(s0)
  209a08:	07f1                	addi	a5,a5,28
  209a0a:	fc442703          	lw	a4,-60(s0)
  209a0e:	c398                	sw	a4,0(a5)
  209a10:	fe040713          	addi	a4,s0,-32
  209a14:	fc843783          	ld	a5,-56(s0)
  209a18:	07a1                	addi	a5,a5,8
  209a1a:	2701                	sext.w	a4,a4
  209a1c:	c398                	sw	a4,0(a5)
  209a1e:	fdc40713          	addi	a4,s0,-36
  209a22:	fc843783          	ld	a5,-56(s0)
  209a26:	07e1                	addi	a5,a5,24
  209a28:	2701                	sext.w	a4,a4
  209a2a:	c398                	sw	a4,0(a5)
  209a2c:	fc843783          	ld	a5,-56(s0)
  209a30:	02e00713          	li	a4,46
  209a34:	c398                	sw	a4,0(a5)
  209a36:	0001                	nop
  209a38:	fc843503          	ld	a0,-56(s0)
  209a3c:	e99ff0ef          	jal	ra,2098d4 <V2FIsControllerBusy>
  209a40:	87aa                	mv	a5,a0
  209a42:	2781                	sext.w	a5,a5
  209a44:	fbf5                	bnez	a5,209a38 <V2FGetFeaturesSync+0x62>
  209a46:	0001                	nop
  209a48:	fdc42783          	lw	a5,-36(s0)
  209a4c:	2781                	sext.w	a5,a5
  209a4e:	8b85                	andi	a5,a5,1
  209a50:	2781                	sext.w	a5,a5
  209a52:	dbfd                	beqz	a5,209a48 <V2FGetFeaturesSync+0x72>
  209a54:	fe042783          	lw	a5,-32(s0)
  209a58:	0007871b          	sext.w	a4,a5
  209a5c:	fb843783          	ld	a5,-72(s0)
  209a60:	c398                	sw	a4,0(a5)
  209a62:	fe442783          	lw	a5,-28(s0)
  209a66:	0007871b          	sext.w	a4,a5
  209a6a:	fb043783          	ld	a5,-80(s0)
  209a6e:	c398                	sw	a4,0(a5)
  209a70:	fe842783          	lw	a5,-24(s0)
  209a74:	0007871b          	sext.w	a4,a5
  209a78:	fa843783          	ld	a5,-88(s0)
  209a7c:	c398                	sw	a4,0(a5)
  209a7e:	fec42783          	lw	a5,-20(s0)
  209a82:	0007871b          	sext.w	a4,a5
  209a86:	fa043783          	ld	a5,-96(s0)
  209a8a:	c398                	sw	a4,0(a5)
  209a8c:	0001                	nop
  209a8e:	60e6                	ld	ra,88(sp)
  209a90:	6446                	ld	s0,80(sp)
  209a92:	6125                	addi	sp,sp,96
  209a94:	8082                	ret

0000000000209a96 <V2FReadPageTriggerAsync>:
  209a96:	1101                	addi	sp,sp,-32
  209a98:	ec22                	sd	s0,24(sp)
  209a9a:	1000                	addi	s0,sp,32
  209a9c:	fea43423          	sd	a0,-24(s0)
  209aa0:	87ae                	mv	a5,a1
  209aa2:	8732                	mv	a4,a2
  209aa4:	fef42223          	sw	a5,-28(s0)
  209aa8:	87ba                	mv	a5,a4
  209aaa:	fef42023          	sw	a5,-32(s0)
  209aae:	fe843783          	ld	a5,-24(s0)
  209ab2:	07f1                	addi	a5,a5,28
  209ab4:	fe442703          	lw	a4,-28(s0)
  209ab8:	c398                	sw	a4,0(a5)
  209aba:	fe843783          	ld	a5,-24(s0)
  209abe:	0791                	addi	a5,a5,4
  209ac0:	fe042703          	lw	a4,-32(s0)
  209ac4:	c398                	sw	a4,0(a5)
  209ac6:	fe843783          	ld	a5,-24(s0)
  209aca:	4735                	li	a4,13
  209acc:	c398                	sw	a4,0(a5)
  209ace:	0001                	nop
  209ad0:	6462                	ld	s0,24(sp)
  209ad2:	6105                	addi	sp,sp,32
  209ad4:	8082                	ret

0000000000209ad6 <V2FReadPageTransferAsync>:
  209ad6:	7139                	addi	sp,sp,-64
  209ad8:	fc22                	sd	s0,56(sp)
  209ada:	0080                	addi	s0,sp,64
  209adc:	fea43423          	sd	a0,-24(s0)
  209ae0:	fcc43c23          	sd	a2,-40(s0)
  209ae4:	fcd43823          	sd	a3,-48(s0)
  209ae8:	fce43423          	sd	a4,-56(s0)
  209aec:	fcf43023          	sd	a5,-64(s0)
  209af0:	8742                	mv	a4,a6
  209af2:	87ae                	mv	a5,a1
  209af4:	fef42223          	sw	a5,-28(s0)
  209af8:	87ba                	mv	a5,a4
  209afa:	fef42023          	sw	a5,-32(s0)
  209afe:	fe843783          	ld	a5,-24(s0)
  209b02:	07f1                	addi	a5,a5,28
  209b04:	fe442703          	lw	a4,-28(s0)
  209b08:	c398                	sw	a4,0(a5)
  209b0a:	fd843703          	ld	a4,-40(s0)
  209b0e:	fe843783          	ld	a5,-24(s0)
  209b12:	07b1                	addi	a5,a5,12
  209b14:	2701                	sext.w	a4,a4
  209b16:	c398                	sw	a4,0(a5)
  209b18:	fd043703          	ld	a4,-48(s0)
  209b1c:	fe843783          	ld	a5,-24(s0)
  209b20:	07c1                	addi	a5,a5,16
  209b22:	2701                	sext.w	a4,a4
  209b24:	c398                	sw	a4,0(a5)
  209b26:	fc843703          	ld	a4,-56(s0)
  209b2a:	fe843783          	ld	a5,-24(s0)
  209b2e:	07d1                	addi	a5,a5,20
  209b30:	2701                	sext.w	a4,a4
  209b32:	c398                	sw	a4,0(a5)
  209b34:	fc043703          	ld	a4,-64(s0)
  209b38:	fe843783          	ld	a5,-24(s0)
  209b3c:	07e1                	addi	a5,a5,24
  209b3e:	2701                	sext.w	a4,a4
  209b40:	c398                	sw	a4,0(a5)
  209b42:	fe843783          	ld	a5,-24(s0)
  209b46:	0791                	addi	a5,a5,4
  209b48:	fe042703          	lw	a4,-32(s0)
  209b4c:	c398                	sw	a4,0(a5)
  209b4e:	fc043783          	ld	a5,-64(s0)
  209b52:	0007a023          	sw	zero,0(a5)
  209b56:	fe843783          	ld	a5,-24(s0)
  209b5a:	4749                	li	a4,18
  209b5c:	c398                	sw	a4,0(a5)
  209b5e:	0001                	nop
  209b60:	7462                	ld	s0,56(sp)
  209b62:	6121                	addi	sp,sp,64
  209b64:	8082                	ret

0000000000209b66 <V2FReadPageTransferRawAsync>:
  209b66:	7179                	addi	sp,sp,-48
  209b68:	f422                	sd	s0,40(sp)
  209b6a:	1800                	addi	s0,sp,48
  209b6c:	fea43423          	sd	a0,-24(s0)
  209b70:	87ae                	mv	a5,a1
  209b72:	fcc43c23          	sd	a2,-40(s0)
  209b76:	fcd43823          	sd	a3,-48(s0)
  209b7a:	fef42223          	sw	a5,-28(s0)
  209b7e:	fe843783          	ld	a5,-24(s0)
  209b82:	07f1                	addi	a5,a5,28
  209b84:	fe442703          	lw	a4,-28(s0)
  209b88:	c398                	sw	a4,0(a5)
  209b8a:	fd843703          	ld	a4,-40(s0)
  209b8e:	fe843783          	ld	a5,-24(s0)
  209b92:	07b1                	addi	a5,a5,12
  209b94:	2701                	sext.w	a4,a4
  209b96:	c398                	sw	a4,0(a5)
  209b98:	fd043703          	ld	a4,-48(s0)
  209b9c:	fe843783          	ld	a5,-24(s0)
  209ba0:	07e1                	addi	a5,a5,24
  209ba2:	2701                	sext.w	a4,a4
  209ba4:	c398                	sw	a4,0(a5)
  209ba6:	fd043783          	ld	a5,-48(s0)
  209baa:	0007a023          	sw	zero,0(a5)
  209bae:	fe843783          	ld	a5,-24(s0)
  209bb2:	03700713          	li	a4,55
  209bb6:	c398                	sw	a4,0(a5)
  209bb8:	0001                	nop
  209bba:	7422                	ld	s0,40(sp)
  209bbc:	6145                	addi	sp,sp,48
  209bbe:	8082                	ret

0000000000209bc0 <V2FProgramPageAsync>:
  209bc0:	7179                	addi	sp,sp,-48
  209bc2:	f422                	sd	s0,40(sp)
  209bc4:	1800                	addi	s0,sp,48
  209bc6:	fea43423          	sd	a0,-24(s0)
  209bca:	87ae                	mv	a5,a1
  209bcc:	fcd43c23          	sd	a3,-40(s0)
  209bd0:	fce43823          	sd	a4,-48(s0)
  209bd4:	fef42223          	sw	a5,-28(s0)
  209bd8:	87b2                	mv	a5,a2
  209bda:	fef42023          	sw	a5,-32(s0)
  209bde:	fe843783          	ld	a5,-24(s0)
  209be2:	07f1                	addi	a5,a5,28
  209be4:	fe442703          	lw	a4,-28(s0)
  209be8:	c398                	sw	a4,0(a5)
  209bea:	fe843783          	ld	a5,-24(s0)
  209bee:	0791                	addi	a5,a5,4
  209bf0:	fe042703          	lw	a4,-32(s0)
  209bf4:	c398                	sw	a4,0(a5)
  209bf6:	fd843703          	ld	a4,-40(s0)
  209bfa:	fe843783          	ld	a5,-24(s0)
  209bfe:	07b1                	addi	a5,a5,12
  209c00:	2701                	sext.w	a4,a4
  209c02:	c398                	sw	a4,0(a5)
  209c04:	fd043703          	ld	a4,-48(s0)
  209c08:	fe843783          	ld	a5,-24(s0)
  209c0c:	07c1                	addi	a5,a5,16
  209c0e:	2701                	sext.w	a4,a4
  209c10:	c398                	sw	a4,0(a5)
  209c12:	fe843783          	ld	a5,-24(s0)
  209c16:	4771                	li	a4,28
  209c18:	c398                	sw	a4,0(a5)
  209c1a:	0001                	nop
  209c1c:	7422                	ld	s0,40(sp)
  209c1e:	6145                	addi	sp,sp,48
  209c20:	8082                	ret

0000000000209c22 <V2FEraseBlockAsync>:
  209c22:	1101                	addi	sp,sp,-32
  209c24:	ec22                	sd	s0,24(sp)
  209c26:	1000                	addi	s0,sp,32
  209c28:	fea43423          	sd	a0,-24(s0)
  209c2c:	87ae                	mv	a5,a1
  209c2e:	8732                	mv	a4,a2
  209c30:	fef42223          	sw	a5,-28(s0)
  209c34:	87ba                	mv	a5,a4
  209c36:	fef42023          	sw	a5,-32(s0)
  209c3a:	fe843783          	ld	a5,-24(s0)
  209c3e:	07f1                	addi	a5,a5,28
  209c40:	fe442703          	lw	a4,-28(s0)
  209c44:	c398                	sw	a4,0(a5)
  209c46:	fe843783          	ld	a5,-24(s0)
  209c4a:	0791                	addi	a5,a5,4
  209c4c:	fe042703          	lw	a4,-32(s0)
  209c50:	c398                	sw	a4,0(a5)
  209c52:	fe843783          	ld	a5,-24(s0)
  209c56:	02500713          	li	a4,37
  209c5a:	c398                	sw	a4,0(a5)
  209c5c:	0001                	nop
  209c5e:	6462                	ld	s0,24(sp)
  209c60:	6105                	addi	sp,sp,32
  209c62:	8082                	ret

0000000000209c64 <V2FStatusCheckAsync>:
  209c64:	7179                	addi	sp,sp,-48
  209c66:	f422                	sd	s0,40(sp)
  209c68:	1800                	addi	s0,sp,48
  209c6a:	fea43423          	sd	a0,-24(s0)
  209c6e:	87ae                	mv	a5,a1
  209c70:	fcc43c23          	sd	a2,-40(s0)
  209c74:	fef42223          	sw	a5,-28(s0)
  209c78:	fe843783          	ld	a5,-24(s0)
  209c7c:	07f1                	addi	a5,a5,28
  209c7e:	fe442703          	lw	a4,-28(s0)
  209c82:	c398                	sw	a4,0(a5)
  209c84:	fd843703          	ld	a4,-40(s0)
  209c88:	fe843783          	ld	a5,-24(s0)
  209c8c:	07e1                	addi	a5,a5,24
  209c8e:	2701                	sext.w	a4,a4
  209c90:	c398                	sw	a4,0(a5)
  209c92:	fd843783          	ld	a5,-40(s0)
  209c96:	0007a023          	sw	zero,0(a5)
  209c9a:	fe843783          	ld	a5,-24(s0)
  209c9e:	02900713          	li	a4,41
  209ca2:	c398                	sw	a4,0(a5)
  209ca4:	0001                	nop
  209ca6:	7422                	ld	s0,40(sp)
  209ca8:	6145                	addi	sp,sp,48
  209caa:	8082                	ret

0000000000209cac <V2FStatusCheckSync>:
  209cac:	7179                	addi	sp,sp,-48
  209cae:	f406                	sd	ra,40(sp)
  209cb0:	f022                	sd	s0,32(sp)
  209cb2:	1800                	addi	s0,sp,48
  209cb4:	fca43c23          	sd	a0,-40(s0)
  209cb8:	87ae                	mv	a5,a1
  209cba:	fcf42a23          	sw	a5,-44(s0)
  209cbe:	fec40713          	addi	a4,s0,-20
  209cc2:	fd442783          	lw	a5,-44(s0)
  209cc6:	863a                	mv	a2,a4
  209cc8:	85be                	mv	a1,a5
  209cca:	fd843503          	ld	a0,-40(s0)
  209cce:	f97ff0ef          	jal	ra,209c64 <V2FStatusCheckAsync>
  209cd2:	0001                	nop
  209cd4:	fec42783          	lw	a5,-20(s0)
  209cd8:	2781                	sext.w	a5,a5
  209cda:	8b85                	andi	a5,a5,1
  209cdc:	2781                	sext.w	a5,a5
  209cde:	dbfd                	beqz	a5,209cd4 <V2FStatusCheckSync+0x28>
  209ce0:	fec42783          	lw	a5,-20(s0)
  209ce4:	2781                	sext.w	a5,a5
  209ce6:	0017d79b          	srliw	a5,a5,0x1
  209cea:	2781                	sext.w	a5,a5
  209cec:	853e                	mv	a0,a5
  209cee:	70a2                	ld	ra,40(sp)
  209cf0:	7402                	ld	s0,32(sp)
  209cf2:	6145                	addi	sp,sp,48
  209cf4:	8082                	ret

0000000000209cf6 <V2FReadyBusyAsync>:
  209cf6:	7179                	addi	sp,sp,-48
  209cf8:	f422                	sd	s0,40(sp)
  209cfa:	1800                	addi	s0,sp,48
  209cfc:	fca43c23          	sd	a0,-40(s0)
  209d00:	fd843783          	ld	a5,-40(s0)
  209d04:	53dc                	lw	a5,36(a5)
  209d06:	fef42623          	sw	a5,-20(s0)
  209d0a:	fec42783          	lw	a5,-20(s0)
  209d0e:	2781                	sext.w	a5,a5
  209d10:	853e                	mv	a0,a5
  209d12:	7422                	ld	s0,40(sp)
  209d14:	6145                	addi	sp,sp,48
  209d16:	8082                	ret

0000000000209d18 <InitFTL>:
  209d18:	1141                	addi	sp,sp,-16
  209d1a:	e406                	sd	ra,8(sp)
  209d1c:	e022                	sd	s0,0(sp)
  209d1e:	0800                	addi	s0,sp,16
  209d20:	458000ef          	jal	ra,20a178 <CheckConfigRestriction>
  209d24:	068000ef          	jal	ra,209d8c <InitChCtlReg>
  209d28:	aa6f90ef          	jal	ra,202fce <InitReqPool>
  209d2c:	45a000ef          	jal	ra,20a186 <InitDependencyTable>
  209d30:	da6fb0ef          	jal	ra,2052d6 <InitReqScheduler>
  209d34:	0d6000ef          	jal	ra,209e0a <InitNandArray>
  209d38:	bd6f60ef          	jal	ra,20010e <InitAddressMap>
  209d3c:	a97fa0ef          	jal	ra,2047d2 <InitDataBuf>
  209d40:	2f6020ef          	jal	ra,20c036 <InitGcVictimMap>
  209d44:	002107b7          	lui	a5,0x210
  209d48:	bf47a783          	lw	a5,-1036(a5) # 20fbf4 <mbPerbadBlockSpace>
  209d4c:	000e6737          	lui	a4,0xe6
  209d50:	5e87071b          	addiw	a4,a4,1512
  209d54:	40f707bb          	subw	a5,a4,a5
  209d58:	2781                	sext.w	a5,a5
  209d5a:	0087979b          	slliw	a5,a5,0x8
  209d5e:	0007871b          	sext.w	a4,a5
  209d62:	002107b7          	lui	a5,0x210
  209d66:	0ce7a023          	sw	a4,192(a5) # 2100c0 <storageCapacity_L>
  209d6a:	0020f7b7          	lui	a5,0x20f
  209d6e:	3f078513          	addi	a0,a5,1008 # 20f3f0 <nvme_main+0xa78>
  209d72:	8a7fa0ef          	jal	ra,204618 <cpl_print>
  209d76:	0020f7b7          	lui	a5,0x20f
  209d7a:	41078513          	addi	a0,a5,1040 # 20f410 <nvme_main+0xa98>
  209d7e:	89bfa0ef          	jal	ra,204618 <cpl_print>
  209d82:	0001                	nop
  209d84:	60a2                	ld	ra,8(sp)
  209d86:	6402                	ld	s0,0(sp)
  209d88:	0141                	addi	sp,sp,16
  209d8a:	8082                	ret

0000000000209d8c <InitChCtlReg>:
  209d8c:	1141                	addi	sp,sp,-16
  209d8e:	e422                	sd	s0,8(sp)
  209d90:	0800                	addi	s0,sp,16
  209d92:	002107b7          	lui	a5,0x210
  209d96:	0c878793          	addi	a5,a5,200 # 2100c8 <chCtlReg>
  209d9a:	43c00737          	lui	a4,0x43c00
  209d9e:	e398                	sd	a4,0(a5)
  209da0:	002107b7          	lui	a5,0x210
  209da4:	0c878793          	addi	a5,a5,200 # 2100c8 <chCtlReg>
  209da8:	43c10737          	lui	a4,0x43c10
  209dac:	e798                	sd	a4,8(a5)
  209dae:	002107b7          	lui	a5,0x210
  209db2:	0c878793          	addi	a5,a5,200 # 2100c8 <chCtlReg>
  209db6:	43c20737          	lui	a4,0x43c20
  209dba:	eb98                	sd	a4,16(a5)
  209dbc:	002107b7          	lui	a5,0x210
  209dc0:	0c878793          	addi	a5,a5,200 # 2100c8 <chCtlReg>
  209dc4:	43c30737          	lui	a4,0x43c30
  209dc8:	ef98                	sd	a4,24(a5)
  209dca:	002107b7          	lui	a5,0x210
  209dce:	0c878793          	addi	a5,a5,200 # 2100c8 <chCtlReg>
  209dd2:	43c40737          	lui	a4,0x43c40
  209dd6:	f398                	sd	a4,32(a5)
  209dd8:	002107b7          	lui	a5,0x210
  209ddc:	0c878793          	addi	a5,a5,200 # 2100c8 <chCtlReg>
  209de0:	43c50737          	lui	a4,0x43c50
  209de4:	f798                	sd	a4,40(a5)
  209de6:	002107b7          	lui	a5,0x210
  209dea:	0c878793          	addi	a5,a5,200 # 2100c8 <chCtlReg>
  209dee:	43c60737          	lui	a4,0x43c60
  209df2:	fb98                	sd	a4,48(a5)
  209df4:	002107b7          	lui	a5,0x210
  209df8:	0c878793          	addi	a5,a5,200 # 2100c8 <chCtlReg>
  209dfc:	43c70737          	lui	a4,0x43c70
  209e00:	ff98                	sd	a4,56(a5)
  209e02:	0001                	nop
  209e04:	6422                	ld	s0,8(sp)
  209e06:	0141                	addi	sp,sp,16
  209e08:	8082                	ret

0000000000209e0a <InitNandArray>:
  209e0a:	1101                	addi	sp,sp,-32
  209e0c:	ec06                	sd	ra,24(sp)
  209e0e:	e822                	sd	s0,16(sp)
  209e10:	1000                	addi	s0,sp,32
  209e12:	fe042623          	sw	zero,-20(s0)
  209e16:	ae2d                	j	20a150 <InitNandArray+0x346>
  209e18:	fe042423          	sw	zero,-24(s0)
  209e1c:	ae31                	j	20a138 <InitNandArray+0x32e>
  209e1e:	da2f90ef          	jal	ra,2033c0 <GetFromFreeReqQ>
  209e22:	87aa                	mv	a5,a0
  209e24:	fef42223          	sw	a5,-28(s0)
  209e28:	002107b7          	lui	a5,0x210
  209e2c:	e507b703          	ld	a4,-432(a5) # 20fe50 <reqPoolPtr>
  209e30:	fe446683          	lwu	a3,-28(s0)
  209e34:	03400793          	li	a5,52
  209e38:	02f687b3          	mul	a5,a3,a5
  209e3c:	97ba                	add	a5,a5,a4
  209e3e:	4398                	lw	a4,0(a5)
  209e40:	9b41                	andi	a4,a4,-16
  209e42:	00176713          	ori	a4,a4,1
  209e46:	c398                	sw	a4,0(a5)
  209e48:	002107b7          	lui	a5,0x210
  209e4c:	e507b703          	ld	a4,-432(a5) # 20fe50 <reqPoolPtr>
  209e50:	fe446683          	lwu	a3,-28(s0)
  209e54:	03400793          	li	a5,52
  209e58:	02f687b3          	mul	a5,a3,a5
  209e5c:	97ba                	add	a5,a5,a4
  209e5e:	4735                	li	a4,13
  209e60:	00e780a3          	sb	a4,1(a5)
  209e64:	002107b7          	lui	a5,0x210
  209e68:	e507b703          	ld	a4,-432(a5) # 20fe50 <reqPoolPtr>
  209e6c:	fe446683          	lwu	a3,-28(s0)
  209e70:	03400793          	li	a5,52
  209e74:	02f687b3          	mul	a5,a3,a5
  209e78:	97ba                	add	a5,a5,a4
  209e7a:	4b98                	lw	a4,16(a5)
  209e7c:	9b4d                	andi	a4,a4,-13
  209e7e:	00476713          	ori	a4,a4,4
  209e82:	cb98                	sw	a4,16(a5)
  209e84:	002107b7          	lui	a5,0x210
  209e88:	e507b703          	ld	a4,-432(a5) # 20fe50 <reqPoolPtr>
  209e8c:	fe446683          	lwu	a3,-28(s0)
  209e90:	03400793          	li	a5,52
  209e94:	02f687b3          	mul	a5,a3,a5
  209e98:	97ba                	add	a5,a5,a4
  209e9a:	4b98                	lw	a4,16(a5)
  209e9c:	00376713          	ori	a4,a4,3
  209ea0:	cb98                	sw	a4,16(a5)
  209ea2:	002107b7          	lui	a5,0x210
  209ea6:	e507b703          	ld	a4,-432(a5) # 20fe50 <reqPoolPtr>
  209eaa:	fe446683          	lwu	a3,-28(s0)
  209eae:	03400793          	li	a5,52
  209eb2:	02f687b3          	mul	a5,a3,a5
  209eb6:	97ba                	add	a5,a5,a4
  209eb8:	4b98                	lw	a4,16(a5)
  209eba:	fbf77713          	andi	a4,a4,-65
  209ebe:	cb98                	sw	a4,16(a5)
  209ec0:	002107b7          	lui	a5,0x210
  209ec4:	e507b703          	ld	a4,-432(a5) # 20fe50 <reqPoolPtr>
  209ec8:	fe446683          	lwu	a3,-28(s0)
  209ecc:	03400793          	li	a5,52
  209ed0:	02f687b3          	mul	a5,a3,a5
  209ed4:	97ba                	add	a5,a5,a4
  209ed6:	4b98                	lw	a4,16(a5)
  209ed8:	08076713          	ori	a4,a4,128
  209edc:	cb98                	sw	a4,16(a5)
  209ede:	002107b7          	lui	a5,0x210
  209ee2:	e507b703          	ld	a4,-432(a5) # 20fe50 <reqPoolPtr>
  209ee6:	fec42783          	lw	a5,-20(s0)
  209eea:	8bbd                	andi	a5,a5,15
  209eec:	0ff7f613          	andi	a2,a5,255
  209ef0:	fe446683          	lwu	a3,-28(s0)
  209ef4:	03400793          	li	a5,52
  209ef8:	02f687b3          	mul	a5,a3,a5
  209efc:	97ba                	add	a5,a5,a4
  209efe:	8732                	mv	a4,a2
  209f00:	00f77613          	andi	a2,a4,15
  209f04:	53d8                	lw	a4,36(a5)
  209f06:	9b41                	andi	a4,a4,-16
  209f08:	86ba                	mv	a3,a4
  209f0a:	8732                	mv	a4,a2
  209f0c:	8f55                	or	a4,a4,a3
  209f0e:	d3d8                	sw	a4,36(a5)
  209f10:	002107b7          	lui	a5,0x210
  209f14:	e507b703          	ld	a4,-432(a5) # 20fe50 <reqPoolPtr>
  209f18:	fe842783          	lw	a5,-24(s0)
  209f1c:	8bbd                	andi	a5,a5,15
  209f1e:	0ff7f613          	andi	a2,a5,255
  209f22:	fe446683          	lwu	a3,-28(s0)
  209f26:	03400793          	li	a5,52
  209f2a:	02f687b3          	mul	a5,a3,a5
  209f2e:	97ba                	add	a5,a5,a4
  209f30:	8732                	mv	a4,a2
  209f32:	8b3d                	andi	a4,a4,15
  209f34:	0047171b          	slliw	a4,a4,0x4
  209f38:	53d4                	lw	a3,36(a5)
  209f3a:	f0f6f693          	andi	a3,a3,-241
  209f3e:	8f55                	or	a4,a4,a3
  209f40:	d3d8                	sw	a4,36(a5)
  209f42:	002107b7          	lui	a5,0x210
  209f46:	e507b703          	ld	a4,-432(a5) # 20fe50 <reqPoolPtr>
  209f4a:	fe446683          	lwu	a3,-28(s0)
  209f4e:	03400793          	li	a5,52
  209f52:	02f687b3          	mul	a5,a3,a5
  209f56:	97ba                	add	a5,a5,a4
  209f58:	53d4                	lw	a3,36(a5)
  209f5a:	ff000737          	lui	a4,0xff000
  209f5e:	0ff70713          	addi	a4,a4,255 # ffffffffff0000ff <g_nvmeTask+0xfffffffffedeffb7>
  209f62:	8f75                	and	a4,a4,a3
  209f64:	d3d8                	sw	a4,36(a5)
  209f66:	002107b7          	lui	a5,0x210
  209f6a:	e507b703          	ld	a4,-432(a5) # 20fe50 <reqPoolPtr>
  209f6e:	fe446683          	lwu	a3,-28(s0)
  209f72:	03400793          	li	a5,52
  209f76:	02f687b3          	mul	a5,a3,a5
  209f7a:	97ba                	add	a5,a5,a4
  209f7c:	02079423          	sh	zero,40(a5)
  209f80:	002107b7          	lui	a5,0x210
  209f84:	e507b703          	ld	a4,-432(a5) # 20fe50 <reqPoolPtr>
  209f88:	fe446683          	lwu	a3,-28(s0)
  209f8c:	03400793          	li	a5,52
  209f90:	02f687b3          	mul	a5,a3,a5
  209f94:	97ba                	add	a5,a5,a4
  209f96:	577d                	li	a4,-1
  209f98:	02e79823          	sh	a4,48(a5)
  209f9c:	fe442783          	lw	a5,-28(s0)
  209fa0:	853e                	mv	a0,a5
  209fa2:	584010ef          	jal	ra,20b526 <SelectLowLevelReqQ>
  209fa6:	c1af90ef          	jal	ra,2033c0 <GetFromFreeReqQ>
  209faa:	87aa                	mv	a5,a0
  209fac:	fef42223          	sw	a5,-28(s0)
  209fb0:	002107b7          	lui	a5,0x210
  209fb4:	e507b703          	ld	a4,-432(a5) # 20fe50 <reqPoolPtr>
  209fb8:	fe446683          	lwu	a3,-28(s0)
  209fbc:	03400793          	li	a5,52
  209fc0:	02f687b3          	mul	a5,a3,a5
  209fc4:	97ba                	add	a5,a5,a4
  209fc6:	4398                	lw	a4,0(a5)
  209fc8:	9b41                	andi	a4,a4,-16
  209fca:	00176713          	ori	a4,a4,1
  209fce:	c398                	sw	a4,0(a5)
  209fd0:	002107b7          	lui	a5,0x210
  209fd4:	e507b703          	ld	a4,-432(a5) # 20fe50 <reqPoolPtr>
  209fd8:	fe446683          	lwu	a3,-28(s0)
  209fdc:	03400793          	li	a5,52
  209fe0:	02f687b3          	mul	a5,a3,a5
  209fe4:	97ba                	add	a5,a5,a4
  209fe6:	4739                	li	a4,14
  209fe8:	00e780a3          	sb	a4,1(a5)
  209fec:	002107b7          	lui	a5,0x210
  209ff0:	e507b703          	ld	a4,-432(a5) # 20fe50 <reqPoolPtr>
  209ff4:	fe446683          	lwu	a3,-28(s0)
  209ff8:	03400793          	li	a5,52
  209ffc:	02f687b3          	mul	a5,a3,a5
  20a000:	97ba                	add	a5,a5,a4
  20a002:	4b98                	lw	a4,16(a5)
  20a004:	9b4d                	andi	a4,a4,-13
  20a006:	00476713          	ori	a4,a4,4
  20a00a:	cb98                	sw	a4,16(a5)
  20a00c:	002107b7          	lui	a5,0x210
  20a010:	e507b703          	ld	a4,-432(a5) # 20fe50 <reqPoolPtr>
  20a014:	fe446683          	lwu	a3,-28(s0)
  20a018:	03400793          	li	a5,52
  20a01c:	02f687b3          	mul	a5,a3,a5
  20a020:	97ba                	add	a5,a5,a4
  20a022:	4b98                	lw	a4,16(a5)
  20a024:	00376713          	ori	a4,a4,3
  20a028:	cb98                	sw	a4,16(a5)
  20a02a:	002107b7          	lui	a5,0x210
  20a02e:	e507b703          	ld	a4,-432(a5) # 20fe50 <reqPoolPtr>
  20a032:	fe446683          	lwu	a3,-28(s0)
  20a036:	03400793          	li	a5,52
  20a03a:	02f687b3          	mul	a5,a3,a5
  20a03e:	97ba                	add	a5,a5,a4
  20a040:	4b98                	lw	a4,16(a5)
  20a042:	fbf77713          	andi	a4,a4,-65
  20a046:	cb98                	sw	a4,16(a5)
  20a048:	002107b7          	lui	a5,0x210
  20a04c:	e507b703          	ld	a4,-432(a5) # 20fe50 <reqPoolPtr>
  20a050:	fe446683          	lwu	a3,-28(s0)
  20a054:	03400793          	li	a5,52
  20a058:	02f687b3          	mul	a5,a3,a5
  20a05c:	97ba                	add	a5,a5,a4
  20a05e:	4b98                	lw	a4,16(a5)
  20a060:	08076713          	ori	a4,a4,128
  20a064:	cb98                	sw	a4,16(a5)
  20a066:	002107b7          	lui	a5,0x210
  20a06a:	e507b703          	ld	a4,-432(a5) # 20fe50 <reqPoolPtr>
  20a06e:	fec42783          	lw	a5,-20(s0)
  20a072:	8bbd                	andi	a5,a5,15
  20a074:	0ff7f613          	andi	a2,a5,255
  20a078:	fe446683          	lwu	a3,-28(s0)
  20a07c:	03400793          	li	a5,52
  20a080:	02f687b3          	mul	a5,a3,a5
  20a084:	97ba                	add	a5,a5,a4
  20a086:	8732                	mv	a4,a2
  20a088:	00f77613          	andi	a2,a4,15
  20a08c:	53d8                	lw	a4,36(a5)
  20a08e:	9b41                	andi	a4,a4,-16
  20a090:	86ba                	mv	a3,a4
  20a092:	8732                	mv	a4,a2
  20a094:	8f55                	or	a4,a4,a3
  20a096:	d3d8                	sw	a4,36(a5)
  20a098:	002107b7          	lui	a5,0x210
  20a09c:	e507b703          	ld	a4,-432(a5) # 20fe50 <reqPoolPtr>
  20a0a0:	fe842783          	lw	a5,-24(s0)
  20a0a4:	8bbd                	andi	a5,a5,15
  20a0a6:	0ff7f613          	andi	a2,a5,255
  20a0aa:	fe446683          	lwu	a3,-28(s0)
  20a0ae:	03400793          	li	a5,52
  20a0b2:	02f687b3          	mul	a5,a3,a5
  20a0b6:	97ba                	add	a5,a5,a4
  20a0b8:	8732                	mv	a4,a2
  20a0ba:	8b3d                	andi	a4,a4,15
  20a0bc:	0047171b          	slliw	a4,a4,0x4
  20a0c0:	53d4                	lw	a3,36(a5)
  20a0c2:	f0f6f693          	andi	a3,a3,-241
  20a0c6:	8f55                	or	a4,a4,a3
  20a0c8:	d3d8                	sw	a4,36(a5)
  20a0ca:	002107b7          	lui	a5,0x210
  20a0ce:	e507b703          	ld	a4,-432(a5) # 20fe50 <reqPoolPtr>
  20a0d2:	fe446683          	lwu	a3,-28(s0)
  20a0d6:	03400793          	li	a5,52
  20a0da:	02f687b3          	mul	a5,a3,a5
  20a0de:	97ba                	add	a5,a5,a4
  20a0e0:	53d4                	lw	a3,36(a5)
  20a0e2:	ff000737          	lui	a4,0xff000
  20a0e6:	0ff70713          	addi	a4,a4,255 # ffffffffff0000ff <g_nvmeTask+0xfffffffffedeffb7>
  20a0ea:	8f75                	and	a4,a4,a3
  20a0ec:	d3d8                	sw	a4,36(a5)
  20a0ee:	002107b7          	lui	a5,0x210
  20a0f2:	e507b703          	ld	a4,-432(a5) # 20fe50 <reqPoolPtr>
  20a0f6:	fe446683          	lwu	a3,-28(s0)
  20a0fa:	03400793          	li	a5,52
  20a0fe:	02f687b3          	mul	a5,a3,a5
  20a102:	97ba                	add	a5,a5,a4
  20a104:	02079423          	sh	zero,40(a5)
  20a108:	002107b7          	lui	a5,0x210
  20a10c:	e507b703          	ld	a4,-432(a5) # 20fe50 <reqPoolPtr>
  20a110:	fe446683          	lwu	a3,-28(s0)
  20a114:	03400793          	li	a5,52
  20a118:	02f687b3          	mul	a5,a3,a5
  20a11c:	97ba                	add	a5,a5,a4
  20a11e:	577d                	li	a4,-1
  20a120:	02e79823          	sh	a4,48(a5)
  20a124:	fe442783          	lw	a5,-28(s0)
  20a128:	853e                	mv	a0,a5
  20a12a:	3fc010ef          	jal	ra,20b526 <SelectLowLevelReqQ>
  20a12e:	fe842783          	lw	a5,-24(s0)
  20a132:	2785                	addiw	a5,a5,1
  20a134:	fef42423          	sw	a5,-24(s0)
  20a138:	fe842783          	lw	a5,-24(s0)
  20a13c:	0007871b          	sext.w	a4,a5
  20a140:	479d                	li	a5,7
  20a142:	cce7fee3          	bgeu	a5,a4,209e1e <InitNandArray+0x14>
  20a146:	fec42783          	lw	a5,-20(s0)
  20a14a:	2785                	addiw	a5,a5,1
  20a14c:	fef42623          	sw	a5,-20(s0)
  20a150:	fec42783          	lw	a5,-20(s0)
  20a154:	0007871b          	sext.w	a4,a5
  20a158:	479d                	li	a5,7
  20a15a:	cae7ffe3          	bgeu	a5,a4,209e18 <InitNandArray+0xe>
  20a15e:	cd2fb0ef          	jal	ra,205630 <SyncAllLowLevelReqDone>
  20a162:	0020f7b7          	lui	a5,0x20f
  20a166:	43878513          	addi	a0,a5,1080 # 20f438 <nvme_main+0xac0>
  20a16a:	caefa0ef          	jal	ra,204618 <cpl_print>
  20a16e:	0001                	nop
  20a170:	60e2                	ld	ra,24(sp)
  20a172:	6442                	ld	s0,16(sp)
  20a174:	6105                	addi	sp,sp,32
  20a176:	8082                	ret

000000000020a178 <CheckConfigRestriction>:
  20a178:	1141                	addi	sp,sp,-16
  20a17a:	e422                	sd	s0,8(sp)
  20a17c:	0800                	addi	s0,sp,16
  20a17e:	0001                	nop
  20a180:	6422                	ld	s0,8(sp)
  20a182:	0141                	addi	sp,sp,16
  20a184:	8082                	ret

000000000020a186 <InitDependencyTable>:
  20a186:	1101                	addi	sp,sp,-32
  20a188:	ec22                	sd	s0,24(sp)
  20a18a:	1000                	addi	s0,sp,32
  20a18c:	002107b7          	lui	a5,0x210
  20a190:	38880737          	lui	a4,0x38880
  20a194:	60070713          	addi	a4,a4,1536 # 38880600 <g_nvmeTask+0x386704b8>
  20a198:	10e7b423          	sd	a4,264(a5) # 210108 <rowAddrDependencyTablePtr>
  20a19c:	fe042623          	sw	zero,-20(s0)
  20a1a0:	a0e1                	j	20a268 <InitDependencyTable+0xe2>
  20a1a2:	fe042423          	sw	zero,-24(s0)
  20a1a6:	a06d                	j	20a250 <InitDependencyTable+0xca>
  20a1a8:	fe042223          	sw	zero,-28(s0)
  20a1ac:	a071                	j	20a238 <InitDependencyTable+0xb2>
  20a1ae:	002107b7          	lui	a5,0x210
  20a1b2:	1087b703          	ld	a4,264(a5) # 210108 <rowAddrDependencyTablePtr>
  20a1b6:	fec46783          	lwu	a5,-20(s0)
  20a1ba:	fe446603          	lwu	a2,-28(s0)
  20a1be:	fe846683          	lwu	a3,-24(s0)
  20a1c2:	060e                	slli	a2,a2,0x3
  20a1c4:	96b2                	add	a3,a3,a2
  20a1c6:	06b6                	slli	a3,a3,0xd
  20a1c8:	97b6                	add	a5,a5,a3
  20a1ca:	078a                	slli	a5,a5,0x2
  20a1cc:	97ba                	add	a5,a5,a4
  20a1ce:	4394                	lw	a3,0(a5)
  20a1d0:	777d                	lui	a4,0xfffff
  20a1d2:	8f75                	and	a4,a4,a3
  20a1d4:	c398                	sw	a4,0(a5)
  20a1d6:	002107b7          	lui	a5,0x210
  20a1da:	1087b703          	ld	a4,264(a5) # 210108 <rowAddrDependencyTablePtr>
  20a1de:	fec46783          	lwu	a5,-20(s0)
  20a1e2:	fe446603          	lwu	a2,-28(s0)
  20a1e6:	fe846683          	lwu	a3,-24(s0)
  20a1ea:	060e                	slli	a2,a2,0x3
  20a1ec:	96b2                	add	a3,a3,a2
  20a1ee:	06b6                	slli	a3,a3,0xd
  20a1f0:	97b6                	add	a5,a5,a3
  20a1f2:	078a                	slli	a5,a5,0x2
  20a1f4:	97ba                	add	a5,a5,a4
  20a1f6:	4394                	lw	a3,0(a5)
  20a1f8:	f0001737          	lui	a4,0xf0001
  20a1fc:	177d                	addi	a4,a4,-1
  20a1fe:	8f75                	and	a4,a4,a3
  20a200:	c398                	sw	a4,0(a5)
  20a202:	002107b7          	lui	a5,0x210
  20a206:	1087b703          	ld	a4,264(a5) # 210108 <rowAddrDependencyTablePtr>
  20a20a:	fec46783          	lwu	a5,-20(s0)
  20a20e:	fe446603          	lwu	a2,-28(s0)
  20a212:	fe846683          	lwu	a3,-24(s0)
  20a216:	060e                	slli	a2,a2,0x3
  20a218:	96b2                	add	a3,a3,a2
  20a21a:	06b6                	slli	a3,a3,0xd
  20a21c:	97b6                	add	a5,a5,a3
  20a21e:	078a                	slli	a5,a5,0x2
  20a220:	97ba                	add	a5,a5,a4
  20a222:	4394                	lw	a3,0(a5)
  20a224:	f0000737          	lui	a4,0xf0000
  20a228:	177d                	addi	a4,a4,-1
  20a22a:	8f75                	and	a4,a4,a3
  20a22c:	c398                	sw	a4,0(a5)
  20a22e:	fe442783          	lw	a5,-28(s0)
  20a232:	2785                	addiw	a5,a5,1
  20a234:	fef42223          	sw	a5,-28(s0)
  20a238:	fe442783          	lw	a5,-28(s0)
  20a23c:	0007871b          	sext.w	a4,a5
  20a240:	479d                	li	a5,7
  20a242:	f6e7f6e3          	bgeu	a5,a4,20a1ae <InitDependencyTable+0x28>
  20a246:	fe842783          	lw	a5,-24(s0)
  20a24a:	2785                	addiw	a5,a5,1
  20a24c:	fef42423          	sw	a5,-24(s0)
  20a250:	fe842783          	lw	a5,-24(s0)
  20a254:	0007871b          	sext.w	a4,a5
  20a258:	479d                	li	a5,7
  20a25a:	f4e7f7e3          	bgeu	a5,a4,20a1a8 <InitDependencyTable+0x22>
  20a25e:	fec42783          	lw	a5,-20(s0)
  20a262:	2785                	addiw	a5,a5,1
  20a264:	fef42623          	sw	a5,-20(s0)
  20a268:	fec42783          	lw	a5,-20(s0)
  20a26c:	0007871b          	sext.w	a4,a5
  20a270:	6789                	lui	a5,0x2
  20a272:	f2f768e3          	bltu	a4,a5,20a1a2 <InitDependencyTable+0x1c>
  20a276:	0001                	nop
  20a278:	0001                	nop
  20a27a:	6462                	ld	s0,24(sp)
  20a27c:	6105                	addi	sp,sp,32
  20a27e:	8082                	ret

000000000020a280 <ReqTransNvmeToSlice>:
  20a280:	715d                	addi	sp,sp,-80
  20a282:	e486                	sd	ra,72(sp)
  20a284:	e0a2                	sd	s0,64(sp)
  20a286:	0880                	addi	s0,sp,80
  20a288:	87aa                	mv	a5,a0
  20a28a:	8736                	mv	a4,a3
  20a28c:	faf42e23          	sw	a5,-68(s0)
  20a290:	87ae                	mv	a5,a1
  20a292:	faf42c23          	sw	a5,-72(s0)
  20a296:	87b2                	mv	a5,a2
  20a298:	faf42a23          	sw	a5,-76(s0)
  20a29c:	87ba                	mv	a5,a4
  20a29e:	faf42823          	sw	a5,-80(s0)
  20a2a2:	fb442783          	lw	a5,-76(s0)
  20a2a6:	2785                	addiw	a5,a5,1
  20a2a8:	fcf42c23          	sw	a5,-40(s0)
  20a2ac:	fe042423          	sw	zero,-24(s0)
  20a2b0:	fe042023          	sw	zero,-32(s0)
  20a2b4:	fb842783          	lw	a5,-72(s0)
  20a2b8:	0027d79b          	srliw	a5,a5,0x2
  20a2bc:	fef42223          	sw	a5,-28(s0)
  20a2c0:	fb842783          	lw	a5,-72(s0)
  20a2c4:	8b8d                	andi	a5,a5,3
  20a2c6:	2781                	sext.w	a5,a5
  20a2c8:	fd842703          	lw	a4,-40(s0)
  20a2cc:	9fb9                	addw	a5,a5,a4
  20a2ce:	2781                	sext.w	a5,a5
  20a2d0:	0027d79b          	srliw	a5,a5,0x2
  20a2d4:	fcf42a23          	sw	a5,-44(s0)
  20a2d8:	fb042783          	lw	a5,-80(s0)
  20a2dc:	0007871b          	sext.w	a4,a5
  20a2e0:	4785                	li	a5,1
  20a2e2:	00f71563          	bne	a4,a5,20a2ec <ReqTransNvmeToSlice+0x6c>
  20a2e6:	fc042e23          	sw	zero,-36(s0)
  20a2ea:	a015                	j	20a30e <ReqTransNvmeToSlice+0x8e>
  20a2ec:	fb042783          	lw	a5,-80(s0)
  20a2f0:	0007871b          	sext.w	a4,a5
  20a2f4:	4789                	li	a5,2
  20a2f6:	00f71663          	bne	a4,a5,20a302 <ReqTransNvmeToSlice+0x82>
  20a2fa:	47a1                	li	a5,8
  20a2fc:	fcf42e23          	sw	a5,-36(s0)
  20a300:	a039                	j	20a30e <ReqTransNvmeToSlice+0x8e>
  20a302:	0020f7b7          	lui	a5,0x20f
  20a306:	46078513          	addi	a0,a5,1120 # 20f460 <nvme_main+0xae8>
  20a30a:	b0efa0ef          	jal	ra,204618 <cpl_print>
  20a30e:	fb842783          	lw	a5,-72(s0)
  20a312:	8b8d                	andi	a5,a5,3
  20a314:	fcf42823          	sw	a5,-48(s0)
  20a318:	fd442783          	lw	a5,-44(s0)
  20a31c:	2781                	sext.w	a5,a5
  20a31e:	cb89                	beqz	a5,20a330 <ReqTransNvmeToSlice+0xb0>
  20a320:	4711                	li	a4,4
  20a322:	fd042783          	lw	a5,-48(s0)
  20a326:	40f707bb          	subw	a5,a4,a5
  20a32a:	fef42623          	sw	a5,-20(s0)
  20a32e:	a029                	j	20a338 <ReqTransNvmeToSlice+0xb8>
  20a330:	fd842783          	lw	a5,-40(s0)
  20a334:	fef42623          	sw	a5,-20(s0)
  20a338:	888f90ef          	jal	ra,2033c0 <GetFromFreeReqQ>
  20a33c:	87aa                	mv	a5,a0
  20a33e:	fcf42623          	sw	a5,-52(s0)
  20a342:	002107b7          	lui	a5,0x210
  20a346:	e507b703          	ld	a4,-432(a5) # 20fe50 <reqPoolPtr>
  20a34a:	fcc46683          	lwu	a3,-52(s0)
  20a34e:	03400793          	li	a5,52
  20a352:	02f687b3          	mul	a5,a3,a5
  20a356:	97ba                	add	a5,a5,a4
  20a358:	4398                	lw	a4,0(a5)
  20a35a:	9b41                	andi	a4,a4,-16
  20a35c:	c398                	sw	a4,0(a5)
  20a35e:	002107b7          	lui	a5,0x210
  20a362:	e507b683          	ld	a3,-432(a5) # 20fe50 <reqPoolPtr>
  20a366:	fdc42783          	lw	a5,-36(s0)
  20a36a:	0ff7f713          	andi	a4,a5,255
  20a36e:	fcc46603          	lwu	a2,-52(s0)
  20a372:	03400793          	li	a5,52
  20a376:	02f607b3          	mul	a5,a2,a5
  20a37a:	97b6                	add	a5,a5,a3
  20a37c:	00e780a3          	sb	a4,1(a5)
  20a380:	002107b7          	lui	a5,0x210
  20a384:	e507b683          	ld	a3,-432(a5) # 20fe50 <reqPoolPtr>
  20a388:	fbc42783          	lw	a5,-68(s0)
  20a38c:	03079713          	slli	a4,a5,0x30
  20a390:	9341                	srli	a4,a4,0x30
  20a392:	fcc46603          	lwu	a2,-52(s0)
  20a396:	03400793          	li	a5,52
  20a39a:	02f607b3          	mul	a5,a2,a5
  20a39e:	97b6                	add	a5,a5,a3
  20a3a0:	00e79123          	sh	a4,2(a5)
  20a3a4:	002107b7          	lui	a5,0x210
  20a3a8:	e507b703          	ld	a4,-432(a5) # 20fe50 <reqPoolPtr>
  20a3ac:	fcc46683          	lwu	a3,-52(s0)
  20a3b0:	03400793          	li	a5,52
  20a3b4:	02f687b3          	mul	a5,a3,a5
  20a3b8:	97ba                	add	a5,a5,a4
  20a3ba:	fe442703          	lw	a4,-28(s0)
  20a3be:	c7d8                	sw	a4,12(a5)
  20a3c0:	002107b7          	lui	a5,0x210
  20a3c4:	e507b683          	ld	a3,-432(a5) # 20fe50 <reqPoolPtr>
  20a3c8:	fe042783          	lw	a5,-32(s0)
  20a3cc:	03079713          	slli	a4,a5,0x30
  20a3d0:	9341                	srli	a4,a4,0x30
  20a3d2:	fcc46603          	lwu	a2,-52(s0)
  20a3d6:	03400793          	li	a5,52
  20a3da:	02f607b3          	mul	a5,a2,a5
  20a3de:	97b6                	add	a5,a5,a3
  20a3e0:	00e79c23          	sh	a4,24(a5)
  20a3e4:	002107b7          	lui	a5,0x210
  20a3e8:	e507b683          	ld	a3,-432(a5) # 20fe50 <reqPoolPtr>
  20a3ec:	fd042783          	lw	a5,-48(s0)
  20a3f0:	03079713          	slli	a4,a5,0x30
  20a3f4:	9341                	srli	a4,a4,0x30
  20a3f6:	fcc46603          	lwu	a2,-52(s0)
  20a3fa:	03400793          	li	a5,52
  20a3fe:	02f607b3          	mul	a5,a2,a5
  20a402:	97b6                	add	a5,a5,a3
  20a404:	00e79d23          	sh	a4,26(a5)
  20a408:	002107b7          	lui	a5,0x210
  20a40c:	e507b683          	ld	a3,-432(a5) # 20fe50 <reqPoolPtr>
  20a410:	fec42783          	lw	a5,-20(s0)
  20a414:	03079713          	slli	a4,a5,0x30
  20a418:	9341                	srli	a4,a4,0x30
  20a41a:	fcc46603          	lwu	a2,-52(s0)
  20a41e:	03400793          	li	a5,52
  20a422:	02f607b3          	mul	a5,a2,a5
  20a426:	97b6                	add	a5,a5,a3
  20a428:	00e79e23          	sh	a4,28(a5)
  20a42c:	fcc42783          	lw	a5,-52(s0)
  20a430:	853e                	mv	a0,a5
  20a432:	8a6f90ef          	jal	ra,2034d8 <PutToSliceReqQ>
  20a436:	fe442783          	lw	a5,-28(s0)
  20a43a:	2785                	addiw	a5,a5,1
  20a43c:	fef42223          	sw	a5,-28(s0)
  20a440:	fe842783          	lw	a5,-24(s0)
  20a444:	2785                	addiw	a5,a5,1
  20a446:	fef42423          	sw	a5,-24(s0)
  20a44a:	fe042703          	lw	a4,-32(s0)
  20a44e:	fec42783          	lw	a5,-20(s0)
  20a452:	9fb9                	addw	a5,a5,a4
  20a454:	fef42023          	sw	a5,-32(s0)
  20a458:	a235                	j	20a584 <ReqTransNvmeToSlice+0x304>
  20a45a:	fc042823          	sw	zero,-48(s0)
  20a45e:	4791                	li	a5,4
  20a460:	fef42623          	sw	a5,-20(s0)
  20a464:	f5df80ef          	jal	ra,2033c0 <GetFromFreeReqQ>
  20a468:	87aa                	mv	a5,a0
  20a46a:	fcf42623          	sw	a5,-52(s0)
  20a46e:	002107b7          	lui	a5,0x210
  20a472:	e507b703          	ld	a4,-432(a5) # 20fe50 <reqPoolPtr>
  20a476:	fcc46683          	lwu	a3,-52(s0)
  20a47a:	03400793          	li	a5,52
  20a47e:	02f687b3          	mul	a5,a3,a5
  20a482:	97ba                	add	a5,a5,a4
  20a484:	4398                	lw	a4,0(a5)
  20a486:	9b41                	andi	a4,a4,-16
  20a488:	c398                	sw	a4,0(a5)
  20a48a:	002107b7          	lui	a5,0x210
  20a48e:	e507b683          	ld	a3,-432(a5) # 20fe50 <reqPoolPtr>
  20a492:	fdc42783          	lw	a5,-36(s0)
  20a496:	0ff7f713          	andi	a4,a5,255
  20a49a:	fcc46603          	lwu	a2,-52(s0)
  20a49e:	03400793          	li	a5,52
  20a4a2:	02f607b3          	mul	a5,a2,a5
  20a4a6:	97b6                	add	a5,a5,a3
  20a4a8:	00e780a3          	sb	a4,1(a5)
  20a4ac:	002107b7          	lui	a5,0x210
  20a4b0:	e507b683          	ld	a3,-432(a5) # 20fe50 <reqPoolPtr>
  20a4b4:	fbc42783          	lw	a5,-68(s0)
  20a4b8:	03079713          	slli	a4,a5,0x30
  20a4bc:	9341                	srli	a4,a4,0x30
  20a4be:	fcc46603          	lwu	a2,-52(s0)
  20a4c2:	03400793          	li	a5,52
  20a4c6:	02f607b3          	mul	a5,a2,a5
  20a4ca:	97b6                	add	a5,a5,a3
  20a4cc:	00e79123          	sh	a4,2(a5)
  20a4d0:	002107b7          	lui	a5,0x210
  20a4d4:	e507b703          	ld	a4,-432(a5) # 20fe50 <reqPoolPtr>
  20a4d8:	fcc46683          	lwu	a3,-52(s0)
  20a4dc:	03400793          	li	a5,52
  20a4e0:	02f687b3          	mul	a5,a3,a5
  20a4e4:	97ba                	add	a5,a5,a4
  20a4e6:	fe442703          	lw	a4,-28(s0)
  20a4ea:	c7d8                	sw	a4,12(a5)
  20a4ec:	002107b7          	lui	a5,0x210
  20a4f0:	e507b683          	ld	a3,-432(a5) # 20fe50 <reqPoolPtr>
  20a4f4:	fe042783          	lw	a5,-32(s0)
  20a4f8:	03079713          	slli	a4,a5,0x30
  20a4fc:	9341                	srli	a4,a4,0x30
  20a4fe:	fcc46603          	lwu	a2,-52(s0)
  20a502:	03400793          	li	a5,52
  20a506:	02f607b3          	mul	a5,a2,a5
  20a50a:	97b6                	add	a5,a5,a3
  20a50c:	00e79c23          	sh	a4,24(a5)
  20a510:	002107b7          	lui	a5,0x210
  20a514:	e507b683          	ld	a3,-432(a5) # 20fe50 <reqPoolPtr>
  20a518:	fd042783          	lw	a5,-48(s0)
  20a51c:	03079713          	slli	a4,a5,0x30
  20a520:	9341                	srli	a4,a4,0x30
  20a522:	fcc46603          	lwu	a2,-52(s0)
  20a526:	03400793          	li	a5,52
  20a52a:	02f607b3          	mul	a5,a2,a5
  20a52e:	97b6                	add	a5,a5,a3
  20a530:	00e79d23          	sh	a4,26(a5)
  20a534:	002107b7          	lui	a5,0x210
  20a538:	e507b683          	ld	a3,-432(a5) # 20fe50 <reqPoolPtr>
  20a53c:	fec42783          	lw	a5,-20(s0)
  20a540:	03079713          	slli	a4,a5,0x30
  20a544:	9341                	srli	a4,a4,0x30
  20a546:	fcc46603          	lwu	a2,-52(s0)
  20a54a:	03400793          	li	a5,52
  20a54e:	02f607b3          	mul	a5,a2,a5
  20a552:	97b6                	add	a5,a5,a3
  20a554:	00e79e23          	sh	a4,28(a5)
  20a558:	fcc42783          	lw	a5,-52(s0)
  20a55c:	853e                	mv	a0,a5
  20a55e:	f7bf80ef          	jal	ra,2034d8 <PutToSliceReqQ>
  20a562:	fe442783          	lw	a5,-28(s0)
  20a566:	2785                	addiw	a5,a5,1
  20a568:	fef42223          	sw	a5,-28(s0)
  20a56c:	fe842783          	lw	a5,-24(s0)
  20a570:	2785                	addiw	a5,a5,1
  20a572:	fef42423          	sw	a5,-24(s0)
  20a576:	fe042703          	lw	a4,-32(s0)
  20a57a:	fec42783          	lw	a5,-20(s0)
  20a57e:	9fb9                	addw	a5,a5,a4
  20a580:	fef42023          	sw	a5,-32(s0)
  20a584:	fe842703          	lw	a4,-24(s0)
  20a588:	fd442783          	lw	a5,-44(s0)
  20a58c:	2701                	sext.w	a4,a4
  20a58e:	2781                	sext.w	a5,a5
  20a590:	ecf765e3          	bltu	a4,a5,20a45a <ReqTransNvmeToSlice+0x1da>
  20a594:	fc042823          	sw	zero,-48(s0)
  20a598:	fb842703          	lw	a4,-72(s0)
  20a59c:	fd842783          	lw	a5,-40(s0)
  20a5a0:	9fb9                	addw	a5,a5,a4
  20a5a2:	2781                	sext.w	a5,a5
  20a5a4:	8b8d                	andi	a5,a5,3
  20a5a6:	fef42623          	sw	a5,-20(s0)
  20a5aa:	fec42783          	lw	a5,-20(s0)
  20a5ae:	2781                	sext.w	a5,a5
  20a5b0:	10078763          	beqz	a5,20a6be <ReqTransNvmeToSlice+0x43e>
  20a5b4:	fd442783          	lw	a5,-44(s0)
  20a5b8:	2781                	sext.w	a5,a5
  20a5ba:	10078263          	beqz	a5,20a6be <ReqTransNvmeToSlice+0x43e>
  20a5be:	e03f80ef          	jal	ra,2033c0 <GetFromFreeReqQ>
  20a5c2:	87aa                	mv	a5,a0
  20a5c4:	fcf42623          	sw	a5,-52(s0)
  20a5c8:	002107b7          	lui	a5,0x210
  20a5cc:	e507b703          	ld	a4,-432(a5) # 20fe50 <reqPoolPtr>
  20a5d0:	fcc46683          	lwu	a3,-52(s0)
  20a5d4:	03400793          	li	a5,52
  20a5d8:	02f687b3          	mul	a5,a3,a5
  20a5dc:	97ba                	add	a5,a5,a4
  20a5de:	4398                	lw	a4,0(a5)
  20a5e0:	9b41                	andi	a4,a4,-16
  20a5e2:	c398                	sw	a4,0(a5)
  20a5e4:	002107b7          	lui	a5,0x210
  20a5e8:	e507b683          	ld	a3,-432(a5) # 20fe50 <reqPoolPtr>
  20a5ec:	fdc42783          	lw	a5,-36(s0)
  20a5f0:	0ff7f713          	andi	a4,a5,255
  20a5f4:	fcc46603          	lwu	a2,-52(s0)
  20a5f8:	03400793          	li	a5,52
  20a5fc:	02f607b3          	mul	a5,a2,a5
  20a600:	97b6                	add	a5,a5,a3
  20a602:	00e780a3          	sb	a4,1(a5)
  20a606:	002107b7          	lui	a5,0x210
  20a60a:	e507b683          	ld	a3,-432(a5) # 20fe50 <reqPoolPtr>
  20a60e:	fbc42783          	lw	a5,-68(s0)
  20a612:	03079713          	slli	a4,a5,0x30
  20a616:	9341                	srli	a4,a4,0x30
  20a618:	fcc46603          	lwu	a2,-52(s0)
  20a61c:	03400793          	li	a5,52
  20a620:	02f607b3          	mul	a5,a2,a5
  20a624:	97b6                	add	a5,a5,a3
  20a626:	00e79123          	sh	a4,2(a5)
  20a62a:	002107b7          	lui	a5,0x210
  20a62e:	e507b703          	ld	a4,-432(a5) # 20fe50 <reqPoolPtr>
  20a632:	fcc46683          	lwu	a3,-52(s0)
  20a636:	03400793          	li	a5,52
  20a63a:	02f687b3          	mul	a5,a3,a5
  20a63e:	97ba                	add	a5,a5,a4
  20a640:	fe442703          	lw	a4,-28(s0)
  20a644:	c7d8                	sw	a4,12(a5)
  20a646:	002107b7          	lui	a5,0x210
  20a64a:	e507b683          	ld	a3,-432(a5) # 20fe50 <reqPoolPtr>
  20a64e:	fe042783          	lw	a5,-32(s0)
  20a652:	03079713          	slli	a4,a5,0x30
  20a656:	9341                	srli	a4,a4,0x30
  20a658:	fcc46603          	lwu	a2,-52(s0)
  20a65c:	03400793          	li	a5,52
  20a660:	02f607b3          	mul	a5,a2,a5
  20a664:	97b6                	add	a5,a5,a3
  20a666:	00e79c23          	sh	a4,24(a5)
  20a66a:	002107b7          	lui	a5,0x210
  20a66e:	e507b683          	ld	a3,-432(a5) # 20fe50 <reqPoolPtr>
  20a672:	fd042783          	lw	a5,-48(s0)
  20a676:	03079713          	slli	a4,a5,0x30
  20a67a:	9341                	srli	a4,a4,0x30
  20a67c:	fcc46603          	lwu	a2,-52(s0)
  20a680:	03400793          	li	a5,52
  20a684:	02f607b3          	mul	a5,a2,a5
  20a688:	97b6                	add	a5,a5,a3
  20a68a:	00e79d23          	sh	a4,26(a5)
  20a68e:	002107b7          	lui	a5,0x210
  20a692:	e507b683          	ld	a3,-432(a5) # 20fe50 <reqPoolPtr>
  20a696:	fec42783          	lw	a5,-20(s0)
  20a69a:	03079713          	slli	a4,a5,0x30
  20a69e:	9341                	srli	a4,a4,0x30
  20a6a0:	fcc46603          	lwu	a2,-52(s0)
  20a6a4:	03400793          	li	a5,52
  20a6a8:	02f607b3          	mul	a5,a2,a5
  20a6ac:	97b6                	add	a5,a5,a3
  20a6ae:	00e79e23          	sh	a4,28(a5)
  20a6b2:	fcc42783          	lw	a5,-52(s0)
  20a6b6:	853e                	mv	a0,a5
  20a6b8:	e21f80ef          	jal	ra,2034d8 <PutToSliceReqQ>
  20a6bc:	a011                	j	20a6c0 <ReqTransNvmeToSlice+0x440>
  20a6be:	0001                	nop
  20a6c0:	60a6                	ld	ra,72(sp)
  20a6c2:	6406                	ld	s0,64(sp)
  20a6c4:	6161                	addi	sp,sp,80
  20a6c6:	8082                	ret

000000000020a6c8 <EvictDataBufEntry>:
  20a6c8:	7179                	addi	sp,sp,-48
  20a6ca:	f406                	sd	ra,40(sp)
  20a6cc:	f022                	sd	s0,32(sp)
  20a6ce:	1800                	addi	s0,sp,48
  20a6d0:	87aa                	mv	a5,a0
  20a6d2:	fcf42e23          	sw	a5,-36(s0)
  20a6d6:	002107b7          	lui	a5,0x210
  20a6da:	e507b703          	ld	a4,-432(a5) # 20fe50 <reqPoolPtr>
  20a6de:	fdc46683          	lwu	a3,-36(s0)
  20a6e2:	03400793          	li	a5,52
  20a6e6:	02f687b3          	mul	a5,a3,a5
  20a6ea:	97ba                	add	a5,a5,a4
  20a6ec:	4bdc                	lw	a5,20(a5)
  20a6ee:	fef42623          	sw	a5,-20(s0)
  20a6f2:	002107b7          	lui	a5,0x210
  20a6f6:	0707b703          	ld	a4,112(a5) # 210070 <dataBufMapPtr>
  20a6fa:	fec46783          	lwu	a5,-20(s0)
  20a6fe:	0792                	slli	a5,a5,0x4
  20a700:	97ba                	add	a5,a5,a4
  20a702:	47dc                	lw	a5,12(a5)
  20a704:	0107d79b          	srliw	a5,a5,0x10
  20a708:	8b85                	andi	a5,a5,1
  20a70a:	0ff7f793          	andi	a5,a5,255
  20a70e:	873e                	mv	a4,a5
  20a710:	4785                	li	a5,1
  20a712:	1ef71063          	bne	a4,a5,20a8f2 <EvictDataBufEntry+0x22a>
  20a716:	cabf80ef          	jal	ra,2033c0 <GetFromFreeReqQ>
  20a71a:	87aa                	mv	a5,a0
  20a71c:	fef42423          	sw	a5,-24(s0)
  20a720:	002107b7          	lui	a5,0x210
  20a724:	0707b703          	ld	a4,112(a5) # 210070 <dataBufMapPtr>
  20a728:	fec46783          	lwu	a5,-20(s0)
  20a72c:	0792                	slli	a5,a5,0x4
  20a72e:	97ba                	add	a5,a5,a4
  20a730:	439c                	lw	a5,0(a5)
  20a732:	853e                	mv	a0,a5
  20a734:	80bf70ef          	jal	ra,201f3e <AddrTransWrite>
  20a738:	87aa                	mv	a5,a0
  20a73a:	fef42223          	sw	a5,-28(s0)
  20a73e:	002107b7          	lui	a5,0x210
  20a742:	e507b703          	ld	a4,-432(a5) # 20fe50 <reqPoolPtr>
  20a746:	fe846683          	lwu	a3,-24(s0)
  20a74a:	03400793          	li	a5,52
  20a74e:	02f687b3          	mul	a5,a3,a5
  20a752:	97ba                	add	a5,a5,a4
  20a754:	4398                	lw	a4,0(a5)
  20a756:	9b41                	andi	a4,a4,-16
  20a758:	00176713          	ori	a4,a4,1
  20a75c:	c398                	sw	a4,0(a5)
  20a75e:	002107b7          	lui	a5,0x210
  20a762:	e507b703          	ld	a4,-432(a5) # 20fe50 <reqPoolPtr>
  20a766:	fe846683          	lwu	a3,-24(s0)
  20a76a:	03400793          	li	a5,52
  20a76e:	02f687b3          	mul	a5,a3,a5
  20a772:	97ba                	add	a5,a5,a4
  20a774:	000780a3          	sb	zero,1(a5)
  20a778:	002107b7          	lui	a5,0x210
  20a77c:	e507b703          	ld	a4,-432(a5) # 20fe50 <reqPoolPtr>
  20a780:	002107b7          	lui	a5,0x210
  20a784:	e507b683          	ld	a3,-432(a5) # 20fe50 <reqPoolPtr>
  20a788:	fdc46603          	lwu	a2,-36(s0)
  20a78c:	03400793          	li	a5,52
  20a790:	02f607b3          	mul	a5,a2,a5
  20a794:	97ba                	add	a5,a5,a4
  20a796:	0027d703          	lhu	a4,2(a5)
  20a79a:	fe846603          	lwu	a2,-24(s0)
  20a79e:	03400793          	li	a5,52
  20a7a2:	02f607b3          	mul	a5,a2,a5
  20a7a6:	97b6                	add	a5,a5,a3
  20a7a8:	00e79123          	sh	a4,2(a5)
  20a7ac:	002107b7          	lui	a5,0x210
  20a7b0:	0707b703          	ld	a4,112(a5) # 210070 <dataBufMapPtr>
  20a7b4:	002107b7          	lui	a5,0x210
  20a7b8:	e507b683          	ld	a3,-432(a5) # 20fe50 <reqPoolPtr>
  20a7bc:	fec46783          	lwu	a5,-20(s0)
  20a7c0:	0792                	slli	a5,a5,0x4
  20a7c2:	97ba                	add	a5,a5,a4
  20a7c4:	4398                	lw	a4,0(a5)
  20a7c6:	fe846603          	lwu	a2,-24(s0)
  20a7ca:	03400793          	li	a5,52
  20a7ce:	02f607b3          	mul	a5,a2,a5
  20a7d2:	97b6                	add	a5,a5,a3
  20a7d4:	c7d8                	sw	a4,12(a5)
  20a7d6:	002107b7          	lui	a5,0x210
  20a7da:	e507b703          	ld	a4,-432(a5) # 20fe50 <reqPoolPtr>
  20a7de:	fe846683          	lwu	a3,-24(s0)
  20a7e2:	03400793          	li	a5,52
  20a7e6:	02f687b3          	mul	a5,a3,a5
  20a7ea:	97ba                	add	a5,a5,a4
  20a7ec:	4b98                	lw	a4,16(a5)
  20a7ee:	9b71                	andi	a4,a4,-4
  20a7f0:	cb98                	sw	a4,16(a5)
  20a7f2:	002107b7          	lui	a5,0x210
  20a7f6:	e507b703          	ld	a4,-432(a5) # 20fe50 <reqPoolPtr>
  20a7fa:	fe846683          	lwu	a3,-24(s0)
  20a7fe:	03400793          	li	a5,52
  20a802:	02f687b3          	mul	a5,a3,a5
  20a806:	97ba                	add	a5,a5,a4
  20a808:	4b98                	lw	a4,16(a5)
  20a80a:	9b4d                	andi	a4,a4,-13
  20a80c:	cb98                	sw	a4,16(a5)
  20a80e:	002107b7          	lui	a5,0x210
  20a812:	e507b703          	ld	a4,-432(a5) # 20fe50 <reqPoolPtr>
  20a816:	fe846683          	lwu	a3,-24(s0)
  20a81a:	03400793          	li	a5,52
  20a81e:	02f687b3          	mul	a5,a3,a5
  20a822:	97ba                	add	a5,a5,a4
  20a824:	4b98                	lw	a4,16(a5)
  20a826:	01076713          	ori	a4,a4,16
  20a82a:	cb98                	sw	a4,16(a5)
  20a82c:	002107b7          	lui	a5,0x210
  20a830:	e507b703          	ld	a4,-432(a5) # 20fe50 <reqPoolPtr>
  20a834:	fe846683          	lwu	a3,-24(s0)
  20a838:	03400793          	li	a5,52
  20a83c:	02f687b3          	mul	a5,a3,a5
  20a840:	97ba                	add	a5,a5,a4
  20a842:	4b98                	lw	a4,16(a5)
  20a844:	02076713          	ori	a4,a4,32
  20a848:	cb98                	sw	a4,16(a5)
  20a84a:	002107b7          	lui	a5,0x210
  20a84e:	e507b703          	ld	a4,-432(a5) # 20fe50 <reqPoolPtr>
  20a852:	fe846683          	lwu	a3,-24(s0)
  20a856:	03400793          	li	a5,52
  20a85a:	02f687b3          	mul	a5,a3,a5
  20a85e:	97ba                	add	a5,a5,a4
  20a860:	4b98                	lw	a4,16(a5)
  20a862:	04076713          	ori	a4,a4,64
  20a866:	cb98                	sw	a4,16(a5)
  20a868:	002107b7          	lui	a5,0x210
  20a86c:	e507b703          	ld	a4,-432(a5) # 20fe50 <reqPoolPtr>
  20a870:	fe846683          	lwu	a3,-24(s0)
  20a874:	03400793          	li	a5,52
  20a878:	02f687b3          	mul	a5,a3,a5
  20a87c:	97ba                	add	a5,a5,a4
  20a87e:	4b98                	lw	a4,16(a5)
  20a880:	f7f77713          	andi	a4,a4,-129
  20a884:	cb98                	sw	a4,16(a5)
  20a886:	002107b7          	lui	a5,0x210
  20a88a:	e507b703          	ld	a4,-432(a5) # 20fe50 <reqPoolPtr>
  20a88e:	fe846683          	lwu	a3,-24(s0)
  20a892:	03400793          	li	a5,52
  20a896:	02f687b3          	mul	a5,a3,a5
  20a89a:	97ba                	add	a5,a5,a4
  20a89c:	fec42703          	lw	a4,-20(s0)
  20a8a0:	cbd8                	sw	a4,20(a5)
  20a8a2:	fe842703          	lw	a4,-24(s0)
  20a8a6:	fec42783          	lw	a5,-20(s0)
  20a8aa:	85ba                	mv	a1,a4
  20a8ac:	853e                	mv	a0,a5
  20a8ae:	d92fa0ef          	jal	ra,204e40 <UpdateDataBufEntryInfoBlockingReq>
  20a8b2:	002107b7          	lui	a5,0x210
  20a8b6:	e507b703          	ld	a4,-432(a5) # 20fe50 <reqPoolPtr>
  20a8ba:	fe846683          	lwu	a3,-24(s0)
  20a8be:	03400793          	li	a5,52
  20a8c2:	02f687b3          	mul	a5,a3,a5
  20a8c6:	97ba                	add	a5,a5,a4
  20a8c8:	fe442703          	lw	a4,-28(s0)
  20a8cc:	d3d8                	sw	a4,36(a5)
  20a8ce:	fe842783          	lw	a5,-24(s0)
  20a8d2:	853e                	mv	a0,a5
  20a8d4:	453000ef          	jal	ra,20b526 <SelectLowLevelReqQ>
  20a8d8:	002107b7          	lui	a5,0x210
  20a8dc:	0707b703          	ld	a4,112(a5) # 210070 <dataBufMapPtr>
  20a8e0:	fec46783          	lwu	a5,-20(s0)
  20a8e4:	0792                	slli	a5,a5,0x4
  20a8e6:	97ba                	add	a5,a5,a4
  20a8e8:	47d4                	lw	a3,12(a5)
  20a8ea:	7741                	lui	a4,0xffff0
  20a8ec:	177d                	addi	a4,a4,-1
  20a8ee:	8f75                	and	a4,a4,a3
  20a8f0:	c7d8                	sw	a4,12(a5)
  20a8f2:	0001                	nop
  20a8f4:	70a2                	ld	ra,40(sp)
  20a8f6:	7402                	ld	s0,32(sp)
  20a8f8:	6145                	addi	sp,sp,48
  20a8fa:	8082                	ret

000000000020a8fc <DataReadFromNand>:
  20a8fc:	7179                	addi	sp,sp,-48
  20a8fe:	f406                	sd	ra,40(sp)
  20a900:	f022                	sd	s0,32(sp)
  20a902:	1800                	addi	s0,sp,48
  20a904:	87aa                	mv	a5,a0
  20a906:	fcf42e23          	sw	a5,-36(s0)
  20a90a:	002107b7          	lui	a5,0x210
  20a90e:	e507b703          	ld	a4,-432(a5) # 20fe50 <reqPoolPtr>
  20a912:	fdc46683          	lwu	a3,-36(s0)
  20a916:	03400793          	li	a5,52
  20a91a:	02f687b3          	mul	a5,a3,a5
  20a91e:	97ba                	add	a5,a5,a4
  20a920:	47dc                	lw	a5,12(a5)
  20a922:	853e                	mv	a0,a5
  20a924:	db8f70ef          	jal	ra,201edc <AddrTransRead>
  20a928:	87aa                	mv	a5,a0
  20a92a:	fef42623          	sw	a5,-20(s0)
  20a92e:	fec42783          	lw	a5,-20(s0)
  20a932:	0007871b          	sext.w	a4,a5
  20a936:	57fd                	li	a5,-1
  20a938:	1cf70c63          	beq	a4,a5,20ab10 <DataReadFromNand+0x214>
  20a93c:	a85f80ef          	jal	ra,2033c0 <GetFromFreeReqQ>
  20a940:	87aa                	mv	a5,a0
  20a942:	fef42423          	sw	a5,-24(s0)
  20a946:	002107b7          	lui	a5,0x210
  20a94a:	e507b703          	ld	a4,-432(a5) # 20fe50 <reqPoolPtr>
  20a94e:	fe846683          	lwu	a3,-24(s0)
  20a952:	03400793          	li	a5,52
  20a956:	02f687b3          	mul	a5,a3,a5
  20a95a:	97ba                	add	a5,a5,a4
  20a95c:	4398                	lw	a4,0(a5)
  20a95e:	9b41                	andi	a4,a4,-16
  20a960:	00176713          	ori	a4,a4,1
  20a964:	c398                	sw	a4,0(a5)
  20a966:	002107b7          	lui	a5,0x210
  20a96a:	e507b703          	ld	a4,-432(a5) # 20fe50 <reqPoolPtr>
  20a96e:	fe846683          	lwu	a3,-24(s0)
  20a972:	03400793          	li	a5,52
  20a976:	02f687b3          	mul	a5,a3,a5
  20a97a:	97ba                	add	a5,a5,a4
  20a97c:	4721                	li	a4,8
  20a97e:	00e780a3          	sb	a4,1(a5)
  20a982:	002107b7          	lui	a5,0x210
  20a986:	e507b703          	ld	a4,-432(a5) # 20fe50 <reqPoolPtr>
  20a98a:	002107b7          	lui	a5,0x210
  20a98e:	e507b683          	ld	a3,-432(a5) # 20fe50 <reqPoolPtr>
  20a992:	fdc46603          	lwu	a2,-36(s0)
  20a996:	03400793          	li	a5,52
  20a99a:	02f607b3          	mul	a5,a2,a5
  20a99e:	97ba                	add	a5,a5,a4
  20a9a0:	0027d703          	lhu	a4,2(a5)
  20a9a4:	fe846603          	lwu	a2,-24(s0)
  20a9a8:	03400793          	li	a5,52
  20a9ac:	02f607b3          	mul	a5,a2,a5
  20a9b0:	97b6                	add	a5,a5,a3
  20a9b2:	00e79123          	sh	a4,2(a5)
  20a9b6:	002107b7          	lui	a5,0x210
  20a9ba:	e507b703          	ld	a4,-432(a5) # 20fe50 <reqPoolPtr>
  20a9be:	002107b7          	lui	a5,0x210
  20a9c2:	e507b683          	ld	a3,-432(a5) # 20fe50 <reqPoolPtr>
  20a9c6:	fdc46603          	lwu	a2,-36(s0)
  20a9ca:	03400793          	li	a5,52
  20a9ce:	02f607b3          	mul	a5,a2,a5
  20a9d2:	97ba                	add	a5,a5,a4
  20a9d4:	47d8                	lw	a4,12(a5)
  20a9d6:	fe846603          	lwu	a2,-24(s0)
  20a9da:	03400793          	li	a5,52
  20a9de:	02f607b3          	mul	a5,a2,a5
  20a9e2:	97b6                	add	a5,a5,a3
  20a9e4:	c7d8                	sw	a4,12(a5)
  20a9e6:	002107b7          	lui	a5,0x210
  20a9ea:	e507b703          	ld	a4,-432(a5) # 20fe50 <reqPoolPtr>
  20a9ee:	fe846683          	lwu	a3,-24(s0)
  20a9f2:	03400793          	li	a5,52
  20a9f6:	02f687b3          	mul	a5,a3,a5
  20a9fa:	97ba                	add	a5,a5,a4
  20a9fc:	4b98                	lw	a4,16(a5)
  20a9fe:	9b71                	andi	a4,a4,-4
  20aa00:	cb98                	sw	a4,16(a5)
  20aa02:	002107b7          	lui	a5,0x210
  20aa06:	e507b703          	ld	a4,-432(a5) # 20fe50 <reqPoolPtr>
  20aa0a:	fe846683          	lwu	a3,-24(s0)
  20aa0e:	03400793          	li	a5,52
  20aa12:	02f687b3          	mul	a5,a3,a5
  20aa16:	97ba                	add	a5,a5,a4
  20aa18:	4b98                	lw	a4,16(a5)
  20aa1a:	9b4d                	andi	a4,a4,-13
  20aa1c:	cb98                	sw	a4,16(a5)
  20aa1e:	002107b7          	lui	a5,0x210
  20aa22:	e507b703          	ld	a4,-432(a5) # 20fe50 <reqPoolPtr>
  20aa26:	fe846683          	lwu	a3,-24(s0)
  20aa2a:	03400793          	li	a5,52
  20aa2e:	02f687b3          	mul	a5,a3,a5
  20aa32:	97ba                	add	a5,a5,a4
  20aa34:	4b98                	lw	a4,16(a5)
  20aa36:	01076713          	ori	a4,a4,16
  20aa3a:	cb98                	sw	a4,16(a5)
  20aa3c:	002107b7          	lui	a5,0x210
  20aa40:	e507b703          	ld	a4,-432(a5) # 20fe50 <reqPoolPtr>
  20aa44:	fe846683          	lwu	a3,-24(s0)
  20aa48:	03400793          	li	a5,52
  20aa4c:	02f687b3          	mul	a5,a3,a5
  20aa50:	97ba                	add	a5,a5,a4
  20aa52:	4b98                	lw	a4,16(a5)
  20aa54:	02076713          	ori	a4,a4,32
  20aa58:	cb98                	sw	a4,16(a5)
  20aa5a:	002107b7          	lui	a5,0x210
  20aa5e:	e507b703          	ld	a4,-432(a5) # 20fe50 <reqPoolPtr>
  20aa62:	fe846683          	lwu	a3,-24(s0)
  20aa66:	03400793          	li	a5,52
  20aa6a:	02f687b3          	mul	a5,a3,a5
  20aa6e:	97ba                	add	a5,a5,a4
  20aa70:	4b98                	lw	a4,16(a5)
  20aa72:	04076713          	ori	a4,a4,64
  20aa76:	cb98                	sw	a4,16(a5)
  20aa78:	002107b7          	lui	a5,0x210
  20aa7c:	e507b703          	ld	a4,-432(a5) # 20fe50 <reqPoolPtr>
  20aa80:	fe846683          	lwu	a3,-24(s0)
  20aa84:	03400793          	li	a5,52
  20aa88:	02f687b3          	mul	a5,a3,a5
  20aa8c:	97ba                	add	a5,a5,a4
  20aa8e:	4b98                	lw	a4,16(a5)
  20aa90:	f7f77713          	andi	a4,a4,-129
  20aa94:	cb98                	sw	a4,16(a5)
  20aa96:	002107b7          	lui	a5,0x210
  20aa9a:	e507b703          	ld	a4,-432(a5) # 20fe50 <reqPoolPtr>
  20aa9e:	002107b7          	lui	a5,0x210
  20aaa2:	e507b683          	ld	a3,-432(a5) # 20fe50 <reqPoolPtr>
  20aaa6:	fdc46603          	lwu	a2,-36(s0)
  20aaaa:	03400793          	li	a5,52
  20aaae:	02f607b3          	mul	a5,a2,a5
  20aab2:	97ba                	add	a5,a5,a4
  20aab4:	4bd8                	lw	a4,20(a5)
  20aab6:	fe846603          	lwu	a2,-24(s0)
  20aaba:	03400793          	li	a5,52
  20aabe:	02f607b3          	mul	a5,a2,a5
  20aac2:	97b6                	add	a5,a5,a3
  20aac4:	cbd8                	sw	a4,20(a5)
  20aac6:	002107b7          	lui	a5,0x210
  20aaca:	e507b703          	ld	a4,-432(a5) # 20fe50 <reqPoolPtr>
  20aace:	fe846683          	lwu	a3,-24(s0)
  20aad2:	03400793          	li	a5,52
  20aad6:	02f687b3          	mul	a5,a3,a5
  20aada:	97ba                	add	a5,a5,a4
  20aadc:	4bdc                	lw	a5,20(a5)
  20aade:	fe842703          	lw	a4,-24(s0)
  20aae2:	85ba                	mv	a1,a4
  20aae4:	853e                	mv	a0,a5
  20aae6:	b5afa0ef          	jal	ra,204e40 <UpdateDataBufEntryInfoBlockingReq>
  20aaea:	002107b7          	lui	a5,0x210
  20aaee:	e507b703          	ld	a4,-432(a5) # 20fe50 <reqPoolPtr>
  20aaf2:	fe846683          	lwu	a3,-24(s0)
  20aaf6:	03400793          	li	a5,52
  20aafa:	02f687b3          	mul	a5,a3,a5
  20aafe:	97ba                	add	a5,a5,a4
  20ab00:	fec42703          	lw	a4,-20(s0)
  20ab04:	d3d8                	sw	a4,36(a5)
  20ab06:	fe842783          	lw	a5,-24(s0)
  20ab0a:	853e                	mv	a0,a5
  20ab0c:	21b000ef          	jal	ra,20b526 <SelectLowLevelReqQ>
  20ab10:	0001                	nop
  20ab12:	70a2                	ld	ra,40(sp)
  20ab14:	7402                	ld	s0,32(sp)
  20ab16:	6145                	addi	sp,sp,48
  20ab18:	8082                	ret

000000000020ab1a <ReqTransSliceToLowLevel>:
  20ab1a:	7179                	addi	sp,sp,-48
  20ab1c:	f406                	sd	ra,40(sp)
  20ab1e:	f022                	sd	s0,32(sp)
  20ab20:	1800                	addi	s0,sp,48
  20ab22:	fca43c23          	sd	a0,-40(s0)
  20ab26:	a435                	j	20ad52 <ReqTransSliceToLowLevel+0x238>
  20ab28:	b09f80ef          	jal	ra,203630 <GetFromSliceReqQ>
  20ab2c:	87aa                	mv	a5,a0
  20ab2e:	fef42423          	sw	a5,-24(s0)
  20ab32:	fe842783          	lw	a5,-24(s0)
  20ab36:	0007871b          	sext.w	a4,a5
  20ab3a:	67c1                	lui	a5,0x10
  20ab3c:	17fd                	addi	a5,a5,-1
  20ab3e:	22f70563          	beq	a4,a5,20ad68 <ReqTransSliceToLowLevel+0x24e>
  20ab42:	fe842783          	lw	a5,-24(s0)
  20ab46:	853e                	mv	a0,a5
  20ab48:	e31f90ef          	jal	ra,204978 <CheckDataBufHit>
  20ab4c:	87aa                	mv	a5,a0
  20ab4e:	fef42623          	sw	a5,-20(s0)
  20ab52:	fec42783          	lw	a5,-20(s0)
  20ab56:	0007871b          	sext.w	a4,a5
  20ab5a:	67c1                	lui	a5,0x10
  20ab5c:	17fd                	addi	a5,a5,-1
  20ab5e:	02f70163          	beq	a4,a5,20ab80 <ReqTransSliceToLowLevel+0x66>
  20ab62:	002107b7          	lui	a5,0x210
  20ab66:	e507b703          	ld	a4,-432(a5) # 20fe50 <reqPoolPtr>
  20ab6a:	fe846683          	lwu	a3,-24(s0)
  20ab6e:	03400793          	li	a5,52
  20ab72:	02f687b3          	mul	a5,a3,a5
  20ab76:	97ba                	add	a5,a5,a4
  20ab78:	fec42703          	lw	a4,-20(s0)
  20ab7c:	cbd8                	sw	a4,20(a5)
  20ab7e:	a8f9                	j	20ac5c <ReqTransSliceToLowLevel+0x142>
  20ab80:	950fa0ef          	jal	ra,204cd0 <AllocateDataBuf>
  20ab84:	87aa                	mv	a5,a0
  20ab86:	fef42623          	sw	a5,-20(s0)
  20ab8a:	002107b7          	lui	a5,0x210
  20ab8e:	e507b703          	ld	a4,-432(a5) # 20fe50 <reqPoolPtr>
  20ab92:	fe846683          	lwu	a3,-24(s0)
  20ab96:	03400793          	li	a5,52
  20ab9a:	02f687b3          	mul	a5,a3,a5
  20ab9e:	97ba                	add	a5,a5,a4
  20aba0:	fec42703          	lw	a4,-20(s0)
  20aba4:	cbd8                	sw	a4,20(a5)
  20aba6:	fe842783          	lw	a5,-24(s0)
  20abaa:	853e                	mv	a0,a5
  20abac:	b1dff0ef          	jal	ra,20a6c8 <EvictDataBufEntry>
  20abb0:	002107b7          	lui	a5,0x210
  20abb4:	e507b703          	ld	a4,-432(a5) # 20fe50 <reqPoolPtr>
  20abb8:	002107b7          	lui	a5,0x210
  20abbc:	0707b683          	ld	a3,112(a5) # 210070 <dataBufMapPtr>
  20abc0:	fe846603          	lwu	a2,-24(s0)
  20abc4:	03400793          	li	a5,52
  20abc8:	02f607b3          	mul	a5,a2,a5
  20abcc:	97ba                	add	a5,a5,a4
  20abce:	47d8                	lw	a4,12(a5)
  20abd0:	fec46783          	lwu	a5,-20(s0)
  20abd4:	0792                	slli	a5,a5,0x4
  20abd6:	97b6                	add	a5,a5,a3
  20abd8:	c398                	sw	a4,0(a5)
  20abda:	fec42783          	lw	a5,-20(s0)
  20abde:	853e                	mv	a0,a5
  20abe0:	c04fa0ef          	jal	ra,204fe4 <PutToDataBufHashList>
  20abe4:	002107b7          	lui	a5,0x210
  20abe8:	e507b703          	ld	a4,-432(a5) # 20fe50 <reqPoolPtr>
  20abec:	fe846683          	lwu	a3,-24(s0)
  20abf0:	03400793          	li	a5,52
  20abf4:	02f687b3          	mul	a5,a3,a5
  20abf8:	97ba                	add	a5,a5,a4
  20abfa:	0017c783          	lbu	a5,1(a5)
  20abfe:	873e                	mv	a4,a5
  20ac00:	47a1                	li	a5,8
  20ac02:	00f71863          	bne	a4,a5,20ac12 <ReqTransSliceToLowLevel+0xf8>
  20ac06:	fe842783          	lw	a5,-24(s0)
  20ac0a:	853e                	mv	a0,a5
  20ac0c:	cf1ff0ef          	jal	ra,20a8fc <DataReadFromNand>
  20ac10:	a0b1                	j	20ac5c <ReqTransSliceToLowLevel+0x142>
  20ac12:	002107b7          	lui	a5,0x210
  20ac16:	e507b703          	ld	a4,-432(a5) # 20fe50 <reqPoolPtr>
  20ac1a:	fe846683          	lwu	a3,-24(s0)
  20ac1e:	03400793          	li	a5,52
  20ac22:	02f687b3          	mul	a5,a3,a5
  20ac26:	97ba                	add	a5,a5,a4
  20ac28:	0017c783          	lbu	a5,1(a5)
  20ac2c:	eb85                	bnez	a5,20ac5c <ReqTransSliceToLowLevel+0x142>
  20ac2e:	002107b7          	lui	a5,0x210
  20ac32:	e507b703          	ld	a4,-432(a5) # 20fe50 <reqPoolPtr>
  20ac36:	fe846683          	lwu	a3,-24(s0)
  20ac3a:	03400793          	li	a5,52
  20ac3e:	02f687b3          	mul	a5,a3,a5
  20ac42:	97ba                	add	a5,a5,a4
  20ac44:	01c7d783          	lhu	a5,28(a5)
  20ac48:	0007871b          	sext.w	a4,a5
  20ac4c:	4791                	li	a5,4
  20ac4e:	00f70763          	beq	a4,a5,20ac5c <ReqTransSliceToLowLevel+0x142>
  20ac52:	fe842783          	lw	a5,-24(s0)
  20ac56:	853e                	mv	a0,a5
  20ac58:	ca5ff0ef          	jal	ra,20a8fc <DataReadFromNand>
  20ac5c:	002107b7          	lui	a5,0x210
  20ac60:	e507b703          	ld	a4,-432(a5) # 20fe50 <reqPoolPtr>
  20ac64:	fe846683          	lwu	a3,-24(s0)
  20ac68:	03400793          	li	a5,52
  20ac6c:	02f687b3          	mul	a5,a3,a5
  20ac70:	97ba                	add	a5,a5,a4
  20ac72:	0017c783          	lbu	a5,1(a5)
  20ac76:	ef85                	bnez	a5,20acae <ReqTransSliceToLowLevel+0x194>
  20ac78:	002107b7          	lui	a5,0x210
  20ac7c:	0707b703          	ld	a4,112(a5) # 210070 <dataBufMapPtr>
  20ac80:	fec46783          	lwu	a5,-20(s0)
  20ac84:	0792                	slli	a5,a5,0x4
  20ac86:	97ba                	add	a5,a5,a4
  20ac88:	47d4                	lw	a3,12(a5)
  20ac8a:	6741                	lui	a4,0x10
  20ac8c:	8f55                	or	a4,a4,a3
  20ac8e:	c7d8                	sw	a4,12(a5)
  20ac90:	002107b7          	lui	a5,0x210
  20ac94:	e507b703          	ld	a4,-432(a5) # 20fe50 <reqPoolPtr>
  20ac98:	fe846683          	lwu	a3,-24(s0)
  20ac9c:	03400793          	li	a5,52
  20aca0:	02f687b3          	mul	a5,a3,a5
  20aca4:	97ba                	add	a5,a5,a4
  20aca6:	4741                	li	a4,16
  20aca8:	00e780a3          	sb	a4,1(a5)
  20acac:	a881                	j	20acfc <ReqTransSliceToLowLevel+0x1e2>
  20acae:	002107b7          	lui	a5,0x210
  20acb2:	e507b703          	ld	a4,-432(a5) # 20fe50 <reqPoolPtr>
  20acb6:	fe846683          	lwu	a3,-24(s0)
  20acba:	03400793          	li	a5,52
  20acbe:	02f687b3          	mul	a5,a3,a5
  20acc2:	97ba                	add	a5,a5,a4
  20acc4:	0017c783          	lbu	a5,1(a5)
  20acc8:	873e                	mv	a4,a5
  20acca:	47a1                	li	a5,8
  20accc:	02f71263          	bne	a4,a5,20acf0 <ReqTransSliceToLowLevel+0x1d6>
  20acd0:	002107b7          	lui	a5,0x210
  20acd4:	e507b703          	ld	a4,-432(a5) # 20fe50 <reqPoolPtr>
  20acd8:	fe846683          	lwu	a3,-24(s0)
  20acdc:	03400793          	li	a5,52
  20ace0:	02f687b3          	mul	a5,a3,a5
  20ace4:	97ba                	add	a5,a5,a4
  20ace6:	02000713          	li	a4,32
  20acea:	00e780a3          	sb	a4,1(a5)
  20acee:	a039                	j	20acfc <ReqTransSliceToLowLevel+0x1e2>
  20acf0:	0020f7b7          	lui	a5,0x20f
  20acf4:	49078513          	addi	a0,a5,1168 # 20f490 <nvme_main+0xb18>
  20acf8:	921f90ef          	jal	ra,204618 <cpl_print>
  20acfc:	002107b7          	lui	a5,0x210
  20ad00:	e507b703          	ld	a4,-432(a5) # 20fe50 <reqPoolPtr>
  20ad04:	fe846683          	lwu	a3,-24(s0)
  20ad08:	03400793          	li	a5,52
  20ad0c:	02f687b3          	mul	a5,a3,a5
  20ad10:	97ba                	add	a5,a5,a4
  20ad12:	4398                	lw	a4,0(a5)
  20ad14:	9b41                	andi	a4,a4,-16
  20ad16:	00276713          	ori	a4,a4,2
  20ad1a:	c398                	sw	a4,0(a5)
  20ad1c:	002107b7          	lui	a5,0x210
  20ad20:	e507b703          	ld	a4,-432(a5) # 20fe50 <reqPoolPtr>
  20ad24:	fe846683          	lwu	a3,-24(s0)
  20ad28:	03400793          	li	a5,52
  20ad2c:	02f687b3          	mul	a5,a3,a5
  20ad30:	97ba                	add	a5,a5,a4
  20ad32:	4b98                	lw	a4,16(a5)
  20ad34:	9b71                	andi	a4,a4,-4
  20ad36:	cb98                	sw	a4,16(a5)
  20ad38:	fe842703          	lw	a4,-24(s0)
  20ad3c:	fec42783          	lw	a5,-20(s0)
  20ad40:	85ba                	mv	a1,a4
  20ad42:	853e                	mv	a0,a5
  20ad44:	8fcfa0ef          	jal	ra,204e40 <UpdateDataBufEntryInfoBlockingReq>
  20ad48:	fe842783          	lw	a5,-24(s0)
  20ad4c:	853e                	mv	a0,a5
  20ad4e:	7d8000ef          	jal	ra,20b526 <SelectLowLevelReqQ>
  20ad52:	002107b7          	lui	a5,0x210
  20ad56:	c407d783          	lhu	a5,-960(a5) # 20fc40 <sliceReqQ>
  20ad5a:	0007871b          	sext.w	a4,a5
  20ad5e:	67c1                	lui	a5,0x10
  20ad60:	17fd                	addi	a5,a5,-1
  20ad62:	dcf713e3          	bne	a4,a5,20ab28 <ReqTransSliceToLowLevel+0xe>
  20ad66:	a011                	j	20ad6a <ReqTransSliceToLowLevel+0x250>
  20ad68:	0001                	nop
  20ad6a:	70a2                	ld	ra,40(sp)
  20ad6c:	7402                	ld	s0,32(sp)
  20ad6e:	6145                	addi	sp,sp,48
  20ad70:	8082                	ret

000000000020ad72 <CheckBufDep>:
  20ad72:	1101                	addi	sp,sp,-32
  20ad74:	ec22                	sd	s0,24(sp)
  20ad76:	1000                	addi	s0,sp,32
  20ad78:	87aa                	mv	a5,a0
  20ad7a:	fef42623          	sw	a5,-20(s0)
  20ad7e:	002107b7          	lui	a5,0x210
  20ad82:	e507b703          	ld	a4,-432(a5) # 20fe50 <reqPoolPtr>
  20ad86:	fec46683          	lwu	a3,-20(s0)
  20ad8a:	03400793          	li	a5,52
  20ad8e:	02f687b3          	mul	a5,a3,a5
  20ad92:	97ba                	add	a5,a5,a4
  20ad94:	0307d783          	lhu	a5,48(a5)
  20ad98:	0007871b          	sext.w	a4,a5
  20ad9c:	67c1                	lui	a5,0x10
  20ad9e:	17fd                	addi	a5,a5,-1
  20ada0:	00f71463          	bne	a4,a5,20ada8 <CheckBufDep+0x36>
  20ada4:	4785                	li	a5,1
  20ada6:	a011                	j	20adaa <CheckBufDep+0x38>
  20ada8:	4781                	li	a5,0
  20adaa:	853e                	mv	a0,a5
  20adac:	6462                	ld	s0,24(sp)
  20adae:	6105                	addi	sp,sp,32
  20adb0:	8082                	ret

000000000020adb2 <CheckRowAddrDep>:
  20adb2:	7139                	addi	sp,sp,-64
  20adb4:	fc06                	sd	ra,56(sp)
  20adb6:	f822                	sd	s0,48(sp)
  20adb8:	0080                	addi	s0,sp,64
  20adba:	87aa                	mv	a5,a0
  20adbc:	872e                	mv	a4,a1
  20adbe:	fcf42623          	sw	a5,-52(s0)
  20adc2:	87ba                	mv	a5,a4
  20adc4:	fcf42423          	sw	a5,-56(s0)
  20adc8:	002107b7          	lui	a5,0x210
  20adcc:	e507b703          	ld	a4,-432(a5) # 20fe50 <reqPoolPtr>
  20add0:	fcc46683          	lwu	a3,-52(s0)
  20add4:	03400793          	li	a5,52
  20add8:	02f687b3          	mul	a5,a3,a5
  20addc:	97ba                	add	a5,a5,a4
  20adde:	4b9c                	lw	a5,16(a5)
  20ade0:	0027d79b          	srliw	a5,a5,0x2
  20ade4:	8b8d                	andi	a5,a5,3
  20ade6:	0ff7f793          	andi	a5,a5,255
  20adea:	e3c1                	bnez	a5,20ae6a <CheckRowAddrDep+0xb8>
  20adec:	002107b7          	lui	a5,0x210
  20adf0:	e507b703          	ld	a4,-432(a5) # 20fe50 <reqPoolPtr>
  20adf4:	fcc46683          	lwu	a3,-52(s0)
  20adf8:	03400793          	li	a5,52
  20adfc:	02f687b3          	mul	a5,a3,a5
  20ae00:	97ba                	add	a5,a5,a4
  20ae02:	53dc                	lw	a5,36(a5)
  20ae04:	03f7f793          	andi	a5,a5,63
  20ae08:	fcf42e23          	sw	a5,-36(s0)
  20ae0c:	fdc42783          	lw	a5,-36(s0)
  20ae10:	8b9d                	andi	a5,a5,7
  20ae12:	fef42623          	sw	a5,-20(s0)
  20ae16:	fdc42783          	lw	a5,-36(s0)
  20ae1a:	0037d79b          	srliw	a5,a5,0x3
  20ae1e:	fef42423          	sw	a5,-24(s0)
  20ae22:	002107b7          	lui	a5,0x210
  20ae26:	e507b703          	ld	a4,-432(a5) # 20fe50 <reqPoolPtr>
  20ae2a:	fcc46683          	lwu	a3,-52(s0)
  20ae2e:	03400793          	li	a5,52
  20ae32:	02f687b3          	mul	a5,a3,a5
  20ae36:	97ba                	add	a5,a5,a4
  20ae38:	53dc                	lw	a5,36(a5)
  20ae3a:	00d7d79b          	srliw	a5,a5,0xd
  20ae3e:	fef42223          	sw	a5,-28(s0)
  20ae42:	002107b7          	lui	a5,0x210
  20ae46:	e507b703          	ld	a4,-432(a5) # 20fe50 <reqPoolPtr>
  20ae4a:	fcc46683          	lwu	a3,-52(s0)
  20ae4e:	03400793          	li	a5,52
  20ae52:	02f687b3          	mul	a5,a3,a5
  20ae56:	97ba                	add	a5,a5,a4
  20ae58:	53dc                	lw	a5,36(a5)
  20ae5a:	0067d79b          	srliw	a5,a5,0x6
  20ae5e:	2781                	sext.w	a5,a5
  20ae60:	07f7f793          	andi	a5,a5,127
  20ae64:	fef42023          	sw	a5,-32(s0)
  20ae68:	a039                	j	20ae76 <CheckRowAddrDep+0xc4>
  20ae6a:	0020f7b7          	lui	a5,0x20f
  20ae6e:	4c078513          	addi	a0,a5,1216 # 20f4c0 <nvme_main+0xb48>
  20ae72:	fa6f90ef          	jal	ra,204618 <cpl_print>
  20ae76:	002107b7          	lui	a5,0x210
  20ae7a:	e507b703          	ld	a4,-432(a5) # 20fe50 <reqPoolPtr>
  20ae7e:	fcc46683          	lwu	a3,-52(s0)
  20ae82:	03400793          	li	a5,52
  20ae86:	02f687b3          	mul	a5,a3,a5
  20ae8a:	97ba                	add	a5,a5,a4
  20ae8c:	0017c783          	lbu	a5,1(a5)
  20ae90:	873e                	mv	a4,a5
  20ae92:	47a1                	li	a5,8
  20ae94:	1af71363          	bne	a4,a5,20b03a <CheckRowAddrDep+0x288>
  20ae98:	fc842783          	lw	a5,-56(s0)
  20ae9c:	2781                	sext.w	a5,a5
  20ae9e:	e3f5                	bnez	a5,20af82 <CheckRowAddrDep+0x1d0>
  20aea0:	002107b7          	lui	a5,0x210
  20aea4:	1087b703          	ld	a4,264(a5) # 210108 <rowAddrDependencyTablePtr>
  20aea8:	fe446783          	lwu	a5,-28(s0)
  20aeac:	fec46603          	lwu	a2,-20(s0)
  20aeb0:	fe846683          	lwu	a3,-24(s0)
  20aeb4:	060e                	slli	a2,a2,0x3
  20aeb6:	96b2                	add	a3,a3,a2
  20aeb8:	06b6                	slli	a3,a3,0xd
  20aeba:	97b6                	add	a5,a5,a3
  20aebc:	078a                	slli	a5,a5,0x2
  20aebe:	97ba                	add	a5,a5,a4
  20aec0:	439c                	lw	a5,0(a5)
  20aec2:	01c7d79b          	srliw	a5,a5,0x1c
  20aec6:	8b85                	andi	a5,a5,1
  20aec8:	0ff7f793          	andi	a5,a5,255
  20aecc:	cf81                	beqz	a5,20aee4 <CheckRowAddrDep+0x132>
  20aece:	fe442683          	lw	a3,-28(s0)
  20aed2:	fe842703          	lw	a4,-24(s0)
  20aed6:	fec42783          	lw	a5,-20(s0)
  20aeda:	8636                	mv	a2,a3
  20aedc:	85ba                	mv	a1,a4
  20aede:	853e                	mv	a0,a5
  20aee0:	fc8fa0ef          	jal	ra,2056a8 <SyncReleaseEraseReq>
  20aee4:	002107b7          	lui	a5,0x210
  20aee8:	1087b703          	ld	a4,264(a5) # 210108 <rowAddrDependencyTablePtr>
  20aeec:	fe446783          	lwu	a5,-28(s0)
  20aef0:	fec46603          	lwu	a2,-20(s0)
  20aef4:	fe846683          	lwu	a3,-24(s0)
  20aef8:	060e                	slli	a2,a2,0x3
  20aefa:	96b2                	add	a3,a3,a2
  20aefc:	06b6                	slli	a3,a3,0xd
  20aefe:	97b6                	add	a5,a5,a3
  20af00:	078a                	slli	a5,a5,0x2
  20af02:	97ba                	add	a5,a5,a4
  20af04:	439c                	lw	a5,0(a5)
  20af06:	873e                	mv	a4,a5
  20af08:	6785                	lui	a5,0x1
  20af0a:	17fd                	addi	a5,a5,-1
  20af0c:	8ff9                	and	a5,a5,a4
  20af0e:	17c2                	slli	a5,a5,0x30
  20af10:	93c1                	srli	a5,a5,0x30
  20af12:	0007871b          	sext.w	a4,a5
  20af16:	fe042783          	lw	a5,-32(s0)
  20af1a:	2781                	sext.w	a5,a5
  20af1c:	00e7f463          	bgeu	a5,a4,20af24 <CheckRowAddrDep+0x172>
  20af20:	4785                	li	a5,1
  20af22:	ae25                	j	20b25a <CheckRowAddrDep+0x4a8>
  20af24:	002107b7          	lui	a5,0x210
  20af28:	1087b783          	ld	a5,264(a5) # 210108 <rowAddrDependencyTablePtr>
  20af2c:	fe446703          	lwu	a4,-28(s0)
  20af30:	fec46603          	lwu	a2,-20(s0)
  20af34:	fe846683          	lwu	a3,-24(s0)
  20af38:	060e                	slli	a2,a2,0x3
  20af3a:	96b2                	add	a3,a3,a2
  20af3c:	06b6                	slli	a3,a3,0xd
  20af3e:	9736                	add	a4,a4,a3
  20af40:	070a                	slli	a4,a4,0x2
  20af42:	973e                	add	a4,a4,a5
  20af44:	4318                	lw	a4,0(a4)
  20af46:	00c7571b          	srliw	a4,a4,0xc
  20af4a:	9b7d                	andi	a4,a4,-1
  20af4c:	1742                	slli	a4,a4,0x30
  20af4e:	9341                	srli	a4,a4,0x30
  20af50:	2705                	addiw	a4,a4,1
  20af52:	1742                	slli	a4,a4,0x30
  20af54:	9341                	srli	a4,a4,0x30
  20af56:	fe446683          	lwu	a3,-28(s0)
  20af5a:	fec46583          	lwu	a1,-20(s0)
  20af5e:	fe846603          	lwu	a2,-24(s0)
  20af62:	058e                	slli	a1,a1,0x3
  20af64:	962e                	add	a2,a2,a1
  20af66:	0636                	slli	a2,a2,0xd
  20af68:	96b2                	add	a3,a3,a2
  20af6a:	068a                	slli	a3,a3,0x2
  20af6c:	97b6                	add	a5,a5,a3
  20af6e:	00c7171b          	slliw	a4,a4,0xc
  20af72:	4390                	lw	a2,0(a5)
  20af74:	f00016b7          	lui	a3,0xf0001
  20af78:	16fd                	addi	a3,a3,-1
  20af7a:	8ef1                	and	a3,a3,a2
  20af7c:	8f55                	or	a4,a4,a3
  20af7e:	c398                	sw	a4,0(a5)
  20af80:	ace1                	j	20b258 <CheckRowAddrDep+0x4a6>
  20af82:	fc842783          	lw	a5,-56(s0)
  20af86:	0007871b          	sext.w	a4,a5
  20af8a:	4785                	li	a5,1
  20af8c:	0af71063          	bne	a4,a5,20b02c <CheckRowAddrDep+0x27a>
  20af90:	002107b7          	lui	a5,0x210
  20af94:	1087b703          	ld	a4,264(a5) # 210108 <rowAddrDependencyTablePtr>
  20af98:	fe446783          	lwu	a5,-28(s0)
  20af9c:	fec46603          	lwu	a2,-20(s0)
  20afa0:	fe846683          	lwu	a3,-24(s0)
  20afa4:	060e                	slli	a2,a2,0x3
  20afa6:	96b2                	add	a3,a3,a2
  20afa8:	06b6                	slli	a3,a3,0xd
  20afaa:	97b6                	add	a5,a5,a3
  20afac:	078a                	slli	a5,a5,0x2
  20afae:	97ba                	add	a5,a5,a4
  20afb0:	439c                	lw	a5,0(a5)
  20afb2:	873e                	mv	a4,a5
  20afb4:	6785                	lui	a5,0x1
  20afb6:	17fd                	addi	a5,a5,-1
  20afb8:	8ff9                	and	a5,a5,a4
  20afba:	17c2                	slli	a5,a5,0x30
  20afbc:	93c1                	srli	a5,a5,0x30
  20afbe:	0007871b          	sext.w	a4,a5
  20afc2:	fe042783          	lw	a5,-32(s0)
  20afc6:	2781                	sext.w	a5,a5
  20afc8:	28e7f863          	bgeu	a5,a4,20b258 <CheckRowAddrDep+0x4a6>
  20afcc:	002107b7          	lui	a5,0x210
  20afd0:	1087b783          	ld	a5,264(a5) # 210108 <rowAddrDependencyTablePtr>
  20afd4:	fe446703          	lwu	a4,-28(s0)
  20afd8:	fec46603          	lwu	a2,-20(s0)
  20afdc:	fe846683          	lwu	a3,-24(s0)
  20afe0:	060e                	slli	a2,a2,0x3
  20afe2:	96b2                	add	a3,a3,a2
  20afe4:	06b6                	slli	a3,a3,0xd
  20afe6:	9736                	add	a4,a4,a3
  20afe8:	070a                	slli	a4,a4,0x2
  20afea:	973e                	add	a4,a4,a5
  20afec:	4318                	lw	a4,0(a4)
  20afee:	00c7571b          	srliw	a4,a4,0xc
  20aff2:	9b7d                	andi	a4,a4,-1
  20aff4:	1742                	slli	a4,a4,0x30
  20aff6:	9341                	srli	a4,a4,0x30
  20aff8:	377d                	addiw	a4,a4,-1
  20affa:	1742                	slli	a4,a4,0x30
  20affc:	9341                	srli	a4,a4,0x30
  20affe:	fe446683          	lwu	a3,-28(s0)
  20b002:	fec46583          	lwu	a1,-20(s0)
  20b006:	fe846603          	lwu	a2,-24(s0)
  20b00a:	058e                	slli	a1,a1,0x3
  20b00c:	962e                	add	a2,a2,a1
  20b00e:	0636                	slli	a2,a2,0xd
  20b010:	96b2                	add	a3,a3,a2
  20b012:	068a                	slli	a3,a3,0x2
  20b014:	97b6                	add	a5,a5,a3
  20b016:	00c7171b          	slliw	a4,a4,0xc
  20b01a:	4390                	lw	a2,0(a5)
  20b01c:	f00016b7          	lui	a3,0xf0001
  20b020:	16fd                	addi	a3,a3,-1
  20b022:	8ef1                	and	a3,a3,a2
  20b024:	8f55                	or	a4,a4,a3
  20b026:	c398                	sw	a4,0(a5)
  20b028:	4785                	li	a5,1
  20b02a:	ac05                	j	20b25a <CheckRowAddrDep+0x4a8>
  20b02c:	0020f7b7          	lui	a5,0x20f
  20b030:	4f878513          	addi	a0,a5,1272 # 20f4f8 <nvme_main+0xb80>
  20b034:	de4f90ef          	jal	ra,204618 <cpl_print>
  20b038:	a405                	j	20b258 <CheckRowAddrDep+0x4a6>
  20b03a:	002107b7          	lui	a5,0x210
  20b03e:	e507b703          	ld	a4,-432(a5) # 20fe50 <reqPoolPtr>
  20b042:	fcc46683          	lwu	a3,-52(s0)
  20b046:	03400793          	li	a5,52
  20b04a:	02f687b3          	mul	a5,a3,a5
  20b04e:	97ba                	add	a5,a5,a4
  20b050:	0017c783          	lbu	a5,1(a5)
  20b054:	ebc5                	bnez	a5,20b104 <CheckRowAddrDep+0x352>
  20b056:	002107b7          	lui	a5,0x210
  20b05a:	1087b703          	ld	a4,264(a5) # 210108 <rowAddrDependencyTablePtr>
  20b05e:	fe446783          	lwu	a5,-28(s0)
  20b062:	fec46603          	lwu	a2,-20(s0)
  20b066:	fe846683          	lwu	a3,-24(s0)
  20b06a:	060e                	slli	a2,a2,0x3
  20b06c:	96b2                	add	a3,a3,a2
  20b06e:	06b6                	slli	a3,a3,0xd
  20b070:	97b6                	add	a5,a5,a3
  20b072:	078a                	slli	a5,a5,0x2
  20b074:	97ba                	add	a5,a5,a4
  20b076:	439c                	lw	a5,0(a5)
  20b078:	873e                	mv	a4,a5
  20b07a:	6785                	lui	a5,0x1
  20b07c:	17fd                	addi	a5,a5,-1
  20b07e:	8ff9                	and	a5,a5,a4
  20b080:	17c2                	slli	a5,a5,0x30
  20b082:	93c1                	srli	a5,a5,0x30
  20b084:	0007871b          	sext.w	a4,a5
  20b088:	fe042783          	lw	a5,-32(s0)
  20b08c:	2781                	sext.w	a5,a5
  20b08e:	1ce79563          	bne	a5,a4,20b258 <CheckRowAddrDep+0x4a6>
  20b092:	002107b7          	lui	a5,0x210
  20b096:	1087b783          	ld	a5,264(a5) # 210108 <rowAddrDependencyTablePtr>
  20b09a:	fe446703          	lwu	a4,-28(s0)
  20b09e:	fec46603          	lwu	a2,-20(s0)
  20b0a2:	fe846683          	lwu	a3,-24(s0)
  20b0a6:	060e                	slli	a2,a2,0x3
  20b0a8:	96b2                	add	a3,a3,a2
  20b0aa:	06b6                	slli	a3,a3,0xd
  20b0ac:	9736                	add	a4,a4,a3
  20b0ae:	070a                	slli	a4,a4,0x2
  20b0b0:	973e                	add	a4,a4,a5
  20b0b2:	4318                	lw	a4,0(a4)
  20b0b4:	86ba                	mv	a3,a4
  20b0b6:	6705                	lui	a4,0x1
  20b0b8:	177d                	addi	a4,a4,-1
  20b0ba:	8f75                	and	a4,a4,a3
  20b0bc:	1742                	slli	a4,a4,0x30
  20b0be:	9341                	srli	a4,a4,0x30
  20b0c0:	2705                	addiw	a4,a4,1
  20b0c2:	86ba                	mv	a3,a4
  20b0c4:	6705                	lui	a4,0x1
  20b0c6:	177d                	addi	a4,a4,-1
  20b0c8:	8f75                	and	a4,a4,a3
  20b0ca:	03071593          	slli	a1,a4,0x30
  20b0ce:	91c1                	srli	a1,a1,0x30
  20b0d0:	fe446703          	lwu	a4,-28(s0)
  20b0d4:	fec46603          	lwu	a2,-20(s0)
  20b0d8:	fe846683          	lwu	a3,-24(s0)
  20b0dc:	060e                	slli	a2,a2,0x3
  20b0de:	96b2                	add	a3,a3,a2
  20b0e0:	06b6                	slli	a3,a3,0xd
  20b0e2:	9736                	add	a4,a4,a3
  20b0e4:	070a                	slli	a4,a4,0x2
  20b0e6:	97ba                	add	a5,a5,a4
  20b0e8:	86ae                	mv	a3,a1
  20b0ea:	6705                	lui	a4,0x1
  20b0ec:	177d                	addi	a4,a4,-1
  20b0ee:	00e6f633          	and	a2,a3,a4
  20b0f2:	4394                	lw	a3,0(a5)
  20b0f4:	777d                	lui	a4,0xfffff
  20b0f6:	8f75                	and	a4,a4,a3
  20b0f8:	86ba                	mv	a3,a4
  20b0fa:	8732                	mv	a4,a2
  20b0fc:	8f55                	or	a4,a4,a3
  20b0fe:	c398                	sw	a4,0(a5)
  20b100:	4785                	li	a5,1
  20b102:	aaa1                	j	20b25a <CheckRowAddrDep+0x4a8>
  20b104:	002107b7          	lui	a5,0x210
  20b108:	e507b703          	ld	a4,-432(a5) # 20fe50 <reqPoolPtr>
  20b10c:	fcc46683          	lwu	a3,-52(s0)
  20b110:	03400793          	li	a5,52
  20b114:	02f687b3          	mul	a5,a3,a5
  20b118:	97ba                	add	a5,a5,a4
  20b11a:	0017c783          	lbu	a5,1(a5)
  20b11e:	873e                	mv	a4,a5
  20b120:	47b1                	li	a5,12
  20b122:	12f71563          	bne	a4,a5,20b24c <CheckRowAddrDep+0x49a>
  20b126:	002107b7          	lui	a5,0x210
  20b12a:	1087b703          	ld	a4,264(a5) # 210108 <rowAddrDependencyTablePtr>
  20b12e:	fe446783          	lwu	a5,-28(s0)
  20b132:	fec46603          	lwu	a2,-20(s0)
  20b136:	fe846683          	lwu	a3,-24(s0)
  20b13a:	060e                	slli	a2,a2,0x3
  20b13c:	96b2                	add	a3,a3,a2
  20b13e:	06b6                	slli	a3,a3,0xd
  20b140:	97b6                	add	a5,a5,a3
  20b142:	078a                	slli	a5,a5,0x2
  20b144:	97ba                	add	a5,a5,a4
  20b146:	439c                	lw	a5,0(a5)
  20b148:	873e                	mv	a4,a5
  20b14a:	6785                	lui	a5,0x1
  20b14c:	17fd                	addi	a5,a5,-1
  20b14e:	8ff9                	and	a5,a5,a4
  20b150:	17c2                	slli	a5,a5,0x30
  20b152:	93c1                	srli	a5,a5,0x30
  20b154:	0007861b          	sext.w	a2,a5
  20b158:	002107b7          	lui	a5,0x210
  20b15c:	e507b703          	ld	a4,-432(a5) # 20fe50 <reqPoolPtr>
  20b160:	fcc46683          	lwu	a3,-52(s0)
  20b164:	03400793          	li	a5,52
  20b168:	02f687b3          	mul	a5,a3,a5
  20b16c:	97ba                	add	a5,a5,a4
  20b16e:	579c                	lw	a5,40(a5)
  20b170:	8732                	mv	a4,a2
  20b172:	08f71563          	bne	a4,a5,20b1fc <CheckRowAddrDep+0x44a>
  20b176:	002107b7          	lui	a5,0x210
  20b17a:	1087b703          	ld	a4,264(a5) # 210108 <rowAddrDependencyTablePtr>
  20b17e:	fe446783          	lwu	a5,-28(s0)
  20b182:	fec46603          	lwu	a2,-20(s0)
  20b186:	fe846683          	lwu	a3,-24(s0)
  20b18a:	060e                	slli	a2,a2,0x3
  20b18c:	96b2                	add	a3,a3,a2
  20b18e:	06b6                	slli	a3,a3,0xd
  20b190:	97b6                	add	a5,a5,a3
  20b192:	078a                	slli	a5,a5,0x2
  20b194:	97ba                	add	a5,a5,a4
  20b196:	439c                	lw	a5,0(a5)
  20b198:	00c7d79b          	srliw	a5,a5,0xc
  20b19c:	9bfd                	andi	a5,a5,-1
  20b19e:	17c2                	slli	a5,a5,0x30
  20b1a0:	93c1                	srli	a5,a5,0x30
  20b1a2:	efa9                	bnez	a5,20b1fc <CheckRowAddrDep+0x44a>
  20b1a4:	002107b7          	lui	a5,0x210
  20b1a8:	1087b703          	ld	a4,264(a5) # 210108 <rowAddrDependencyTablePtr>
  20b1ac:	fe446783          	lwu	a5,-28(s0)
  20b1b0:	fec46603          	lwu	a2,-20(s0)
  20b1b4:	fe846683          	lwu	a3,-24(s0)
  20b1b8:	060e                	slli	a2,a2,0x3
  20b1ba:	96b2                	add	a3,a3,a2
  20b1bc:	06b6                	slli	a3,a3,0xd
  20b1be:	97b6                	add	a5,a5,a3
  20b1c0:	078a                	slli	a5,a5,0x2
  20b1c2:	97ba                	add	a5,a5,a4
  20b1c4:	4394                	lw	a3,0(a5)
  20b1c6:	777d                	lui	a4,0xfffff
  20b1c8:	8f75                	and	a4,a4,a3
  20b1ca:	c398                	sw	a4,0(a5)
  20b1cc:	002107b7          	lui	a5,0x210
  20b1d0:	1087b703          	ld	a4,264(a5) # 210108 <rowAddrDependencyTablePtr>
  20b1d4:	fe446783          	lwu	a5,-28(s0)
  20b1d8:	fec46603          	lwu	a2,-20(s0)
  20b1dc:	fe846683          	lwu	a3,-24(s0)
  20b1e0:	060e                	slli	a2,a2,0x3
  20b1e2:	96b2                	add	a3,a3,a2
  20b1e4:	06b6                	slli	a3,a3,0xd
  20b1e6:	97b6                	add	a5,a5,a3
  20b1e8:	078a                	slli	a5,a5,0x2
  20b1ea:	97ba                	add	a5,a5,a4
  20b1ec:	4394                	lw	a3,0(a5)
  20b1ee:	f0000737          	lui	a4,0xf0000
  20b1f2:	177d                	addi	a4,a4,-1
  20b1f4:	8f75                	and	a4,a4,a3
  20b1f6:	c398                	sw	a4,0(a5)
  20b1f8:	4785                	li	a5,1
  20b1fa:	a085                	j	20b25a <CheckRowAddrDep+0x4a8>
  20b1fc:	fc842783          	lw	a5,-56(s0)
  20b200:	2781                	sext.w	a5,a5
  20b202:	e79d                	bnez	a5,20b230 <CheckRowAddrDep+0x47e>
  20b204:	002107b7          	lui	a5,0x210
  20b208:	1087b703          	ld	a4,264(a5) # 210108 <rowAddrDependencyTablePtr>
  20b20c:	fe446783          	lwu	a5,-28(s0)
  20b210:	fec46603          	lwu	a2,-20(s0)
  20b214:	fe846683          	lwu	a3,-24(s0)
  20b218:	060e                	slli	a2,a2,0x3
  20b21a:	96b2                	add	a3,a3,a2
  20b21c:	06b6                	slli	a3,a3,0xd
  20b21e:	97b6                	add	a5,a5,a3
  20b220:	078a                	slli	a5,a5,0x2
  20b222:	97ba                	add	a5,a5,a4
  20b224:	4394                	lw	a3,0(a5)
  20b226:	10000737          	lui	a4,0x10000
  20b22a:	8f55                	or	a4,a4,a3
  20b22c:	c398                	sw	a4,0(a5)
  20b22e:	a02d                	j	20b258 <CheckRowAddrDep+0x4a6>
  20b230:	fc842783          	lw	a5,-56(s0)
  20b234:	0007871b          	sext.w	a4,a5
  20b238:	4785                	li	a5,1
  20b23a:	00f70f63          	beq	a4,a5,20b258 <CheckRowAddrDep+0x4a6>
  20b23e:	0020f7b7          	lui	a5,0x20f
  20b242:	4f878513          	addi	a0,a5,1272 # 20f4f8 <nvme_main+0xb80>
  20b246:	bd2f90ef          	jal	ra,204618 <cpl_print>
  20b24a:	a039                	j	20b258 <CheckRowAddrDep+0x4a6>
  20b24c:	0020f7b7          	lui	a5,0x20f
  20b250:	53078513          	addi	a0,a5,1328 # 20f530 <nvme_main+0xbb8>
  20b254:	bc4f90ef          	jal	ra,204618 <cpl_print>
  20b258:	4781                	li	a5,0
  20b25a:	853e                	mv	a0,a5
  20b25c:	70e2                	ld	ra,56(sp)
  20b25e:	7442                	ld	s0,48(sp)
  20b260:	6121                	addi	sp,sp,64
  20b262:	8082                	ret

000000000020b264 <UpdateRowAddrDepTableForBufBlockedReq>:
  20b264:	7139                	addi	sp,sp,-64
  20b266:	fc06                	sd	ra,56(sp)
  20b268:	f822                	sd	s0,48(sp)
  20b26a:	0080                	addi	s0,sp,64
  20b26c:	87aa                	mv	a5,a0
  20b26e:	fcf42623          	sw	a5,-52(s0)
  20b272:	002107b7          	lui	a5,0x210
  20b276:	e507b703          	ld	a4,-432(a5) # 20fe50 <reqPoolPtr>
  20b27a:	fcc46683          	lwu	a3,-52(s0)
  20b27e:	03400793          	li	a5,52
  20b282:	02f687b3          	mul	a5,a3,a5
  20b286:	97ba                	add	a5,a5,a4
  20b288:	4b9c                	lw	a5,16(a5)
  20b28a:	0027d79b          	srliw	a5,a5,0x2
  20b28e:	8b8d                	andi	a5,a5,3
  20b290:	0ff7f793          	andi	a5,a5,255
  20b294:	e3c1                	bnez	a5,20b314 <UpdateRowAddrDepTableForBufBlockedReq+0xb0>
  20b296:	002107b7          	lui	a5,0x210
  20b29a:	e507b703          	ld	a4,-432(a5) # 20fe50 <reqPoolPtr>
  20b29e:	fcc46683          	lwu	a3,-52(s0)
  20b2a2:	03400793          	li	a5,52
  20b2a6:	02f687b3          	mul	a5,a3,a5
  20b2aa:	97ba                	add	a5,a5,a4
  20b2ac:	53dc                	lw	a5,36(a5)
  20b2ae:	03f7f793          	andi	a5,a5,63
  20b2b2:	fcf42e23          	sw	a5,-36(s0)
  20b2b6:	fdc42783          	lw	a5,-36(s0)
  20b2ba:	8b9d                	andi	a5,a5,7
  20b2bc:	fef42623          	sw	a5,-20(s0)
  20b2c0:	fdc42783          	lw	a5,-36(s0)
  20b2c4:	0037d79b          	srliw	a5,a5,0x3
  20b2c8:	fef42423          	sw	a5,-24(s0)
  20b2cc:	002107b7          	lui	a5,0x210
  20b2d0:	e507b703          	ld	a4,-432(a5) # 20fe50 <reqPoolPtr>
  20b2d4:	fcc46683          	lwu	a3,-52(s0)
  20b2d8:	03400793          	li	a5,52
  20b2dc:	02f687b3          	mul	a5,a3,a5
  20b2e0:	97ba                	add	a5,a5,a4
  20b2e2:	53dc                	lw	a5,36(a5)
  20b2e4:	00d7d79b          	srliw	a5,a5,0xd
  20b2e8:	fef42223          	sw	a5,-28(s0)
  20b2ec:	002107b7          	lui	a5,0x210
  20b2f0:	e507b703          	ld	a4,-432(a5) # 20fe50 <reqPoolPtr>
  20b2f4:	fcc46683          	lwu	a3,-52(s0)
  20b2f8:	03400793          	li	a5,52
  20b2fc:	02f687b3          	mul	a5,a3,a5
  20b300:	97ba                	add	a5,a5,a4
  20b302:	53dc                	lw	a5,36(a5)
  20b304:	0067d79b          	srliw	a5,a5,0x6
  20b308:	2781                	sext.w	a5,a5
  20b30a:	07f7f793          	andi	a5,a5,127
  20b30e:	fef42023          	sw	a5,-32(s0)
  20b312:	a039                	j	20b320 <UpdateRowAddrDepTableForBufBlockedReq+0xbc>
  20b314:	0020f7b7          	lui	a5,0x20f
  20b318:	4c078513          	addi	a0,a5,1216 # 20f4c0 <nvme_main+0xb48>
  20b31c:	afcf90ef          	jal	ra,204618 <cpl_print>
  20b320:	002107b7          	lui	a5,0x210
  20b324:	e507b703          	ld	a4,-432(a5) # 20fe50 <reqPoolPtr>
  20b328:	fcc46683          	lwu	a3,-52(s0)
  20b32c:	03400793          	li	a5,52
  20b330:	02f687b3          	mul	a5,a3,a5
  20b334:	97ba                	add	a5,a5,a4
  20b336:	0017c783          	lbu	a5,1(a5)
  20b33a:	873e                	mv	a4,a5
  20b33c:	47a1                	li	a5,8
  20b33e:	18f71863          	bne	a4,a5,20b4ce <UpdateRowAddrDepTableForBufBlockedReq+0x26a>
  20b342:	002107b7          	lui	a5,0x210
  20b346:	1087b703          	ld	a4,264(a5) # 210108 <rowAddrDependencyTablePtr>
  20b34a:	fe446783          	lwu	a5,-28(s0)
  20b34e:	fec46603          	lwu	a2,-20(s0)
  20b352:	fe846683          	lwu	a3,-24(s0)
  20b356:	060e                	slli	a2,a2,0x3
  20b358:	96b2                	add	a3,a3,a2
  20b35a:	06b6                	slli	a3,a3,0xd
  20b35c:	97b6                	add	a5,a5,a3
  20b35e:	078a                	slli	a5,a5,0x2
  20b360:	97ba                	add	a5,a5,a4
  20b362:	439c                	lw	a5,0(a5)
  20b364:	01c7d79b          	srliw	a5,a5,0x1c
  20b368:	8b85                	andi	a5,a5,1
  20b36a:	0ff7f793          	andi	a5,a5,255
  20b36e:	10078163          	beqz	a5,20b470 <UpdateRowAddrDepTableForBufBlockedReq+0x20c>
  20b372:	fe442683          	lw	a3,-28(s0)
  20b376:	fe842703          	lw	a4,-24(s0)
  20b37a:	fec42783          	lw	a5,-20(s0)
  20b37e:	8636                	mv	a2,a3
  20b380:	85ba                	mv	a1,a4
  20b382:	853e                	mv	a0,a5
  20b384:	b24fa0ef          	jal	ra,2056a8 <SyncReleaseEraseReq>
  20b388:	fcc42783          	lw	a5,-52(s0)
  20b38c:	853e                	mv	a0,a5
  20b38e:	9e5ff0ef          	jal	ra,20ad72 <CheckBufDep>
  20b392:	87aa                	mv	a5,a0
  20b394:	fcf42c23          	sw	a5,-40(s0)
  20b398:	fd842783          	lw	a5,-40(s0)
  20b39c:	0007871b          	sext.w	a4,a5
  20b3a0:	4785                	li	a5,1
  20b3a2:	0cf71763          	bne	a4,a5,20b470 <UpdateRowAddrDepTableForBufBlockedReq+0x20c>
  20b3a6:	002107b7          	lui	a5,0x210
  20b3aa:	1087b703          	ld	a4,264(a5) # 210108 <rowAddrDependencyTablePtr>
  20b3ae:	fe446783          	lwu	a5,-28(s0)
  20b3b2:	fec46603          	lwu	a2,-20(s0)
  20b3b6:	fe846683          	lwu	a3,-24(s0)
  20b3ba:	060e                	slli	a2,a2,0x3
  20b3bc:	96b2                	add	a3,a3,a2
  20b3be:	06b6                	slli	a3,a3,0xd
  20b3c0:	97b6                	add	a5,a5,a3
  20b3c2:	078a                	slli	a5,a5,0x2
  20b3c4:	97ba                	add	a5,a5,a4
  20b3c6:	439c                	lw	a5,0(a5)
  20b3c8:	873e                	mv	a4,a5
  20b3ca:	6785                	lui	a5,0x1
  20b3cc:	17fd                	addi	a5,a5,-1
  20b3ce:	8ff9                	and	a5,a5,a4
  20b3d0:	17c2                	slli	a5,a5,0x30
  20b3d2:	93c1                	srli	a5,a5,0x30
  20b3d4:	0007871b          	sext.w	a4,a5
  20b3d8:	fe042783          	lw	a5,-32(s0)
  20b3dc:	2781                	sext.w	a5,a5
  20b3de:	00e7fe63          	bgeu	a5,a4,20b3fa <UpdateRowAddrDepTableForBufBlockedReq+0x196>
  20b3e2:	fe842683          	lw	a3,-24(s0)
  20b3e6:	fec42703          	lw	a4,-20(s0)
  20b3ea:	fcc42783          	lw	a5,-52(s0)
  20b3ee:	8636                	mv	a2,a3
  20b3f0:	85ba                	mv	a1,a4
  20b3f2:	853e                	mv	a0,a5
  20b3f4:	e27f80ef          	jal	ra,20421a <PutToNandReqQ>
  20b3f8:	a895                	j	20b46c <UpdateRowAddrDepTableForBufBlockedReq+0x208>
  20b3fa:	002107b7          	lui	a5,0x210
  20b3fe:	1087b783          	ld	a5,264(a5) # 210108 <rowAddrDependencyTablePtr>
  20b402:	fe446703          	lwu	a4,-28(s0)
  20b406:	fec46603          	lwu	a2,-20(s0)
  20b40a:	fe846683          	lwu	a3,-24(s0)
  20b40e:	060e                	slli	a2,a2,0x3
  20b410:	96b2                	add	a3,a3,a2
  20b412:	06b6                	slli	a3,a3,0xd
  20b414:	9736                	add	a4,a4,a3
  20b416:	070a                	slli	a4,a4,0x2
  20b418:	973e                	add	a4,a4,a5
  20b41a:	4318                	lw	a4,0(a4)
  20b41c:	00c7571b          	srliw	a4,a4,0xc
  20b420:	9b7d                	andi	a4,a4,-1
  20b422:	1742                	slli	a4,a4,0x30
  20b424:	9341                	srli	a4,a4,0x30
  20b426:	2705                	addiw	a4,a4,1
  20b428:	1742                	slli	a4,a4,0x30
  20b42a:	9341                	srli	a4,a4,0x30
  20b42c:	fe446683          	lwu	a3,-28(s0)
  20b430:	fec46583          	lwu	a1,-20(s0)
  20b434:	fe846603          	lwu	a2,-24(s0)
  20b438:	058e                	slli	a1,a1,0x3
  20b43a:	962e                	add	a2,a2,a1
  20b43c:	0636                	slli	a2,a2,0xd
  20b43e:	96b2                	add	a3,a3,a2
  20b440:	068a                	slli	a3,a3,0x2
  20b442:	97b6                	add	a5,a5,a3
  20b444:	00c7171b          	slliw	a4,a4,0xc
  20b448:	4390                	lw	a2,0(a5)
  20b44a:	f00016b7          	lui	a3,0xf0001
  20b44e:	16fd                	addi	a3,a3,-1
  20b450:	8ef1                	and	a3,a3,a2
  20b452:	8f55                	or	a4,a4,a3
  20b454:	c398                	sw	a4,0(a5)
  20b456:	fe842683          	lw	a3,-24(s0)
  20b45a:	fec42703          	lw	a4,-20(s0)
  20b45e:	fcc42783          	lw	a5,-52(s0)
  20b462:	8636                	mv	a2,a3
  20b464:	85ba                	mv	a1,a4
  20b466:	853e                	mv	a0,a5
  20b468:	e2af80ef          	jal	ra,203a92 <PutToBlockedByRowAddrDepReqQ>
  20b46c:	4785                	li	a5,1
  20b46e:	a07d                	j	20b51c <UpdateRowAddrDepTableForBufBlockedReq+0x2b8>
  20b470:	002107b7          	lui	a5,0x210
  20b474:	1087b783          	ld	a5,264(a5) # 210108 <rowAddrDependencyTablePtr>
  20b478:	fe446703          	lwu	a4,-28(s0)
  20b47c:	fec46603          	lwu	a2,-20(s0)
  20b480:	fe846683          	lwu	a3,-24(s0)
  20b484:	060e                	slli	a2,a2,0x3
  20b486:	96b2                	add	a3,a3,a2
  20b488:	06b6                	slli	a3,a3,0xd
  20b48a:	9736                	add	a4,a4,a3
  20b48c:	070a                	slli	a4,a4,0x2
  20b48e:	973e                	add	a4,a4,a5
  20b490:	4318                	lw	a4,0(a4)
  20b492:	00c7571b          	srliw	a4,a4,0xc
  20b496:	9b7d                	andi	a4,a4,-1
  20b498:	1742                	slli	a4,a4,0x30
  20b49a:	9341                	srli	a4,a4,0x30
  20b49c:	2705                	addiw	a4,a4,1
  20b49e:	1742                	slli	a4,a4,0x30
  20b4a0:	9341                	srli	a4,a4,0x30
  20b4a2:	fe446683          	lwu	a3,-28(s0)
  20b4a6:	fec46583          	lwu	a1,-20(s0)
  20b4aa:	fe846603          	lwu	a2,-24(s0)
  20b4ae:	058e                	slli	a1,a1,0x3
  20b4b0:	962e                	add	a2,a2,a1
  20b4b2:	0636                	slli	a2,a2,0xd
  20b4b4:	96b2                	add	a3,a3,a2
  20b4b6:	068a                	slli	a3,a3,0x2
  20b4b8:	97b6                	add	a5,a5,a3
  20b4ba:	00c7171b          	slliw	a4,a4,0xc
  20b4be:	4390                	lw	a2,0(a5)
  20b4c0:	f00016b7          	lui	a3,0xf0001
  20b4c4:	16fd                	addi	a3,a3,-1
  20b4c6:	8ef1                	and	a3,a3,a2
  20b4c8:	8f55                	or	a4,a4,a3
  20b4ca:	c398                	sw	a4,0(a5)
  20b4cc:	a0b9                	j	20b51a <UpdateRowAddrDepTableForBufBlockedReq+0x2b6>
  20b4ce:	002107b7          	lui	a5,0x210
  20b4d2:	e507b703          	ld	a4,-432(a5) # 20fe50 <reqPoolPtr>
  20b4d6:	fcc46683          	lwu	a3,-52(s0)
  20b4da:	03400793          	li	a5,52
  20b4de:	02f687b3          	mul	a5,a3,a5
  20b4e2:	97ba                	add	a5,a5,a4
  20b4e4:	0017c783          	lbu	a5,1(a5)
  20b4e8:	873e                	mv	a4,a5
  20b4ea:	47b1                	li	a5,12
  20b4ec:	02f71763          	bne	a4,a5,20b51a <UpdateRowAddrDepTableForBufBlockedReq+0x2b6>
  20b4f0:	002107b7          	lui	a5,0x210
  20b4f4:	1087b703          	ld	a4,264(a5) # 210108 <rowAddrDependencyTablePtr>
  20b4f8:	fe446783          	lwu	a5,-28(s0)
  20b4fc:	fec46603          	lwu	a2,-20(s0)
  20b500:	fe846683          	lwu	a3,-24(s0)
  20b504:	060e                	slli	a2,a2,0x3
  20b506:	96b2                	add	a3,a3,a2
  20b508:	06b6                	slli	a3,a3,0xd
  20b50a:	97b6                	add	a5,a5,a3
  20b50c:	078a                	slli	a5,a5,0x2
  20b50e:	97ba                	add	a5,a5,a4
  20b510:	4394                	lw	a3,0(a5)
  20b512:	10000737          	lui	a4,0x10000
  20b516:	8f55                	or	a4,a4,a3
  20b518:	c398                	sw	a4,0(a5)
  20b51a:	4781                	li	a5,0
  20b51c:	853e                	mv	a0,a5
  20b51e:	70e2                	ld	ra,56(sp)
  20b520:	7442                	ld	s0,48(sp)
  20b522:	6121                	addi	sp,sp,64
  20b524:	8082                	ret

000000000020b526 <SelectLowLevelReqQ>:
  20b526:	7139                	addi	sp,sp,-64
  20b528:	fc06                	sd	ra,56(sp)
  20b52a:	f822                	sd	s0,48(sp)
  20b52c:	0080                	addi	s0,sp,64
  20b52e:	87aa                	mv	a5,a0
  20b530:	fcf42623          	sw	a5,-52(s0)
  20b534:	fcc42783          	lw	a5,-52(s0)
  20b538:	853e                	mv	a0,a5
  20b53a:	839ff0ef          	jal	ra,20ad72 <CheckBufDep>
  20b53e:	87aa                	mv	a5,a0
  20b540:	fef42223          	sw	a5,-28(s0)
  20b544:	fe442783          	lw	a5,-28(s0)
  20b548:	0007871b          	sext.w	a4,a5
  20b54c:	4785                	li	a5,1
  20b54e:	22f71563          	bne	a4,a5,20b778 <SelectLowLevelReqQ+0x252>
  20b552:	002107b7          	lui	a5,0x210
  20b556:	e507b703          	ld	a4,-432(a5) # 20fe50 <reqPoolPtr>
  20b55a:	fcc46683          	lwu	a3,-52(s0)
  20b55e:	03400793          	li	a5,52
  20b562:	02f687b3          	mul	a5,a3,a5
  20b566:	97ba                	add	a5,a5,a4
  20b568:	439c                	lw	a5,0(a5)
  20b56a:	8bbd                	andi	a5,a5,15
  20b56c:	0ff7f793          	andi	a5,a5,255
  20b570:	873e                	mv	a4,a5
  20b572:	4789                	li	a5,2
  20b574:	00f71d63          	bne	a4,a5,20b58e <SelectLowLevelReqQ+0x68>
  20b578:	fcc42783          	lw	a5,-52(s0)
  20b57c:	853e                	mv	a0,a5
  20b57e:	756000ef          	jal	ra,20bcd4 <IssueNvmeDmaReq>
  20b582:	fcc42783          	lw	a5,-52(s0)
  20b586:	853e                	mv	a0,a5
  20b588:	96ff80ef          	jal	ra,203ef6 <PutToNvmeDmaReqQ>
  20b58c:	ac49                	j	20b81e <SelectLowLevelReqQ+0x2f8>
  20b58e:	002107b7          	lui	a5,0x210
  20b592:	e507b703          	ld	a4,-432(a5) # 20fe50 <reqPoolPtr>
  20b596:	fcc46683          	lwu	a3,-52(s0)
  20b59a:	03400793          	li	a5,52
  20b59e:	02f687b3          	mul	a5,a3,a5
  20b5a2:	97ba                	add	a5,a5,a4
  20b5a4:	439c                	lw	a5,0(a5)
  20b5a6:	8bbd                	andi	a5,a5,15
  20b5a8:	0ff7f793          	andi	a5,a5,255
  20b5ac:	873e                	mv	a4,a5
  20b5ae:	4785                	li	a5,1
  20b5b0:	1af71d63          	bne	a4,a5,20b76a <SelectLowLevelReqQ+0x244>
  20b5b4:	002107b7          	lui	a5,0x210
  20b5b8:	e507b703          	ld	a4,-432(a5) # 20fe50 <reqPoolPtr>
  20b5bc:	fcc46683          	lwu	a3,-52(s0)
  20b5c0:	03400793          	li	a5,52
  20b5c4:	02f687b3          	mul	a5,a3,a5
  20b5c8:	97ba                	add	a5,a5,a4
  20b5ca:	4b9c                	lw	a5,16(a5)
  20b5cc:	0027d79b          	srliw	a5,a5,0x2
  20b5d0:	8b8d                	andi	a5,a5,3
  20b5d2:	0ff7f793          	andi	a5,a5,255
  20b5d6:	ef8d                	bnez	a5,20b610 <SelectLowLevelReqQ+0xea>
  20b5d8:	002107b7          	lui	a5,0x210
  20b5dc:	e507b703          	ld	a4,-432(a5) # 20fe50 <reqPoolPtr>
  20b5e0:	fcc46683          	lwu	a3,-52(s0)
  20b5e4:	03400793          	li	a5,52
  20b5e8:	02f687b3          	mul	a5,a3,a5
  20b5ec:	97ba                	add	a5,a5,a4
  20b5ee:	53dc                	lw	a5,36(a5)
  20b5f0:	03f7f793          	andi	a5,a5,63
  20b5f4:	fcf42e23          	sw	a5,-36(s0)
  20b5f8:	fdc42783          	lw	a5,-36(s0)
  20b5fc:	8b9d                	andi	a5,a5,7
  20b5fe:	fef42623          	sw	a5,-20(s0)
  20b602:	fdc42783          	lw	a5,-36(s0)
  20b606:	0037d79b          	srliw	a5,a5,0x3
  20b60a:	fef42423          	sw	a5,-24(s0)
  20b60e:	a049                	j	20b690 <SelectLowLevelReqQ+0x16a>
  20b610:	002107b7          	lui	a5,0x210
  20b614:	e507b703          	ld	a4,-432(a5) # 20fe50 <reqPoolPtr>
  20b618:	fcc46683          	lwu	a3,-52(s0)
  20b61c:	03400793          	li	a5,52
  20b620:	02f687b3          	mul	a5,a3,a5
  20b624:	97ba                	add	a5,a5,a4
  20b626:	4b9c                	lw	a5,16(a5)
  20b628:	0027d79b          	srliw	a5,a5,0x2
  20b62c:	8b8d                	andi	a5,a5,3
  20b62e:	0ff7f793          	andi	a5,a5,255
  20b632:	873e                	mv	a4,a5
  20b634:	4785                	li	a5,1
  20b636:	04f71763          	bne	a4,a5,20b684 <SelectLowLevelReqQ+0x15e>
  20b63a:	002107b7          	lui	a5,0x210
  20b63e:	e507b703          	ld	a4,-432(a5) # 20fe50 <reqPoolPtr>
  20b642:	fcc46683          	lwu	a3,-52(s0)
  20b646:	03400793          	li	a5,52
  20b64a:	02f687b3          	mul	a5,a3,a5
  20b64e:	97ba                	add	a5,a5,a4
  20b650:	53dc                	lw	a5,36(a5)
  20b652:	8bbd                	andi	a5,a5,15
  20b654:	0ff7f793          	andi	a5,a5,255
  20b658:	fef42623          	sw	a5,-20(s0)
  20b65c:	002107b7          	lui	a5,0x210
  20b660:	e507b703          	ld	a4,-432(a5) # 20fe50 <reqPoolPtr>
  20b664:	fcc46683          	lwu	a3,-52(s0)
  20b668:	03400793          	li	a5,52
  20b66c:	02f687b3          	mul	a5,a3,a5
  20b670:	97ba                	add	a5,a5,a4
  20b672:	53dc                	lw	a5,36(a5)
  20b674:	0047d79b          	srliw	a5,a5,0x4
  20b678:	8bbd                	andi	a5,a5,15
  20b67a:	0ff7f793          	andi	a5,a5,255
  20b67e:	fef42423          	sw	a5,-24(s0)
  20b682:	a039                	j	20b690 <SelectLowLevelReqQ+0x16a>
  20b684:	0020f7b7          	lui	a5,0x20f
  20b688:	4c078513          	addi	a0,a5,1216 # 20f4c0 <nvme_main+0xb48>
  20b68c:	f8df80ef          	jal	ra,204618 <cpl_print>
  20b690:	002107b7          	lui	a5,0x210
  20b694:	e507b703          	ld	a4,-432(a5) # 20fe50 <reqPoolPtr>
  20b698:	fcc46683          	lwu	a3,-52(s0)
  20b69c:	03400793          	li	a5,52
  20b6a0:	02f687b3          	mul	a5,a3,a5
  20b6a4:	97ba                	add	a5,a5,a4
  20b6a6:	4b9c                	lw	a5,16(a5)
  20b6a8:	0067d79b          	srliw	a5,a5,0x6
  20b6ac:	8b85                	andi	a5,a5,1
  20b6ae:	0ff7f793          	andi	a5,a5,255
  20b6b2:	873e                	mv	a4,a5
  20b6b4:	4785                	li	a5,1
  20b6b6:	06f71563          	bne	a4,a5,20b720 <SelectLowLevelReqQ+0x1fa>
  20b6ba:	fcc42783          	lw	a5,-52(s0)
  20b6be:	4581                	li	a1,0
  20b6c0:	853e                	mv	a0,a5
  20b6c2:	ef0ff0ef          	jal	ra,20adb2 <CheckRowAddrDep>
  20b6c6:	87aa                	mv	a5,a0
  20b6c8:	fcf42c23          	sw	a5,-40(s0)
  20b6cc:	fd842783          	lw	a5,-40(s0)
  20b6d0:	0007871b          	sext.w	a4,a5
  20b6d4:	4785                	li	a5,1
  20b6d6:	00f71e63          	bne	a4,a5,20b6f2 <SelectLowLevelReqQ+0x1cc>
  20b6da:	fe842683          	lw	a3,-24(s0)
  20b6de:	fec42703          	lw	a4,-20(s0)
  20b6e2:	fcc42783          	lw	a5,-52(s0)
  20b6e6:	8636                	mv	a2,a3
  20b6e8:	85ba                	mv	a1,a4
  20b6ea:	853e                	mv	a0,a5
  20b6ec:	b2ff80ef          	jal	ra,20421a <PutToNandReqQ>
  20b6f0:	a23d                	j	20b81e <SelectLowLevelReqQ+0x2f8>
  20b6f2:	fd842783          	lw	a5,-40(s0)
  20b6f6:	2781                	sext.w	a5,a5
  20b6f8:	ef89                	bnez	a5,20b712 <SelectLowLevelReqQ+0x1ec>
  20b6fa:	fe842683          	lw	a3,-24(s0)
  20b6fe:	fec42703          	lw	a4,-20(s0)
  20b702:	fcc42783          	lw	a5,-52(s0)
  20b706:	8636                	mv	a2,a3
  20b708:	85ba                	mv	a1,a4
  20b70a:	853e                	mv	a0,a5
  20b70c:	b86f80ef          	jal	ra,203a92 <PutToBlockedByRowAddrDepReqQ>
  20b710:	a239                	j	20b81e <SelectLowLevelReqQ+0x2f8>
  20b712:	0020f7b7          	lui	a5,0x20f
  20b716:	56078513          	addi	a0,a5,1376 # 20f560 <nvme_main+0xbe8>
  20b71a:	efff80ef          	jal	ra,204618 <cpl_print>
  20b71e:	a201                	j	20b81e <SelectLowLevelReqQ+0x2f8>
  20b720:	002107b7          	lui	a5,0x210
  20b724:	e507b703          	ld	a4,-432(a5) # 20fe50 <reqPoolPtr>
  20b728:	fcc46683          	lwu	a3,-52(s0)
  20b72c:	03400793          	li	a5,52
  20b730:	02f687b3          	mul	a5,a3,a5
  20b734:	97ba                	add	a5,a5,a4
  20b736:	4b9c                	lw	a5,16(a5)
  20b738:	0067d79b          	srliw	a5,a5,0x6
  20b73c:	8b85                	andi	a5,a5,1
  20b73e:	0ff7f793          	andi	a5,a5,255
  20b742:	ef89                	bnez	a5,20b75c <SelectLowLevelReqQ+0x236>
  20b744:	fe842683          	lw	a3,-24(s0)
  20b748:	fec42703          	lw	a4,-20(s0)
  20b74c:	fcc42783          	lw	a5,-52(s0)
  20b750:	8636                	mv	a2,a3
  20b752:	85ba                	mv	a1,a4
  20b754:	853e                	mv	a0,a5
  20b756:	ac5f80ef          	jal	ra,20421a <PutToNandReqQ>
  20b75a:	a0d1                	j	20b81e <SelectLowLevelReqQ+0x2f8>
  20b75c:	0020f7b7          	lui	a5,0x20f
  20b760:	59078513          	addi	a0,a5,1424 # 20f590 <nvme_main+0xc18>
  20b764:	eb5f80ef          	jal	ra,204618 <cpl_print>
  20b768:	a85d                	j	20b81e <SelectLowLevelReqQ+0x2f8>
  20b76a:	0020f7b7          	lui	a5,0x20f
  20b76e:	5c078513          	addi	a0,a5,1472 # 20f5c0 <nvme_main+0xc48>
  20b772:	ea7f80ef          	jal	ra,204618 <cpl_print>
  20b776:	a065                	j	20b81e <SelectLowLevelReqQ+0x2f8>
  20b778:	fe442783          	lw	a5,-28(s0)
  20b77c:	2781                	sext.w	a5,a5
  20b77e:	ebc1                	bnez	a5,20b80e <SelectLowLevelReqQ+0x2e8>
  20b780:	002107b7          	lui	a5,0x210
  20b784:	e507b703          	ld	a4,-432(a5) # 20fe50 <reqPoolPtr>
  20b788:	fcc46683          	lwu	a3,-52(s0)
  20b78c:	03400793          	li	a5,52
  20b790:	02f687b3          	mul	a5,a3,a5
  20b794:	97ba                	add	a5,a5,a4
  20b796:	439c                	lw	a5,0(a5)
  20b798:	8bbd                	andi	a5,a5,15
  20b79a:	0ff7f793          	andi	a5,a5,255
  20b79e:	873e                	mv	a4,a5
  20b7a0:	4785                	li	a5,1
  20b7a2:	06f71063          	bne	a4,a5,20b802 <SelectLowLevelReqQ+0x2dc>
  20b7a6:	002107b7          	lui	a5,0x210
  20b7aa:	e507b703          	ld	a4,-432(a5) # 20fe50 <reqPoolPtr>
  20b7ae:	fcc46683          	lwu	a3,-52(s0)
  20b7b2:	03400793          	li	a5,52
  20b7b6:	02f687b3          	mul	a5,a3,a5
  20b7ba:	97ba                	add	a5,a5,a4
  20b7bc:	4b9c                	lw	a5,16(a5)
  20b7be:	0067d79b          	srliw	a5,a5,0x6
  20b7c2:	8b85                	andi	a5,a5,1
  20b7c4:	0ff7f793          	andi	a5,a5,255
  20b7c8:	873e                	mv	a4,a5
  20b7ca:	4785                	li	a5,1
  20b7cc:	02f71b63          	bne	a4,a5,20b802 <SelectLowLevelReqQ+0x2dc>
  20b7d0:	fcc42783          	lw	a5,-52(s0)
  20b7d4:	853e                	mv	a0,a5
  20b7d6:	a8fff0ef          	jal	ra,20b264 <UpdateRowAddrDepTableForBufBlockedReq>
  20b7da:	87aa                	mv	a5,a0
  20b7dc:	fef42023          	sw	a5,-32(s0)
  20b7e0:	fe042783          	lw	a5,-32(s0)
  20b7e4:	2781                	sext.w	a5,a5
  20b7e6:	cf91                	beqz	a5,20b802 <SelectLowLevelReqQ+0x2dc>
  20b7e8:	fe042783          	lw	a5,-32(s0)
  20b7ec:	0007871b          	sext.w	a4,a5
  20b7f0:	4785                	li	a5,1
  20b7f2:	02f70563          	beq	a4,a5,20b81c <SelectLowLevelReqQ+0x2f6>
  20b7f6:	0020f7b7          	lui	a5,0x20f
  20b7fa:	56078513          	addi	a0,a5,1376 # 20f560 <nvme_main+0xbe8>
  20b7fe:	e1bf80ef          	jal	ra,204618 <cpl_print>
  20b802:	fcc42783          	lw	a5,-52(s0)
  20b806:	853e                	mv	a0,a5
  20b808:	f33f70ef          	jal	ra,20373a <PutToBlockedByBufDepReqQ>
  20b80c:	a809                	j	20b81e <SelectLowLevelReqQ+0x2f8>
  20b80e:	0020f7b7          	lui	a5,0x20f
  20b812:	56078513          	addi	a0,a5,1376 # 20f560 <nvme_main+0xbe8>
  20b816:	e03f80ef          	jal	ra,204618 <cpl_print>
  20b81a:	a011                	j	20b81e <SelectLowLevelReqQ+0x2f8>
  20b81c:	0001                	nop
  20b81e:	70e2                	ld	ra,56(sp)
  20b820:	7442                	ld	s0,48(sp)
  20b822:	6121                	addi	sp,sp,64
  20b824:	8082                	ret

000000000020b826 <ReleaseBlockedByBufDepReq>:
  20b826:	7139                	addi	sp,sp,-64
  20b828:	fc06                	sd	ra,56(sp)
  20b82a:	f822                	sd	s0,48(sp)
  20b82c:	0080                	addi	s0,sp,64
  20b82e:	87aa                	mv	a5,a0
  20b830:	fcf42623          	sw	a5,-52(s0)
  20b834:	67c1                	lui	a5,0x10
  20b836:	17fd                	addi	a5,a5,-1
  20b838:	fef42623          	sw	a5,-20(s0)
  20b83c:	002107b7          	lui	a5,0x210
  20b840:	e507b703          	ld	a4,-432(a5) # 20fe50 <reqPoolPtr>
  20b844:	fcc46683          	lwu	a3,-52(s0)
  20b848:	03400793          	li	a5,52
  20b84c:	02f687b3          	mul	a5,a3,a5
  20b850:	97ba                	add	a5,a5,a4
  20b852:	0327d783          	lhu	a5,50(a5)
  20b856:	0007871b          	sext.w	a4,a5
  20b85a:	67c1                	lui	a5,0x10
  20b85c:	17fd                	addi	a5,a5,-1
  20b85e:	04f70d63          	beq	a4,a5,20b8b8 <ReleaseBlockedByBufDepReq+0x92>
  20b862:	002107b7          	lui	a5,0x210
  20b866:	e507b703          	ld	a4,-432(a5) # 20fe50 <reqPoolPtr>
  20b86a:	fcc46683          	lwu	a3,-52(s0)
  20b86e:	03400793          	li	a5,52
  20b872:	02f687b3          	mul	a5,a3,a5
  20b876:	97ba                	add	a5,a5,a4
  20b878:	0327d783          	lhu	a5,50(a5)
  20b87c:	fef42623          	sw	a5,-20(s0)
  20b880:	002107b7          	lui	a5,0x210
  20b884:	e507b703          	ld	a4,-432(a5) # 20fe50 <reqPoolPtr>
  20b888:	fec46683          	lwu	a3,-20(s0)
  20b88c:	03400793          	li	a5,52
  20b890:	02f687b3          	mul	a5,a3,a5
  20b894:	97ba                	add	a5,a5,a4
  20b896:	577d                	li	a4,-1
  20b898:	02e79823          	sh	a4,48(a5)
  20b89c:	002107b7          	lui	a5,0x210
  20b8a0:	e507b703          	ld	a4,-432(a5) # 20fe50 <reqPoolPtr>
  20b8a4:	fcc46683          	lwu	a3,-52(s0)
  20b8a8:	03400793          	li	a5,52
  20b8ac:	02f687b3          	mul	a5,a3,a5
  20b8b0:	97ba                	add	a5,a5,a4
  20b8b2:	577d                	li	a4,-1
  20b8b4:	02e79923          	sh	a4,50(a5)
  20b8b8:	002107b7          	lui	a5,0x210
  20b8bc:	e507b703          	ld	a4,-432(a5) # 20fe50 <reqPoolPtr>
  20b8c0:	fcc46683          	lwu	a3,-52(s0)
  20b8c4:	03400793          	li	a5,52
  20b8c8:	02f687b3          	mul	a5,a3,a5
  20b8cc:	97ba                	add	a5,a5,a4
  20b8ce:	4b9c                	lw	a5,16(a5)
  20b8d0:	8b8d                	andi	a5,a5,3
  20b8d2:	0ff7f793          	andi	a5,a5,255
  20b8d6:	e7b5                	bnez	a5,20b942 <ReleaseBlockedByBufDepReq+0x11c>
  20b8d8:	002107b7          	lui	a5,0x210
  20b8dc:	0707b703          	ld	a4,112(a5) # 210070 <dataBufMapPtr>
  20b8e0:	002107b7          	lui	a5,0x210
  20b8e4:	e507b683          	ld	a3,-432(a5) # 20fe50 <reqPoolPtr>
  20b8e8:	fcc46603          	lwu	a2,-52(s0)
  20b8ec:	03400793          	li	a5,52
  20b8f0:	02f607b3          	mul	a5,a2,a5
  20b8f4:	97b6                	add	a5,a5,a3
  20b8f6:	4bdc                	lw	a5,20(a5)
  20b8f8:	1782                	slli	a5,a5,0x20
  20b8fa:	9381                	srli	a5,a5,0x20
  20b8fc:	0792                	slli	a5,a5,0x4
  20b8fe:	97ba                	add	a5,a5,a4
  20b900:	0087d783          	lhu	a5,8(a5)
  20b904:	0007871b          	sext.w	a4,a5
  20b908:	fcc42783          	lw	a5,-52(s0)
  20b90c:	2781                	sext.w	a5,a5
  20b90e:	0ce79163          	bne	a5,a4,20b9d0 <ReleaseBlockedByBufDepReq+0x1aa>
  20b912:	002107b7          	lui	a5,0x210
  20b916:	0707b703          	ld	a4,112(a5) # 210070 <dataBufMapPtr>
  20b91a:	002107b7          	lui	a5,0x210
  20b91e:	e507b683          	ld	a3,-432(a5) # 20fe50 <reqPoolPtr>
  20b922:	fcc46603          	lwu	a2,-52(s0)
  20b926:	03400793          	li	a5,52
  20b92a:	02f607b3          	mul	a5,a2,a5
  20b92e:	97b6                	add	a5,a5,a3
  20b930:	4bdc                	lw	a5,20(a5)
  20b932:	1782                	slli	a5,a5,0x20
  20b934:	9381                	srli	a5,a5,0x20
  20b936:	0792                	slli	a5,a5,0x4
  20b938:	97ba                	add	a5,a5,a4
  20b93a:	577d                	li	a4,-1
  20b93c:	00e79423          	sh	a4,8(a5)
  20b940:	a841                	j	20b9d0 <ReleaseBlockedByBufDepReq+0x1aa>
  20b942:	002107b7          	lui	a5,0x210
  20b946:	e507b703          	ld	a4,-432(a5) # 20fe50 <reqPoolPtr>
  20b94a:	fcc46683          	lwu	a3,-52(s0)
  20b94e:	03400793          	li	a5,52
  20b952:	02f687b3          	mul	a5,a3,a5
  20b956:	97ba                	add	a5,a5,a4
  20b958:	4b9c                	lw	a5,16(a5)
  20b95a:	8b8d                	andi	a5,a5,3
  20b95c:	0ff7f793          	andi	a5,a5,255
  20b960:	873e                	mv	a4,a5
  20b962:	4785                	li	a5,1
  20b964:	06f71663          	bne	a4,a5,20b9d0 <ReleaseBlockedByBufDepReq+0x1aa>
  20b968:	002107b7          	lui	a5,0x210
  20b96c:	0787b703          	ld	a4,120(a5) # 210078 <tempDataBufMapPtr>
  20b970:	002107b7          	lui	a5,0x210
  20b974:	e507b683          	ld	a3,-432(a5) # 20fe50 <reqPoolPtr>
  20b978:	fcc46603          	lwu	a2,-52(s0)
  20b97c:	03400793          	li	a5,52
  20b980:	02f607b3          	mul	a5,a2,a5
  20b984:	97b6                	add	a5,a5,a3
  20b986:	4bdc                	lw	a5,20(a5)
  20b988:	1782                	slli	a5,a5,0x20
  20b98a:	9381                	srli	a5,a5,0x20
  20b98c:	078a                	slli	a5,a5,0x2
  20b98e:	97ba                	add	a5,a5,a4
  20b990:	0007d783          	lhu	a5,0(a5)
  20b994:	0007871b          	sext.w	a4,a5
  20b998:	fcc42783          	lw	a5,-52(s0)
  20b99c:	2781                	sext.w	a5,a5
  20b99e:	02e79963          	bne	a5,a4,20b9d0 <ReleaseBlockedByBufDepReq+0x1aa>
  20b9a2:	002107b7          	lui	a5,0x210
  20b9a6:	0787b703          	ld	a4,120(a5) # 210078 <tempDataBufMapPtr>
  20b9aa:	002107b7          	lui	a5,0x210
  20b9ae:	e507b683          	ld	a3,-432(a5) # 20fe50 <reqPoolPtr>
  20b9b2:	fcc46603          	lwu	a2,-52(s0)
  20b9b6:	03400793          	li	a5,52
  20b9ba:	02f607b3          	mul	a5,a2,a5
  20b9be:	97b6                	add	a5,a5,a3
  20b9c0:	4bdc                	lw	a5,20(a5)
  20b9c2:	1782                	slli	a5,a5,0x20
  20b9c4:	9381                	srli	a5,a5,0x20
  20b9c6:	078a                	slli	a5,a5,0x2
  20b9c8:	97ba                	add	a5,a5,a4
  20b9ca:	577d                	li	a4,-1
  20b9cc:	00e79023          	sh	a4,0(a5)
  20b9d0:	fec42783          	lw	a5,-20(s0)
  20b9d4:	0007871b          	sext.w	a4,a5
  20b9d8:	67c1                	lui	a5,0x10
  20b9da:	17fd                	addi	a5,a5,-1
  20b9dc:	1cf70d63          	beq	a4,a5,20bbb6 <ReleaseBlockedByBufDepReq+0x390>
  20b9e0:	002107b7          	lui	a5,0x210
  20b9e4:	e507b703          	ld	a4,-432(a5) # 20fe50 <reqPoolPtr>
  20b9e8:	fec46683          	lwu	a3,-20(s0)
  20b9ec:	03400793          	li	a5,52
  20b9f0:	02f687b3          	mul	a5,a3,a5
  20b9f4:	97ba                	add	a5,a5,a4
  20b9f6:	439c                	lw	a5,0(a5)
  20b9f8:	0047d79b          	srliw	a5,a5,0x4
  20b9fc:	8bbd                	andi	a5,a5,15
  20b9fe:	0ff7f793          	andi	a5,a5,255
  20ba02:	873e                	mv	a4,a5
  20ba04:	478d                	li	a5,3
  20ba06:	1af71863          	bne	a4,a5,20bbb6 <ReleaseBlockedByBufDepReq+0x390>
  20ba0a:	fec42783          	lw	a5,-20(s0)
  20ba0e:	853e                	mv	a0,a5
  20ba10:	e99f70ef          	jal	ra,2038a8 <SelectiveGetFromBlockedByBufDepReqQ>
  20ba14:	002107b7          	lui	a5,0x210
  20ba18:	e507b703          	ld	a4,-432(a5) # 20fe50 <reqPoolPtr>
  20ba1c:	fec46683          	lwu	a3,-20(s0)
  20ba20:	03400793          	li	a5,52
  20ba24:	02f687b3          	mul	a5,a3,a5
  20ba28:	97ba                	add	a5,a5,a4
  20ba2a:	439c                	lw	a5,0(a5)
  20ba2c:	8bbd                	andi	a5,a5,15
  20ba2e:	0ff7f793          	andi	a5,a5,255
  20ba32:	873e                	mv	a4,a5
  20ba34:	4789                	li	a5,2
  20ba36:	00f71d63          	bne	a4,a5,20ba50 <ReleaseBlockedByBufDepReq+0x22a>
  20ba3a:	fec42783          	lw	a5,-20(s0)
  20ba3e:	853e                	mv	a0,a5
  20ba40:	294000ef          	jal	ra,20bcd4 <IssueNvmeDmaReq>
  20ba44:	fec42783          	lw	a5,-20(s0)
  20ba48:	853e                	mv	a0,a5
  20ba4a:	cacf80ef          	jal	ra,203ef6 <PutToNvmeDmaReqQ>
  20ba4e:	a2a5                	j	20bbb6 <ReleaseBlockedByBufDepReq+0x390>
  20ba50:	002107b7          	lui	a5,0x210
  20ba54:	e507b703          	ld	a4,-432(a5) # 20fe50 <reqPoolPtr>
  20ba58:	fec46683          	lwu	a3,-20(s0)
  20ba5c:	03400793          	li	a5,52
  20ba60:	02f687b3          	mul	a5,a3,a5
  20ba64:	97ba                	add	a5,a5,a4
  20ba66:	439c                	lw	a5,0(a5)
  20ba68:	8bbd                	andi	a5,a5,15
  20ba6a:	0ff7f793          	andi	a5,a5,255
  20ba6e:	873e                	mv	a4,a5
  20ba70:	4785                	li	a5,1
  20ba72:	14f71263          	bne	a4,a5,20bbb6 <ReleaseBlockedByBufDepReq+0x390>
  20ba76:	002107b7          	lui	a5,0x210
  20ba7a:	e507b703          	ld	a4,-432(a5) # 20fe50 <reqPoolPtr>
  20ba7e:	fec46683          	lwu	a3,-20(s0)
  20ba82:	03400793          	li	a5,52
  20ba86:	02f687b3          	mul	a5,a3,a5
  20ba8a:	97ba                	add	a5,a5,a4
  20ba8c:	4b9c                	lw	a5,16(a5)
  20ba8e:	0027d79b          	srliw	a5,a5,0x2
  20ba92:	8b8d                	andi	a5,a5,3
  20ba94:	0ff7f793          	andi	a5,a5,255
  20ba98:	ef8d                	bnez	a5,20bad2 <ReleaseBlockedByBufDepReq+0x2ac>
  20ba9a:	002107b7          	lui	a5,0x210
  20ba9e:	e507b703          	ld	a4,-432(a5) # 20fe50 <reqPoolPtr>
  20baa2:	fec46683          	lwu	a3,-20(s0)
  20baa6:	03400793          	li	a5,52
  20baaa:	02f687b3          	mul	a5,a3,a5
  20baae:	97ba                	add	a5,a5,a4
  20bab0:	53dc                	lw	a5,36(a5)
  20bab2:	03f7f793          	andi	a5,a5,63
  20bab6:	fef42023          	sw	a5,-32(s0)
  20baba:	fe042783          	lw	a5,-32(s0)
  20babe:	8b9d                	andi	a5,a5,7
  20bac0:	fef42423          	sw	a5,-24(s0)
  20bac4:	fe042783          	lw	a5,-32(s0)
  20bac8:	0037d79b          	srliw	a5,a5,0x3
  20bacc:	fef42223          	sw	a5,-28(s0)
  20bad0:	a039                	j	20bade <ReleaseBlockedByBufDepReq+0x2b8>
  20bad2:	0020f7b7          	lui	a5,0x20f
  20bad6:	4c078513          	addi	a0,a5,1216 # 20f4c0 <nvme_main+0xb48>
  20bada:	b3ff80ef          	jal	ra,204618 <cpl_print>
  20bade:	002107b7          	lui	a5,0x210
  20bae2:	e507b703          	ld	a4,-432(a5) # 20fe50 <reqPoolPtr>
  20bae6:	fec46683          	lwu	a3,-20(s0)
  20baea:	03400793          	li	a5,52
  20baee:	02f687b3          	mul	a5,a3,a5
  20baf2:	97ba                	add	a5,a5,a4
  20baf4:	4b9c                	lw	a5,16(a5)
  20baf6:	0067d79b          	srliw	a5,a5,0x6
  20bafa:	8b85                	andi	a5,a5,1
  20bafc:	0ff7f793          	andi	a5,a5,255
  20bb00:	873e                	mv	a4,a5
  20bb02:	4785                	li	a5,1
  20bb04:	06f71563          	bne	a4,a5,20bb6e <ReleaseBlockedByBufDepReq+0x348>
  20bb08:	fec42783          	lw	a5,-20(s0)
  20bb0c:	4585                	li	a1,1
  20bb0e:	853e                	mv	a0,a5
  20bb10:	aa2ff0ef          	jal	ra,20adb2 <CheckRowAddrDep>
  20bb14:	87aa                	mv	a5,a0
  20bb16:	fcf42e23          	sw	a5,-36(s0)
  20bb1a:	fdc42783          	lw	a5,-36(s0)
  20bb1e:	0007871b          	sext.w	a4,a5
  20bb22:	4785                	li	a5,1
  20bb24:	00f71e63          	bne	a4,a5,20bb40 <ReleaseBlockedByBufDepReq+0x31a>
  20bb28:	fe442683          	lw	a3,-28(s0)
  20bb2c:	fe842703          	lw	a4,-24(s0)
  20bb30:	fec42783          	lw	a5,-20(s0)
  20bb34:	8636                	mv	a2,a3
  20bb36:	85ba                	mv	a1,a4
  20bb38:	853e                	mv	a0,a5
  20bb3a:	ee0f80ef          	jal	ra,20421a <PutToNandReqQ>
  20bb3e:	a8a5                	j	20bbb6 <ReleaseBlockedByBufDepReq+0x390>
  20bb40:	fdc42783          	lw	a5,-36(s0)
  20bb44:	2781                	sext.w	a5,a5
  20bb46:	ef89                	bnez	a5,20bb60 <ReleaseBlockedByBufDepReq+0x33a>
  20bb48:	fe442683          	lw	a3,-28(s0)
  20bb4c:	fe842703          	lw	a4,-24(s0)
  20bb50:	fec42783          	lw	a5,-20(s0)
  20bb54:	8636                	mv	a2,a3
  20bb56:	85ba                	mv	a1,a4
  20bb58:	853e                	mv	a0,a5
  20bb5a:	f39f70ef          	jal	ra,203a92 <PutToBlockedByRowAddrDepReqQ>
  20bb5e:	a8a1                	j	20bbb6 <ReleaseBlockedByBufDepReq+0x390>
  20bb60:	0020f7b7          	lui	a5,0x20f
  20bb64:	56078513          	addi	a0,a5,1376 # 20f560 <nvme_main+0xbe8>
  20bb68:	ab1f80ef          	jal	ra,204618 <cpl_print>
  20bb6c:	a0a9                	j	20bbb6 <ReleaseBlockedByBufDepReq+0x390>
  20bb6e:	002107b7          	lui	a5,0x210
  20bb72:	e507b703          	ld	a4,-432(a5) # 20fe50 <reqPoolPtr>
  20bb76:	fec46683          	lwu	a3,-20(s0)
  20bb7a:	03400793          	li	a5,52
  20bb7e:	02f687b3          	mul	a5,a3,a5
  20bb82:	97ba                	add	a5,a5,a4
  20bb84:	4b9c                	lw	a5,16(a5)
  20bb86:	0067d79b          	srliw	a5,a5,0x6
  20bb8a:	8b85                	andi	a5,a5,1
  20bb8c:	0ff7f793          	andi	a5,a5,255
  20bb90:	ef89                	bnez	a5,20bbaa <ReleaseBlockedByBufDepReq+0x384>
  20bb92:	fe442683          	lw	a3,-28(s0)
  20bb96:	fe842703          	lw	a4,-24(s0)
  20bb9a:	fec42783          	lw	a5,-20(s0)
  20bb9e:	8636                	mv	a2,a3
  20bba0:	85ba                	mv	a1,a4
  20bba2:	853e                	mv	a0,a5
  20bba4:	e76f80ef          	jal	ra,20421a <PutToNandReqQ>
  20bba8:	a039                	j	20bbb6 <ReleaseBlockedByBufDepReq+0x390>
  20bbaa:	0020f7b7          	lui	a5,0x20f
  20bbae:	59078513          	addi	a0,a5,1424 # 20f590 <nvme_main+0xc18>
  20bbb2:	a67f80ef          	jal	ra,204618 <cpl_print>
  20bbb6:	0001                	nop
  20bbb8:	70e2                	ld	ra,56(sp)
  20bbba:	7442                	ld	s0,48(sp)
  20bbbc:	6121                	addi	sp,sp,64
  20bbbe:	8082                	ret

000000000020bbc0 <ReleaseBlockedByRowAddrDepReq>:
  20bbc0:	7179                	addi	sp,sp,-48
  20bbc2:	f406                	sd	ra,40(sp)
  20bbc4:	f022                	sd	s0,32(sp)
  20bbc6:	1800                	addi	s0,sp,48
  20bbc8:	87aa                	mv	a5,a0
  20bbca:	872e                	mv	a4,a1
  20bbcc:	fcf42e23          	sw	a5,-36(s0)
  20bbd0:	87ba                	mv	a5,a4
  20bbd2:	fcf42c23          	sw	a5,-40(s0)
  20bbd6:	002107b7          	lui	a5,0x210
  20bbda:	c5078713          	addi	a4,a5,-944 # 20fc50 <blockedByRowAddrDepReqQ>
  20bbde:	fd846783          	lwu	a5,-40(s0)
  20bbe2:	fdc46683          	lwu	a3,-36(s0)
  20bbe6:	068e                	slli	a3,a3,0x3
  20bbe8:	97b6                	add	a5,a5,a3
  20bbea:	078e                	slli	a5,a5,0x3
  20bbec:	97ba                	add	a5,a5,a4
  20bbee:	0007d783          	lhu	a5,0(a5)
  20bbf2:	fef42623          	sw	a5,-20(s0)
  20bbf6:	a0c9                	j	20bcb8 <ReleaseBlockedByRowAddrDepReq+0xf8>
  20bbf8:	002107b7          	lui	a5,0x210
  20bbfc:	e507b703          	ld	a4,-432(a5) # 20fe50 <reqPoolPtr>
  20bc00:	fec46683          	lwu	a3,-20(s0)
  20bc04:	03400793          	li	a5,52
  20bc08:	02f687b3          	mul	a5,a3,a5
  20bc0c:	97ba                	add	a5,a5,a4
  20bc0e:	02e7d783          	lhu	a5,46(a5)
  20bc12:	fef42423          	sw	a5,-24(s0)
  20bc16:	002107b7          	lui	a5,0x210
  20bc1a:	e507b703          	ld	a4,-432(a5) # 20fe50 <reqPoolPtr>
  20bc1e:	fec46683          	lwu	a3,-20(s0)
  20bc22:	03400793          	li	a5,52
  20bc26:	02f687b3          	mul	a5,a3,a5
  20bc2a:	97ba                	add	a5,a5,a4
  20bc2c:	4b9c                	lw	a5,16(a5)
  20bc2e:	0067d79b          	srliw	a5,a5,0x6
  20bc32:	8b85                	andi	a5,a5,1
  20bc34:	0ff7f793          	andi	a5,a5,255
  20bc38:	873e                	mv	a4,a5
  20bc3a:	4785                	li	a5,1
  20bc3c:	06f71463          	bne	a4,a5,20bca4 <ReleaseBlockedByRowAddrDepReq+0xe4>
  20bc40:	fec42783          	lw	a5,-20(s0)
  20bc44:	4585                	li	a1,1
  20bc46:	853e                	mv	a0,a5
  20bc48:	96aff0ef          	jal	ra,20adb2 <CheckRowAddrDep>
  20bc4c:	87aa                	mv	a5,a0
  20bc4e:	fef42223          	sw	a5,-28(s0)
  20bc52:	fe442783          	lw	a5,-28(s0)
  20bc56:	0007871b          	sext.w	a4,a5
  20bc5a:	4785                	li	a5,1
  20bc5c:	02f71963          	bne	a4,a5,20bc8e <ReleaseBlockedByRowAddrDepReq+0xce>
  20bc60:	fd842683          	lw	a3,-40(s0)
  20bc64:	fdc42703          	lw	a4,-36(s0)
  20bc68:	fec42783          	lw	a5,-20(s0)
  20bc6c:	8636                	mv	a2,a3
  20bc6e:	85ba                	mv	a1,a4
  20bc70:	853e                	mv	a0,a5
  20bc72:	822f80ef          	jal	ra,203c94 <SelectiveGetFromBlockedByRowAddrDepReqQ>
  20bc76:	fd842683          	lw	a3,-40(s0)
  20bc7a:	fdc42703          	lw	a4,-36(s0)
  20bc7e:	fec42783          	lw	a5,-20(s0)
  20bc82:	8636                	mv	a2,a3
  20bc84:	85ba                	mv	a1,a4
  20bc86:	853e                	mv	a0,a5
  20bc88:	d92f80ef          	jal	ra,20421a <PutToNandReqQ>
  20bc8c:	a015                	j	20bcb0 <ReleaseBlockedByRowAddrDepReq+0xf0>
  20bc8e:	fe442783          	lw	a5,-28(s0)
  20bc92:	2781                	sext.w	a5,a5
  20bc94:	cf91                	beqz	a5,20bcb0 <ReleaseBlockedByRowAddrDepReq+0xf0>
  20bc96:	0020f7b7          	lui	a5,0x20f
  20bc9a:	56078513          	addi	a0,a5,1376 # 20f560 <nvme_main+0xbe8>
  20bc9e:	97bf80ef          	jal	ra,204618 <cpl_print>
  20bca2:	a039                	j	20bcb0 <ReleaseBlockedByRowAddrDepReq+0xf0>
  20bca4:	0020f7b7          	lui	a5,0x20f
  20bca8:	59078513          	addi	a0,a5,1424 # 20f590 <nvme_main+0xc18>
  20bcac:	96df80ef          	jal	ra,204618 <cpl_print>
  20bcb0:	fe842783          	lw	a5,-24(s0)
  20bcb4:	fef42623          	sw	a5,-20(s0)
  20bcb8:	fec42783          	lw	a5,-20(s0)
  20bcbc:	0007871b          	sext.w	a4,a5
  20bcc0:	67c1                	lui	a5,0x10
  20bcc2:	17fd                	addi	a5,a5,-1
  20bcc4:	f2f71ae3          	bne	a4,a5,20bbf8 <ReleaseBlockedByRowAddrDepReq+0x38>
  20bcc8:	0001                	nop
  20bcca:	0001                	nop
  20bccc:	70a2                	ld	ra,40(sp)
  20bcce:	7402                	ld	s0,32(sp)
  20bcd0:	6145                	addi	sp,sp,48
  20bcd2:	8082                	ret

000000000020bcd4 <IssueNvmeDmaReq>:
  20bcd4:	7179                	addi	sp,sp,-48
  20bcd6:	f406                	sd	ra,40(sp)
  20bcd8:	f022                	sd	s0,32(sp)
  20bcda:	1800                	addi	s0,sp,48
  20bcdc:	87aa                	mv	a5,a0
  20bcde:	fcf42e23          	sw	a5,-36(s0)
  20bce2:	002107b7          	lui	a5,0x210
  20bce6:	e507b703          	ld	a4,-432(a5) # 20fe50 <reqPoolPtr>
  20bcea:	fdc46683          	lwu	a3,-36(s0)
  20bcee:	03400793          	li	a5,52
  20bcf2:	02f687b3          	mul	a5,a3,a5
  20bcf6:	97ba                	add	a5,a5,a4
  20bcf8:	0187d783          	lhu	a5,24(a5)
  20bcfc:	fef42423          	sw	a5,-24(s0)
  20bd00:	fdc42783          	lw	a5,-36(s0)
  20bd04:	853e                	mv	a0,a5
  20bd06:	f6bfc0ef          	jal	ra,208c70 <GenerateDataBufAddr>
  20bd0a:	87aa                	mv	a5,a0
  20bd0c:	fef42623          	sw	a5,-20(s0)
  20bd10:	fe042223          	sw	zero,-28(s0)
  20bd14:	002107b7          	lui	a5,0x210
  20bd18:	e507b703          	ld	a4,-432(a5) # 20fe50 <reqPoolPtr>
  20bd1c:	fdc46683          	lwu	a3,-36(s0)
  20bd20:	03400793          	li	a5,52
  20bd24:	02f687b3          	mul	a5,a3,a5
  20bd28:	97ba                	add	a5,a5,a4
  20bd2a:	0017c783          	lbu	a5,1(a5)
  20bd2e:	873e                	mv	a4,a5
  20bd30:	47c1                	li	a5,16
  20bd32:	0cf71363          	bne	a4,a5,20bdf8 <IssueNvmeDmaReq+0x124>
  20bd36:	a881                	j	20bd86 <IssueNvmeDmaReq+0xb2>
  20bd38:	002107b7          	lui	a5,0x210
  20bd3c:	e507b703          	ld	a4,-432(a5) # 20fe50 <reqPoolPtr>
  20bd40:	fdc46683          	lwu	a3,-36(s0)
  20bd44:	03400793          	li	a5,52
  20bd48:	02f687b3          	mul	a5,a3,a5
  20bd4c:	97ba                	add	a5,a5,a4
  20bd4e:	0027d783          	lhu	a5,2(a5)
  20bd52:	2781                	sext.w	a5,a5
  20bd54:	fec42603          	lw	a2,-20(s0)
  20bd58:	fe842703          	lw	a4,-24(s0)
  20bd5c:	4681                	li	a3,0
  20bd5e:	85ba                	mv	a1,a4
  20bd60:	853e                	mv	a0,a5
  20bd62:	14f010ef          	jal	ra,20d6b0 <set_auto_rx_dma>
  20bd66:	fe442783          	lw	a5,-28(s0)
  20bd6a:	2785                	addiw	a5,a5,1
  20bd6c:	fef42223          	sw	a5,-28(s0)
  20bd70:	fe842783          	lw	a5,-24(s0)
  20bd74:	2785                	addiw	a5,a5,1
  20bd76:	fef42423          	sw	a5,-24(s0)
  20bd7a:	fec42703          	lw	a4,-20(s0)
  20bd7e:	6785                	lui	a5,0x1
  20bd80:	9fb9                	addw	a5,a5,a4
  20bd82:	fef42623          	sw	a5,-20(s0)
  20bd86:	002107b7          	lui	a5,0x210
  20bd8a:	e507b703          	ld	a4,-432(a5) # 20fe50 <reqPoolPtr>
  20bd8e:	fdc46683          	lwu	a3,-36(s0)
  20bd92:	03400793          	li	a5,52
  20bd96:	02f687b3          	mul	a5,a3,a5
  20bd9a:	97ba                	add	a5,a5,a4
  20bd9c:	01c7d783          	lhu	a5,28(a5)
  20bda0:	0007871b          	sext.w	a4,a5
  20bda4:	fe442783          	lw	a5,-28(s0)
  20bda8:	2781                	sext.w	a5,a5
  20bdaa:	f8e7e7e3          	bltu	a5,a4,20bd38 <IssueNvmeDmaReq+0x64>
  20bdae:	002107b7          	lui	a5,0x210
  20bdb2:	e507b683          	ld	a3,-432(a5) # 20fe50 <reqPoolPtr>
  20bdb6:	002107b7          	lui	a5,0x210
  20bdba:	12878793          	addi	a5,a5,296 # 210128 <g_hostDmaStatus>
  20bdbe:	0067c703          	lbu	a4,6(a5)
  20bdc2:	fdc46603          	lwu	a2,-36(s0)
  20bdc6:	03400793          	li	a5,52
  20bdca:	02f607b3          	mul	a5,a2,a5
  20bdce:	97b6                	add	a5,a5,a3
  20bdd0:	00e78f23          	sb	a4,30(a5)
  20bdd4:	002107b7          	lui	a5,0x210
  20bdd8:	e507b683          	ld	a3,-432(a5) # 20fe50 <reqPoolPtr>
  20bddc:	002107b7          	lui	a5,0x210
  20bde0:	12078793          	addi	a5,a5,288 # 210120 <g_hostDmaAssistStatus>
  20bde4:	43d8                	lw	a4,4(a5)
  20bde6:	fdc46603          	lwu	a2,-36(s0)
  20bdea:	03400793          	li	a5,52
  20bdee:	02f607b3          	mul	a5,a2,a5
  20bdf2:	97b6                	add	a5,a5,a3
  20bdf4:	d398                	sw	a4,32(a5)
  20bdf6:	a8cd                	j	20bee8 <IssueNvmeDmaReq+0x214>
  20bdf8:	002107b7          	lui	a5,0x210
  20bdfc:	e507b703          	ld	a4,-432(a5) # 20fe50 <reqPoolPtr>
  20be00:	fdc46683          	lwu	a3,-36(s0)
  20be04:	03400793          	li	a5,52
  20be08:	02f687b3          	mul	a5,a3,a5
  20be0c:	97ba                	add	a5,a5,a4
  20be0e:	0017c783          	lbu	a5,1(a5)
  20be12:	873e                	mv	a4,a5
  20be14:	02000793          	li	a5,32
  20be18:	0cf71263          	bne	a4,a5,20bedc <IssueNvmeDmaReq+0x208>
  20be1c:	a881                	j	20be6c <IssueNvmeDmaReq+0x198>
  20be1e:	002107b7          	lui	a5,0x210
  20be22:	e507b703          	ld	a4,-432(a5) # 20fe50 <reqPoolPtr>
  20be26:	fdc46683          	lwu	a3,-36(s0)
  20be2a:	03400793          	li	a5,52
  20be2e:	02f687b3          	mul	a5,a3,a5
  20be32:	97ba                	add	a5,a5,a4
  20be34:	0027d783          	lhu	a5,2(a5)
  20be38:	2781                	sext.w	a5,a5
  20be3a:	fec42603          	lw	a2,-20(s0)
  20be3e:	fe842703          	lw	a4,-24(s0)
  20be42:	4681                	li	a3,0
  20be44:	85ba                	mv	a1,a4
  20be46:	853e                	mv	a0,a5
  20be48:	694010ef          	jal	ra,20d4dc <set_auto_tx_dma>
  20be4c:	fe442783          	lw	a5,-28(s0)
  20be50:	2785                	addiw	a5,a5,1
  20be52:	fef42223          	sw	a5,-28(s0)
  20be56:	fe842783          	lw	a5,-24(s0)
  20be5a:	2785                	addiw	a5,a5,1
  20be5c:	fef42423          	sw	a5,-24(s0)
  20be60:	fec42703          	lw	a4,-20(s0)
  20be64:	6785                	lui	a5,0x1
  20be66:	9fb9                	addw	a5,a5,a4
  20be68:	fef42623          	sw	a5,-20(s0)
  20be6c:	002107b7          	lui	a5,0x210
  20be70:	e507b703          	ld	a4,-432(a5) # 20fe50 <reqPoolPtr>
  20be74:	fdc46683          	lwu	a3,-36(s0)
  20be78:	03400793          	li	a5,52
  20be7c:	02f687b3          	mul	a5,a3,a5
  20be80:	97ba                	add	a5,a5,a4
  20be82:	01c7d783          	lhu	a5,28(a5)
  20be86:	0007871b          	sext.w	a4,a5
  20be8a:	fe442783          	lw	a5,-28(s0)
  20be8e:	2781                	sext.w	a5,a5
  20be90:	f8e7e7e3          	bltu	a5,a4,20be1e <IssueNvmeDmaReq+0x14a>
  20be94:	002107b7          	lui	a5,0x210
  20be98:	e507b683          	ld	a3,-432(a5) # 20fe50 <reqPoolPtr>
  20be9c:	002107b7          	lui	a5,0x210
  20bea0:	12878793          	addi	a5,a5,296 # 210128 <g_hostDmaStatus>
  20bea4:	0077c703          	lbu	a4,7(a5)
  20bea8:	fdc46603          	lwu	a2,-36(s0)
  20beac:	03400793          	li	a5,52
  20beb0:	02f607b3          	mul	a5,a2,a5
  20beb4:	97b6                	add	a5,a5,a3
  20beb6:	00e78f23          	sb	a4,30(a5)
  20beba:	002107b7          	lui	a5,0x210
  20bebe:	e507b683          	ld	a3,-432(a5) # 20fe50 <reqPoolPtr>
  20bec2:	002107b7          	lui	a5,0x210
  20bec6:	1207a703          	lw	a4,288(a5) # 210120 <g_hostDmaAssistStatus>
  20beca:	fdc46603          	lwu	a2,-36(s0)
  20bece:	03400793          	li	a5,52
  20bed2:	02f607b3          	mul	a5,a2,a5
  20bed6:	97b6                	add	a5,a5,a3
  20bed8:	d398                	sw	a4,32(a5)
  20beda:	a039                	j	20bee8 <IssueNvmeDmaReq+0x214>
  20bedc:	0020f7b7          	lui	a5,0x20f
  20bee0:	53078513          	addi	a0,a5,1328 # 20f530 <nvme_main+0xbb8>
  20bee4:	f34f80ef          	jal	ra,204618 <cpl_print>
  20bee8:	0001                	nop
  20beea:	70a2                	ld	ra,40(sp)
  20beec:	7402                	ld	s0,32(sp)
  20beee:	6145                	addi	sp,sp,48
  20bef0:	8082                	ret

000000000020bef2 <CheckDoneNvmeDmaReq>:
  20bef2:	1101                	addi	sp,sp,-32
  20bef4:	ec06                	sd	ra,24(sp)
  20bef6:	e822                	sd	s0,16(sp)
  20bef8:	1000                	addi	s0,sp,32
  20befa:	002107b7          	lui	a5,0x210
  20befe:	e6078793          	addi	a5,a5,-416 # 20fe60 <nvmeDmaReqQ>
  20bf02:	0027d783          	lhu	a5,2(a5)
  20bf06:	fef42623          	sw	a5,-20(s0)
  20bf0a:	fe042423          	sw	zero,-24(s0)
  20bf0e:	fe042223          	sw	zero,-28(s0)
  20bf12:	a221                	j	20c01a <CheckDoneNvmeDmaReq+0x128>
  20bf14:	002107b7          	lui	a5,0x210
  20bf18:	e507b703          	ld	a4,-432(a5) # 20fe50 <reqPoolPtr>
  20bf1c:	fec46683          	lwu	a3,-20(s0)
  20bf20:	03400793          	li	a5,52
  20bf24:	02f687b3          	mul	a5,a3,a5
  20bf28:	97ba                	add	a5,a5,a4
  20bf2a:	02c7d783          	lhu	a5,44(a5)
  20bf2e:	fef42023          	sw	a5,-32(s0)
  20bf32:	002107b7          	lui	a5,0x210
  20bf36:	e507b703          	ld	a4,-432(a5) # 20fe50 <reqPoolPtr>
  20bf3a:	fec46683          	lwu	a3,-20(s0)
  20bf3e:	03400793          	li	a5,52
  20bf42:	02f687b3          	mul	a5,a3,a5
  20bf46:	97ba                	add	a5,a5,a4
  20bf48:	0017c783          	lbu	a5,1(a5)
  20bf4c:	873e                	mv	a4,a5
  20bf4e:	47c1                	li	a5,16
  20bf50:	06f71263          	bne	a4,a5,20bfb4 <CheckDoneNvmeDmaReq+0xc2>
  20bf54:	fe842783          	lw	a5,-24(s0)
  20bf58:	2781                	sext.w	a5,a5
  20bf5a:	e3b9                	bnez	a5,20bfa0 <CheckDoneNvmeDmaReq+0xae>
  20bf5c:	002107b7          	lui	a5,0x210
  20bf60:	e507b703          	ld	a4,-432(a5) # 20fe50 <reqPoolPtr>
  20bf64:	fec46683          	lwu	a3,-20(s0)
  20bf68:	03400793          	li	a5,52
  20bf6c:	02f687b3          	mul	a5,a3,a5
  20bf70:	97ba                	add	a5,a5,a4
  20bf72:	01e7c783          	lbu	a5,30(a5)
  20bf76:	0007861b          	sext.w	a2,a5
  20bf7a:	002107b7          	lui	a5,0x210
  20bf7e:	e507b703          	ld	a4,-432(a5) # 20fe50 <reqPoolPtr>
  20bf82:	fec46683          	lwu	a3,-20(s0)
  20bf86:	03400793          	li	a5,52
  20bf8a:	02f687b3          	mul	a5,a3,a5
  20bf8e:	97ba                	add	a5,a5,a4
  20bf90:	539c                	lw	a5,32(a5)
  20bf92:	85be                	mv	a1,a5
  20bf94:	8532                	mv	a0,a2
  20bf96:	33f010ef          	jal	ra,20dad4 <check_auto_rx_dma_partial_done>
  20bf9a:	87aa                	mv	a5,a0
  20bf9c:	fef42423          	sw	a5,-24(s0)
  20bfa0:	fe842783          	lw	a5,-24(s0)
  20bfa4:	2781                	sext.w	a5,a5
  20bfa6:	c7b5                	beqz	a5,20c012 <CheckDoneNvmeDmaReq+0x120>
  20bfa8:	fec42783          	lw	a5,-20(s0)
  20bfac:	853e                	mv	a0,a5
  20bfae:	8a0f80ef          	jal	ra,20404e <SelectiveGetFromNvmeDmaReqQ>
  20bfb2:	a085                	j	20c012 <CheckDoneNvmeDmaReq+0x120>
  20bfb4:	fe442783          	lw	a5,-28(s0)
  20bfb8:	2781                	sext.w	a5,a5
  20bfba:	e3b9                	bnez	a5,20c000 <CheckDoneNvmeDmaReq+0x10e>
  20bfbc:	002107b7          	lui	a5,0x210
  20bfc0:	e507b703          	ld	a4,-432(a5) # 20fe50 <reqPoolPtr>
  20bfc4:	fec46683          	lwu	a3,-20(s0)
  20bfc8:	03400793          	li	a5,52
  20bfcc:	02f687b3          	mul	a5,a3,a5
  20bfd0:	97ba                	add	a5,a5,a4
  20bfd2:	01e7c783          	lbu	a5,30(a5)
  20bfd6:	0007861b          	sext.w	a2,a5
  20bfda:	002107b7          	lui	a5,0x210
  20bfde:	e507b703          	ld	a4,-432(a5) # 20fe50 <reqPoolPtr>
  20bfe2:	fec46683          	lwu	a3,-20(s0)
  20bfe6:	03400793          	li	a5,52
  20bfea:	02f687b3          	mul	a5,a3,a5
  20bfee:	97ba                	add	a5,a5,a4
  20bff0:	539c                	lw	a5,32(a5)
  20bff2:	85be                	mv	a1,a5
  20bff4:	8532                	mv	a0,a2
  20bff6:	193010ef          	jal	ra,20d988 <check_auto_tx_dma_partial_done>
  20bffa:	87aa                	mv	a5,a0
  20bffc:	fef42223          	sw	a5,-28(s0)
  20c000:	fe442783          	lw	a5,-28(s0)
  20c004:	2781                	sext.w	a5,a5
  20c006:	c791                	beqz	a5,20c012 <CheckDoneNvmeDmaReq+0x120>
  20c008:	fec42783          	lw	a5,-20(s0)
  20c00c:	853e                	mv	a0,a5
  20c00e:	840f80ef          	jal	ra,20404e <SelectiveGetFromNvmeDmaReqQ>
  20c012:	fe042783          	lw	a5,-32(s0)
  20c016:	fef42623          	sw	a5,-20(s0)
  20c01a:	fec42783          	lw	a5,-20(s0)
  20c01e:	0007871b          	sext.w	a4,a5
  20c022:	67c1                	lui	a5,0x10
  20c024:	17fd                	addi	a5,a5,-1
  20c026:	eef717e3          	bne	a4,a5,20bf14 <CheckDoneNvmeDmaReq+0x22>
  20c02a:	0001                	nop
  20c02c:	0001                	nop
  20c02e:	60e2                	ld	ra,24(sp)
  20c030:	6442                	ld	s0,16(sp)
  20c032:	6105                	addi	sp,sp,32
  20c034:	8082                	ret

000000000020c036 <InitGcVictimMap>:
  20c036:	388107b7          	lui	a5,0x38810
  20c03a:	00210737          	lui	a4,0x210
  20c03e:	50078793          	addi	a5,a5,1280 # 38810500 <g_nvmeTask+0x386003b8>
  20c042:	10f73c23          	sd	a5,280(a4) # 210118 <gcVictimMapPtr>
  20c046:	4801                	li	a6,0
  20c048:	38810537          	lui	a0,0x38810
  20c04c:	55fd                	li	a1,-1
  20c04e:	08100613          	li	a2,129
  20c052:	04000893          	li	a7,64
  20c056:	00781693          	slli	a3,a6,0x7
  20c05a:	4701                	li	a4,0
  20c05c:	96c2                	add	a3,a3,a6
  20c05e:	00e687b3          	add	a5,a3,a4
  20c062:	078a                	slli	a5,a5,0x2
  20c064:	97aa                	add	a5,a5,a0
  20c066:	50b7a023          	sw	a1,1280(a5)
  20c06a:	2705                	addiw	a4,a4,1
  20c06c:	fec719e3          	bne	a4,a2,20c05e <InitGcVictimMap+0x28>
  20c070:	2805                	addiw	a6,a6,1
  20c072:	ff1812e3          	bne	a6,a7,20c056 <InitGcVictimMap+0x20>
  20c076:	8082                	ret

000000000020c078 <PutToGcVictimList>:
  20c078:	1502                	slli	a0,a0,0x20
  20c07a:	9101                	srli	a0,a0,0x20
  20c07c:	00751793          	slli	a5,a0,0x7
  20c080:	00210737          	lui	a4,0x210
  20c084:	1602                	slli	a2,a2,0x20
  20c086:	11873703          	ld	a4,280(a4) # 210118 <gcVictimMapPtr>
  20c08a:	9201                	srli	a2,a2,0x20
  20c08c:	97aa                	add	a5,a5,a0
  20c08e:	97b2                	add	a5,a5,a2
  20c090:	078a                	slli	a5,a5,0x2
  20c092:	97ba                	add	a5,a5,a4
  20c094:	0027d603          	lhu	a2,2(a5)
  20c098:	6741                	lui	a4,0x10
  20c09a:	03059893          	slli	a7,a1,0x30
  20c09e:	002106b7          	lui	a3,0x210
  20c0a2:	1582                	slli	a1,a1,0x20
  20c0a4:	177d                	addi	a4,a4,-1
  20c0a6:	c106b803          	ld	a6,-1008(a3) # 20fc10 <virtualBlockMapPtr>
  20c0aa:	0308d893          	srli	a7,a7,0x30
  20c0ae:	0006031b          	sext.w	t1,a2
  20c0b2:	9181                	srli	a1,a1,0x20
  20c0b4:	02e60d63          	beq	a2,a4,20c0ee <PutToGcVictimList+0x76>
  20c0b8:	00159713          	slli	a4,a1,0x1
  20c0bc:	00151693          	slli	a3,a0,0x1
  20c0c0:	95ba                	add	a1,a1,a4
  20c0c2:	00a68733          	add	a4,a3,a0
  20c0c6:	00131513          	slli	a0,t1,0x1
  20c0ca:	073e                	slli	a4,a4,0xf
  20c0cc:	058a                	slli	a1,a1,0x2
  20c0ce:	951a                	add	a0,a0,t1
  20c0d0:	95ba                	add	a1,a1,a4
  20c0d2:	050a                	slli	a0,a0,0x2
  20c0d4:	95c2                	add	a1,a1,a6
  20c0d6:	953a                	add	a0,a0,a4
  20c0d8:	577d                	li	a4,-1
  20c0da:	00c59423          	sh	a2,8(a1)
  20c0de:	00e59523          	sh	a4,10(a1)
  20c0e2:	9542                	add	a0,a0,a6
  20c0e4:	01151523          	sh	a7,10(a0) # 3881000a <g_nvmeTask+0x385ffec2>
  20c0e8:	01179123          	sh	a7,2(a5)
  20c0ec:	8082                	ret
  20c0ee:	00159713          	slli	a4,a1,0x1
  20c0f2:	00151693          	slli	a3,a0,0x1
  20c0f6:	95ba                	add	a1,a1,a4
  20c0f8:	9536                	add	a0,a0,a3
  20c0fa:	058a                	slli	a1,a1,0x2
  20c0fc:	053e                	slli	a0,a0,0xf
  20c0fe:	952e                	add	a0,a0,a1
  20c100:	9542                	add	a0,a0,a6
  20c102:	577d                	li	a4,-1
  20c104:	c518                	sw	a4,8(a0)
  20c106:	01179023          	sh	a7,0(a5)
  20c10a:	01179123          	sh	a7,2(a5)
  20c10e:	8082                	ret

000000000020c110 <GetFromGcVictimList>:
  20c110:	1502                	slli	a0,a0,0x20
  20c112:	9101                	srli	a0,a0,0x20
  20c114:	1141                	addi	sp,sp,-16
  20c116:	002107b7          	lui	a5,0x210
  20c11a:	00751613          	slli	a2,a0,0x7
  20c11e:	66c1                	lui	a3,0x10
  20c120:	1187b583          	ld	a1,280(a5) # 210118 <gcVictimMapPtr>
  20c124:	e406                	sd	ra,8(sp)
  20c126:	e022                	sd	s0,0(sp)
  20c128:	08000713          	li	a4,128
  20c12c:	962a                	add	a2,a2,a0
  20c12e:	16fd                	addi	a3,a3,-1
  20c130:	a011                	j	20c134 <GetFromGcVictimList+0x24>
  20c132:	c72d                	beqz	a4,20c19c <GetFromGcVictimList+0x8c>
  20c134:	00e607b3          	add	a5,a2,a4
  20c138:	078a                	slli	a5,a5,0x2
  20c13a:	97ae                	add	a5,a5,a1
  20c13c:	0007d403          	lhu	s0,0(a5)
  20c140:	377d                	addiw	a4,a4,-1
  20c142:	fed408e3          	beq	s0,a3,20c132 <GetFromGcVictimList+0x22>
  20c146:	00151613          	slli	a2,a0,0x1
  20c14a:	00141713          	slli	a4,s0,0x1
  20c14e:	002105b7          	lui	a1,0x210
  20c152:	9532                	add	a0,a0,a2
  20c154:	c105b583          	ld	a1,-1008(a1) # 20fc10 <virtualBlockMapPtr>
  20c158:	9722                	add	a4,a4,s0
  20c15a:	070a                	slli	a4,a4,0x2
  20c15c:	053e                	slli	a0,a0,0xf
  20c15e:	972a                	add	a4,a4,a0
  20c160:	972e                	add	a4,a4,a1
  20c162:	00a75603          	lhu	a2,10(a4) # 1000a <start-0x1efff6>
  20c166:	02d60463          	beq	a2,a3,20c18e <GetFromGcVictimList+0x7e>
  20c16a:	00161693          	slli	a3,a2,0x1
  20c16e:	96b2                	add	a3,a3,a2
  20c170:	068a                	slli	a3,a3,0x2
  20c172:	9536                	add	a0,a0,a3
  20c174:	952e                	add	a0,a0,a1
  20c176:	56fd                	li	a3,-1
  20c178:	00d51423          	sh	a3,8(a0)
  20c17c:	00a75703          	lhu	a4,10(a4)
  20c180:	60a2                	ld	ra,8(sp)
  20c182:	8522                	mv	a0,s0
  20c184:	6402                	ld	s0,0(sp)
  20c186:	00e79023          	sh	a4,0(a5)
  20c18a:	0141                	addi	sp,sp,16
  20c18c:	8082                	ret
  20c18e:	60a2                	ld	ra,8(sp)
  20c190:	8522                	mv	a0,s0
  20c192:	6402                	ld	s0,0(sp)
  20c194:	577d                	li	a4,-1
  20c196:	c398                	sw	a4,0(a5)
  20c198:	0141                	addi	sp,sp,16
  20c19a:	8082                	ret
  20c19c:	00210537          	lui	a0,0x210
  20c1a0:	83850513          	addi	a0,a0,-1992 # 20f838 <nvme_main+0xec0>
  20c1a4:	c74f80ef          	jal	ra,204618 <cpl_print>
  20c1a8:	60a2                	ld	ra,8(sp)
  20c1aa:	8522                	mv	a0,s0
  20c1ac:	6402                	ld	s0,0(sp)
  20c1ae:	0141                	addi	sp,sp,16
  20c1b0:	8082                	ret

000000000020c1b2 <GarbageCollection>:
  20c1b2:	7119                	addi	sp,sp,-128
  20c1b4:	f0ca                	sd	s2,96(sp)
  20c1b6:	fc86                	sd	ra,120(sp)
  20c1b8:	892a                	mv	s2,a0
  20c1ba:	f8a2                	sd	s0,112(sp)
  20c1bc:	f4a6                	sd	s1,104(sp)
  20c1be:	ecce                	sd	s3,88(sp)
  20c1c0:	e8d2                	sd	s4,80(sp)
  20c1c2:	e4d6                	sd	s5,72(sp)
  20c1c4:	e0da                	sd	s6,64(sp)
  20c1c6:	fc5e                	sd	s7,56(sp)
  20c1c8:	f862                	sd	s8,48(sp)
  20c1ca:	f466                	sd	s9,40(sp)
  20c1cc:	f06a                	sd	s10,32(sp)
  20c1ce:	ec6e                	sd	s11,24(sp)
  20c1d0:	f41ff0ef          	jal	ra,20c110 <GetFromGcVictimList>
  20c1d4:	02051593          	slli	a1,a0,0x20
  20c1d8:	02091613          	slli	a2,s2,0x20
  20c1dc:	9181                	srli	a1,a1,0x20
  20c1de:	9201                	srli	a2,a2,0x20
  20c1e0:	00159793          	slli	a5,a1,0x1
  20c1e4:	00161713          	slli	a4,a2,0x1
  20c1e8:	002106b7          	lui	a3,0x210
  20c1ec:	c106b683          	ld	a3,-1008(a3) # 20fc10 <virtualBlockMapPtr>
  20c1f0:	97ae                	add	a5,a5,a1
  20c1f2:	9732                	add	a4,a4,a2
  20c1f4:	073e                	slli	a4,a4,0xf
  20c1f6:	078a                	slli	a5,a5,0x2
  20c1f8:	97ba                	add	a5,a5,a4
  20c1fa:	97b6                	add	a5,a5,a3
  20c1fc:	439c                	lw	a5,0(a5)
  20c1fe:	0005069b          	sext.w	a3,a0
  20c202:	08000713          	li	a4,128
  20c206:	0027d79b          	srliw	a5,a5,0x2
  20c20a:	17c2                	slli	a5,a5,0x30
  20c20c:	e436                	sd	a3,8(sp)
  20c20e:	93c1                	srli	a5,a5,0x30
  20c210:	14e78b63          	beq	a5,a4,20c366 <GarbageCollection+0x1b4>
  20c214:	6709                	lui	a4,0x2
  20c216:	00d69d9b          	slliw	s11,a3,0xd
  20c21a:	0127073b          	addw	a4,a4,s2
  20c21e:	012d843b          	addw	s0,s11,s2
  20c222:	00210d37          	lui	s10,0x210
  20c226:	01b70dbb          	addw	s11,a4,s11
  20c22a:	5afd                	li	s5,-1
  20c22c:	00210b37          	lui	s6,0x210
  20c230:	002104b7          	lui	s1,0x210
  20c234:	a029                	j	20c23e <GarbageCollection+0x8c>
  20c236:	0404041b          	addiw	s0,s0,64
  20c23a:	13b40663          	beq	s0,s11,20c366 <GarbageCollection+0x1b4>
  20c23e:	c18d3783          	ld	a5,-1000(s10) # 20fc18 <virtualSliceMapPtr>
  20c242:	02041713          	slli	a4,s0,0x20
  20c246:	8379                	srli	a4,a4,0x1e
  20c248:	97ba                	add	a5,a5,a4
  20c24a:	0007ac03          	lw	s8,0(a5)
  20c24e:	020c1793          	slli	a5,s8,0x20
  20c252:	01e7db93          	srli	s7,a5,0x1e
  20c256:	ff5c00e3          	beq	s8,s5,20c236 <GarbageCollection+0x84>
  20c25a:	c00b3783          	ld	a5,-1024(s6) # 20fc00 <logicalSliceMapPtr>
  20c25e:	97de                	add	a5,a5,s7
  20c260:	439c                	lw	a5,0(a5)
  20c262:	fc879ae3          	bne	a5,s0,20c236 <GarbageCollection+0x84>
  20c266:	95af70ef          	jal	ra,2033c0 <GetFromFreeReqQ>
  20c26a:	02051793          	slli	a5,a0,0x20
  20c26e:	9381                	srli	a5,a5,0x20
  20c270:	03400713          	li	a4,52
  20c274:	02e789b3          	mul	s3,a5,a4
  20c278:	e504bc83          	ld	s9,-432(s1) # 20fe50 <reqPoolPtr>
  20c27c:	46a1                	li	a3,8
  20c27e:	05100793          	li	a5,81
  20c282:	8a2a                	mv	s4,a0
  20c284:	854a                	mv	a0,s2
  20c286:	2a01                	sext.w	s4,s4
  20c288:	9cce                	add	s9,s9,s3
  20c28a:	000ca703          	lw	a4,0(s9)
  20c28e:	00fc8823          	sb	a5,16(s9)
  20c292:	018ca623          	sw	s8,12(s9)
  20c296:	9b41                	andi	a4,a4,-16
  20c298:	00176713          	ori	a4,a4,1
  20c29c:	00eca023          	sw	a4,0(s9)
  20c2a0:	00dc80a3          	sb	a3,1(s9)
  20c2a4:	c63f80ef          	jal	ra,204f06 <AllocateTempDataBuf>
  20c2a8:	e504b703          	ld	a4,-432(s1)
  20c2ac:	00acaa23          	sw	a0,20(s9)
  20c2b0:	85d2                	mv	a1,s4
  20c2b2:	974e                	add	a4,a4,s3
  20c2b4:	4b48                	lw	a0,20(a4)
  20c2b6:	c69f80ef          	jal	ra,204f1e <UpdateTempDataBufEntryInfoBlockingReq>
  20c2ba:	e504b703          	ld	a4,-432(s1)
  20c2be:	8552                	mv	a0,s4
  20c2c0:	013707b3          	add	a5,a4,s3
  20c2c4:	d3c0                	sw	s0,36(a5)
  20c2c6:	a60ff0ef          	jal	ra,20b526 <SelectLowLevelReqQ>
  20c2ca:	8f6f70ef          	jal	ra,2033c0 <GetFromFreeReqQ>
  20c2ce:	02051793          	slli	a5,a0,0x20
  20c2d2:	03400713          	li	a4,52
  20c2d6:	9381                	srli	a5,a5,0x20
  20c2d8:	02e78a33          	mul	s4,a5,a4
  20c2dc:	e504bc83          	ld	s9,-432(s1)
  20c2e0:	05100793          	li	a5,81
  20c2e4:	89aa                	mv	s3,a0
  20c2e6:	854a                	mv	a0,s2
  20c2e8:	2981                	sext.w	s3,s3
  20c2ea:	0404041b          	addiw	s0,s0,64
  20c2ee:	9cd2                	add	s9,s9,s4
  20c2f0:	000ca583          	lw	a1,0(s9)
  20c2f4:	00fc8823          	sb	a5,16(s9)
  20c2f8:	018ca623          	sw	s8,12(s9)
  20c2fc:	99c1                	andi	a1,a1,-16
  20c2fe:	0015e593          	ori	a1,a1,1
  20c302:	00bca023          	sw	a1,0(s9)
  20c306:	000c80a3          	sb	zero,1(s9)
  20c30a:	bfdf80ef          	jal	ra,204f06 <AllocateTempDataBuf>
  20c30e:	e504b803          	ld	a6,-432(s1)
  20c312:	00acaa23          	sw	a0,20(s9)
  20c316:	85ce                	mv	a1,s3
  20c318:	9852                	add	a6,a6,s4
  20c31a:	01482503          	lw	a0,20(a6)
  20c31e:	c01f80ef          	jal	ra,204f1e <UpdateTempDataBufEntryInfoBlockingReq>
  20c322:	65a2                	ld	a1,8(sp)
  20c324:	854a                	mv	a0,s2
  20c326:	e504bc83          	ld	s9,-432(s1)
  20c32a:	f55f50ef          	jal	ra,20227e <FindFreeVirtualSliceForGc>
  20c32e:	e504b583          	ld	a1,-432(s1)
  20c332:	9cd2                	add	s9,s9,s4
  20c334:	02aca223          	sw	a0,36(s9)
  20c338:	014587b3          	add	a5,a1,s4
  20c33c:	0247a803          	lw	a6,36(a5)
  20c340:	c00b3503          	ld	a0,-1024(s6)
  20c344:	c18d3583          	ld	a1,-1000(s10)
  20c348:	02081793          	slli	a5,a6,0x20
  20c34c:	9381                	srli	a5,a5,0x20
  20c34e:	9baa                	add	s7,s7,a0
  20c350:	078a                	slli	a5,a5,0x2
  20c352:	010ba023          	sw	a6,0(s7)
  20c356:	97ae                	add	a5,a5,a1
  20c358:	0187a023          	sw	s8,0(a5)
  20c35c:	854e                	mv	a0,s3
  20c35e:	9c8ff0ef          	jal	ra,20b526 <SelectLowLevelReqQ>
  20c362:	edb41ee3          	bne	s0,s11,20c23e <GarbageCollection+0x8c>
  20c366:	7446                	ld	s0,112(sp)
  20c368:	65a2                	ld	a1,8(sp)
  20c36a:	70e6                	ld	ra,120(sp)
  20c36c:	74a6                	ld	s1,104(sp)
  20c36e:	69e6                	ld	s3,88(sp)
  20c370:	6a46                	ld	s4,80(sp)
  20c372:	6aa6                	ld	s5,72(sp)
  20c374:	6b06                	ld	s6,64(sp)
  20c376:	7be2                	ld	s7,56(sp)
  20c378:	7c42                	ld	s8,48(sp)
  20c37a:	7ca2                	ld	s9,40(sp)
  20c37c:	7d02                	ld	s10,32(sp)
  20c37e:	6de2                	ld	s11,24(sp)
  20c380:	854a                	mv	a0,s2
  20c382:	7906                	ld	s2,96(sp)
  20c384:	6109                	addi	sp,sp,128
  20c386:	b3ef606f          	j	2026c4 <EraseBlock>

000000000020c38a <SelectiveGetFromGcVictimList>:
  20c38a:	1582                	slli	a1,a1,0x20
  20c38c:	1502                	slli	a0,a0,0x20
  20c38e:	9181                	srli	a1,a1,0x20
  20c390:	9101                	srli	a0,a0,0x20
  20c392:	00159793          	slli	a5,a1,0x1
  20c396:	002106b7          	lui	a3,0x210
  20c39a:	00151713          	slli	a4,a0,0x1
  20c39e:	c106b803          	ld	a6,-1008(a3) # 20fc10 <virtualBlockMapPtr>
  20c3a2:	97ae                	add	a5,a5,a1
  20c3a4:	972a                	add	a4,a4,a0
  20c3a6:	078a                	slli	a5,a5,0x2
  20c3a8:	073e                	slli	a4,a4,0xf
  20c3aa:	97ba                	add	a5,a5,a4
  20c3ac:	97c2                	add	a5,a5,a6
  20c3ae:	4390                	lw	a2,0(a5)
  20c3b0:	00a7d583          	lhu	a1,10(a5)
  20c3b4:	0087d303          	lhu	t1,8(a5)
  20c3b8:	0026561b          	srliw	a2,a2,0x2
  20c3bc:	67c1                	lui	a5,0x10
  20c3be:	0106161b          	slliw	a2,a2,0x10
  20c3c2:	17fd                	addi	a5,a5,-1
  20c3c4:	0005889b          	sext.w	a7,a1
  20c3c8:	0003069b          	sext.w	a3,t1
  20c3cc:	0106561b          	srliw	a2,a2,0x10
  20c3d0:	04f58e63          	beq	a1,a5,20c42c <SelectiveGetFromGcVictimList+0xa2>
  20c3d4:	02f68663          	beq	a3,a5,20c400 <SelectiveGetFromGcVictimList+0x76>
  20c3d8:	02069613          	slli	a2,a3,0x20
  20c3dc:	9201                	srli	a2,a2,0x20
  20c3de:	00161693          	slli	a3,a2,0x1
  20c3e2:	96b2                	add	a3,a3,a2
  20c3e4:	00189793          	slli	a5,a7,0x1
  20c3e8:	068a                	slli	a3,a3,0x2
  20c3ea:	97c6                	add	a5,a5,a7
  20c3ec:	96ba                	add	a3,a3,a4
  20c3ee:	078a                	slli	a5,a5,0x2
  20c3f0:	96c2                	add	a3,a3,a6
  20c3f2:	973e                	add	a4,a4,a5
  20c3f4:	00b69523          	sh	a1,10(a3)
  20c3f8:	9742                	add	a4,a4,a6
  20c3fa:	00671423          	sh	t1,8(a4) # 2008 <start-0x1fdff8>
  20c3fe:	8082                	ret
  20c400:	00189793          	slli	a5,a7,0x1
  20c404:	97c6                	add	a5,a5,a7
  20c406:	00751693          	slli	a3,a0,0x7
  20c40a:	002108b7          	lui	a7,0x210
  20c40e:	1188b883          	ld	a7,280(a7) # 210118 <gcVictimMapPtr>
  20c412:	078a                	slli	a5,a5,0x2
  20c414:	9536                	add	a0,a0,a3
  20c416:	973e                	add	a4,a4,a5
  20c418:	962a                	add	a2,a2,a0
  20c41a:	9742                	add	a4,a4,a6
  20c41c:	060a                	slli	a2,a2,0x2
  20c41e:	57fd                	li	a5,-1
  20c420:	00f71423          	sh	a5,8(a4)
  20c424:	9646                	add	a2,a2,a7
  20c426:	00b61023          	sh	a1,0(a2)
  20c42a:	8082                	ret
  20c42c:	002107b7          	lui	a5,0x210
  20c430:	1187b583          	ld	a1,280(a5) # 210118 <gcVictimMapPtr>
  20c434:	03168663          	beq	a3,a7,20c460 <SelectiveGetFromGcVictimList+0xd6>
  20c438:	1682                	slli	a3,a3,0x20
  20c43a:	9281                	srli	a3,a3,0x20
  20c43c:	00169793          	slli	a5,a3,0x1
  20c440:	96be                	add	a3,a3,a5
  20c442:	00751793          	slli	a5,a0,0x7
  20c446:	953e                	add	a0,a0,a5
  20c448:	068a                	slli	a3,a3,0x2
  20c44a:	9736                	add	a4,a4,a3
  20c44c:	962a                	add	a2,a2,a0
  20c44e:	9742                	add	a4,a4,a6
  20c450:	060a                	slli	a2,a2,0x2
  20c452:	57fd                	li	a5,-1
  20c454:	00f71523          	sh	a5,10(a4)
  20c458:	962e                	add	a2,a2,a1
  20c45a:	00661123          	sh	t1,2(a2)
  20c45e:	8082                	ret
  20c460:	00751793          	slli	a5,a0,0x7
  20c464:	953e                	add	a0,a0,a5
  20c466:	962a                	add	a2,a2,a0
  20c468:	060a                	slli	a2,a2,0x2
  20c46a:	962e                	add	a2,a2,a1
  20c46c:	57fd                	li	a5,-1
  20c46e:	c21c                	sw	a5,0(a2)
  20c470:	8082                	ret

000000000020c472 <handle_nvme_io_read>:
  20c472:	7179                	addi	sp,sp,-48
  20c474:	f406                	sd	ra,40(sp)
  20c476:	f022                	sd	s0,32(sp)
  20c478:	1800                	addi	s0,sp,48
  20c47a:	87aa                	mv	a5,a0
  20c47c:	fcb43823          	sd	a1,-48(s0)
  20c480:	fcf42e23          	sw	a5,-36(s0)
  20c484:	fd043783          	ld	a5,-48(s0)
  20c488:	0307c703          	lbu	a4,48(a5)
  20c48c:	0317c683          	lbu	a3,49(a5)
  20c490:	06a2                	slli	a3,a3,0x8
  20c492:	8f55                	or	a4,a4,a3
  20c494:	0327c683          	lbu	a3,50(a5)
  20c498:	06c2                	slli	a3,a3,0x10
  20c49a:	8f55                	or	a4,a4,a3
  20c49c:	0337c783          	lbu	a5,51(a5)
  20c4a0:	07e2                	slli	a5,a5,0x18
  20c4a2:	8fd9                	or	a5,a5,a4
  20c4a4:	2781                	sext.w	a5,a5
  20c4a6:	fef42423          	sw	a5,-24(s0)
  20c4aa:	fd043783          	ld	a5,-48(s0)
  20c4ae:	0287c703          	lbu	a4,40(a5)
  20c4b2:	0297c683          	lbu	a3,41(a5)
  20c4b6:	06a2                	slli	a3,a3,0x8
  20c4b8:	8f55                	or	a4,a4,a3
  20c4ba:	02a7c683          	lbu	a3,42(a5)
  20c4be:	06c2                	slli	a3,a3,0x10
  20c4c0:	8f55                	or	a4,a4,a3
  20c4c2:	02b7c783          	lbu	a5,43(a5)
  20c4c6:	07e2                	slli	a5,a5,0x18
  20c4c8:	8fd9                	or	a5,a5,a4
  20c4ca:	2781                	sext.w	a5,a5
  20c4cc:	fef42023          	sw	a5,-32(s0)
  20c4d0:	fd043783          	ld	a5,-48(s0)
  20c4d4:	02c7c703          	lbu	a4,44(a5)
  20c4d8:	02d7c683          	lbu	a3,45(a5)
  20c4dc:	06a2                	slli	a3,a3,0x8
  20c4de:	8f55                	or	a4,a4,a3
  20c4e0:	02e7c683          	lbu	a3,46(a5)
  20c4e4:	06c2                	slli	a3,a3,0x10
  20c4e6:	8f55                	or	a4,a4,a3
  20c4e8:	02f7c783          	lbu	a5,47(a5)
  20c4ec:	07e2                	slli	a5,a5,0x18
  20c4ee:	8fd9                	or	a5,a5,a4
  20c4f0:	2781                	sext.w	a5,a5
  20c4f2:	fef42223          	sw	a5,-28(s0)
  20c4f6:	fe845783          	lhu	a5,-24(s0)
  20c4fa:	fef42623          	sw	a5,-20(s0)
  20c4fe:	fe042703          	lw	a4,-32(s0)
  20c502:	002107b7          	lui	a5,0x210
  20c506:	0c07a783          	lw	a5,192(a5) # 2100c0 <storageCapacity_L>
  20c50a:	00f77563          	bgeu	a4,a5,20c514 <handle_nvme_io_read+0xa2>
  20c50e:	fe442783          	lw	a5,-28(s0)
  20c512:	cb81                	beqz	a5,20c522 <handle_nvme_io_read+0xb0>
  20c514:	0020f7b7          	lui	a5,0x20f
  20c518:	5f078513          	addi	a0,a5,1520 # 20f5f0 <nvme_main+0xc78>
  20c51c:	8fcf80ef          	jal	ra,204618 <cpl_print>
  20c520:	a001                	j	20c520 <handle_nvme_io_read+0xae>
  20c522:	fd043783          	ld	a5,-48(s0)
  20c526:	0187c703          	lbu	a4,24(a5)
  20c52a:	0197c683          	lbu	a3,25(a5)
  20c52e:	06a2                	slli	a3,a3,0x8
  20c530:	8f55                	or	a4,a4,a3
  20c532:	01a7c683          	lbu	a3,26(a5)
  20c536:	06c2                	slli	a3,a3,0x10
  20c538:	8f55                	or	a4,a4,a3
  20c53a:	01b7c783          	lbu	a5,27(a5)
  20c53e:	07e2                	slli	a5,a5,0x18
  20c540:	8fd9                	or	a5,a5,a4
  20c542:	2781                	sext.w	a5,a5
  20c544:	8b8d                	andi	a5,a5,3
  20c546:	2781                	sext.w	a5,a5
  20c548:	e78d                	bnez	a5,20c572 <handle_nvme_io_read+0x100>
  20c54a:	fd043783          	ld	a5,-48(s0)
  20c54e:	0207c703          	lbu	a4,32(a5)
  20c552:	0217c683          	lbu	a3,33(a5)
  20c556:	06a2                	slli	a3,a3,0x8
  20c558:	8f55                	or	a4,a4,a3
  20c55a:	0227c683          	lbu	a3,34(a5)
  20c55e:	06c2                	slli	a3,a3,0x10
  20c560:	8f55                	or	a4,a4,a3
  20c562:	0237c783          	lbu	a5,35(a5)
  20c566:	07e2                	slli	a5,a5,0x18
  20c568:	8fd9                	or	a5,a5,a4
  20c56a:	2781                	sext.w	a5,a5
  20c56c:	8b8d                	andi	a5,a5,3
  20c56e:	2781                	sext.w	a5,a5
  20c570:	cb81                	beqz	a5,20c580 <handle_nvme_io_read+0x10e>
  20c572:	0020f7b7          	lui	a5,0x20f
  20c576:	61078513          	addi	a0,a5,1552 # 20f610 <nvme_main+0xc98>
  20c57a:	89ef80ef          	jal	ra,204618 <cpl_print>
  20c57e:	a001                	j	20c57e <handle_nvme_io_read+0x10c>
  20c580:	fd043783          	ld	a5,-48(s0)
  20c584:	01c7c703          	lbu	a4,28(a5)
  20c588:	01d7c683          	lbu	a3,29(a5)
  20c58c:	06a2                	slli	a3,a3,0x8
  20c58e:	8f55                	or	a4,a4,a3
  20c590:	01e7c683          	lbu	a3,30(a5)
  20c594:	06c2                	slli	a3,a3,0x10
  20c596:	8f55                	or	a4,a4,a3
  20c598:	01f7c783          	lbu	a5,31(a5)
  20c59c:	07e2                	slli	a5,a5,0x18
  20c59e:	8fd9                	or	a5,a5,a4
  20c5a0:	2781                	sext.w	a5,a5
  20c5a2:	873e                	mv	a4,a5
  20c5a4:	67c1                	lui	a5,0x10
  20c5a6:	02f77763          	bgeu	a4,a5,20c5d4 <handle_nvme_io_read+0x162>
  20c5aa:	fd043783          	ld	a5,-48(s0)
  20c5ae:	0247c703          	lbu	a4,36(a5) # 10024 <start-0x1effdc>
  20c5b2:	0257c683          	lbu	a3,37(a5)
  20c5b6:	06a2                	slli	a3,a3,0x8
  20c5b8:	8f55                	or	a4,a4,a3
  20c5ba:	0267c683          	lbu	a3,38(a5)
  20c5be:	06c2                	slli	a3,a3,0x10
  20c5c0:	8f55                	or	a4,a4,a3
  20c5c2:	0277c783          	lbu	a5,39(a5)
  20c5c6:	07e2                	slli	a5,a5,0x18
  20c5c8:	8fd9                	or	a5,a5,a4
  20c5ca:	2781                	sext.w	a5,a5
  20c5cc:	873e                	mv	a4,a5
  20c5ce:	67c1                	lui	a5,0x10
  20c5d0:	00f76963          	bltu	a4,a5,20c5e2 <handle_nvme_io_read+0x170>
  20c5d4:	0020f7b7          	lui	a5,0x20f
  20c5d8:	63078513          	addi	a0,a5,1584 # 20f630 <nvme_main+0xcb8>
  20c5dc:	83cf80ef          	jal	ra,204618 <cpl_print>
  20c5e0:	a001                	j	20c5e0 <handle_nvme_io_read+0x16e>
  20c5e2:	fe042703          	lw	a4,-32(s0)
  20c5e6:	fec42603          	lw	a2,-20(s0)
  20c5ea:	fdc42783          	lw	a5,-36(s0)
  20c5ee:	4689                	li	a3,2
  20c5f0:	85ba                	mv	a1,a4
  20c5f2:	853e                	mv	a0,a5
  20c5f4:	c8dfd0ef          	jal	ra,20a280 <ReqTransNvmeToSlice>
  20c5f8:	0001                	nop
  20c5fa:	70a2                	ld	ra,40(sp)
  20c5fc:	7402                	ld	s0,32(sp)
  20c5fe:	6145                	addi	sp,sp,48
  20c600:	8082                	ret

000000000020c602 <handle_nvme_io_write>:
  20c602:	7179                	addi	sp,sp,-48
  20c604:	f406                	sd	ra,40(sp)
  20c606:	f022                	sd	s0,32(sp)
  20c608:	1800                	addi	s0,sp,48
  20c60a:	87aa                	mv	a5,a0
  20c60c:	fcb43823          	sd	a1,-48(s0)
  20c610:	fcf42e23          	sw	a5,-36(s0)
  20c614:	fd043783          	ld	a5,-48(s0)
  20c618:	0307c703          	lbu	a4,48(a5)
  20c61c:	0317c683          	lbu	a3,49(a5)
  20c620:	06a2                	slli	a3,a3,0x8
  20c622:	8f55                	or	a4,a4,a3
  20c624:	0327c683          	lbu	a3,50(a5)
  20c628:	06c2                	slli	a3,a3,0x10
  20c62a:	8f55                	or	a4,a4,a3
  20c62c:	0337c783          	lbu	a5,51(a5)
  20c630:	07e2                	slli	a5,a5,0x18
  20c632:	8fd9                	or	a5,a5,a4
  20c634:	2781                	sext.w	a5,a5
  20c636:	fef42423          	sw	a5,-24(s0)
  20c63a:	fd043783          	ld	a5,-48(s0)
  20c63e:	0287c703          	lbu	a4,40(a5)
  20c642:	0297c683          	lbu	a3,41(a5)
  20c646:	06a2                	slli	a3,a3,0x8
  20c648:	8f55                	or	a4,a4,a3
  20c64a:	02a7c683          	lbu	a3,42(a5)
  20c64e:	06c2                	slli	a3,a3,0x10
  20c650:	8f55                	or	a4,a4,a3
  20c652:	02b7c783          	lbu	a5,43(a5)
  20c656:	07e2                	slli	a5,a5,0x18
  20c658:	8fd9                	or	a5,a5,a4
  20c65a:	2781                	sext.w	a5,a5
  20c65c:	fef42023          	sw	a5,-32(s0)
  20c660:	fd043783          	ld	a5,-48(s0)
  20c664:	02c7c703          	lbu	a4,44(a5)
  20c668:	02d7c683          	lbu	a3,45(a5)
  20c66c:	06a2                	slli	a3,a3,0x8
  20c66e:	8f55                	or	a4,a4,a3
  20c670:	02e7c683          	lbu	a3,46(a5)
  20c674:	06c2                	slli	a3,a3,0x10
  20c676:	8f55                	or	a4,a4,a3
  20c678:	02f7c783          	lbu	a5,47(a5)
  20c67c:	07e2                	slli	a5,a5,0x18
  20c67e:	8fd9                	or	a5,a5,a4
  20c680:	2781                	sext.w	a5,a5
  20c682:	fef42223          	sw	a5,-28(s0)
  20c686:	fe845783          	lhu	a5,-24(s0)
  20c68a:	fef42623          	sw	a5,-20(s0)
  20c68e:	fe042703          	lw	a4,-32(s0)
  20c692:	002107b7          	lui	a5,0x210
  20c696:	0c07a783          	lw	a5,192(a5) # 2100c0 <storageCapacity_L>
  20c69a:	00f77563          	bgeu	a4,a5,20c6a4 <handle_nvme_io_write+0xa2>
  20c69e:	fe442783          	lw	a5,-28(s0)
  20c6a2:	cb81                	beqz	a5,20c6b2 <handle_nvme_io_write+0xb0>
  20c6a4:	0020f7b7          	lui	a5,0x20f
  20c6a8:	65078513          	addi	a0,a5,1616 # 20f650 <nvme_main+0xcd8>
  20c6ac:	f6df70ef          	jal	ra,204618 <cpl_print>
  20c6b0:	a001                	j	20c6b0 <handle_nvme_io_write+0xae>
  20c6b2:	fd043783          	ld	a5,-48(s0)
  20c6b6:	0187c703          	lbu	a4,24(a5)
  20c6ba:	0197c683          	lbu	a3,25(a5)
  20c6be:	06a2                	slli	a3,a3,0x8
  20c6c0:	8f55                	or	a4,a4,a3
  20c6c2:	01a7c683          	lbu	a3,26(a5)
  20c6c6:	06c2                	slli	a3,a3,0x10
  20c6c8:	8f55                	or	a4,a4,a3
  20c6ca:	01b7c783          	lbu	a5,27(a5)
  20c6ce:	07e2                	slli	a5,a5,0x18
  20c6d0:	8fd9                	or	a5,a5,a4
  20c6d2:	2781                	sext.w	a5,a5
  20c6d4:	8bbd                	andi	a5,a5,15
  20c6d6:	2781                	sext.w	a5,a5
  20c6d8:	e78d                	bnez	a5,20c702 <handle_nvme_io_write+0x100>
  20c6da:	fd043783          	ld	a5,-48(s0)
  20c6de:	0207c703          	lbu	a4,32(a5)
  20c6e2:	0217c683          	lbu	a3,33(a5)
  20c6e6:	06a2                	slli	a3,a3,0x8
  20c6e8:	8f55                	or	a4,a4,a3
  20c6ea:	0227c683          	lbu	a3,34(a5)
  20c6ee:	06c2                	slli	a3,a3,0x10
  20c6f0:	8f55                	or	a4,a4,a3
  20c6f2:	0237c783          	lbu	a5,35(a5)
  20c6f6:	07e2                	slli	a5,a5,0x18
  20c6f8:	8fd9                	or	a5,a5,a4
  20c6fa:	2781                	sext.w	a5,a5
  20c6fc:	8bbd                	andi	a5,a5,15
  20c6fe:	2781                	sext.w	a5,a5
  20c700:	cb81                	beqz	a5,20c710 <handle_nvme_io_write+0x10e>
  20c702:	0020f7b7          	lui	a5,0x20f
  20c706:	67078513          	addi	a0,a5,1648 # 20f670 <nvme_main+0xcf8>
  20c70a:	f0ff70ef          	jal	ra,204618 <cpl_print>
  20c70e:	a001                	j	20c70e <handle_nvme_io_write+0x10c>
  20c710:	fd043783          	ld	a5,-48(s0)
  20c714:	01c7c703          	lbu	a4,28(a5)
  20c718:	01d7c683          	lbu	a3,29(a5)
  20c71c:	06a2                	slli	a3,a3,0x8
  20c71e:	8f55                	or	a4,a4,a3
  20c720:	01e7c683          	lbu	a3,30(a5)
  20c724:	06c2                	slli	a3,a3,0x10
  20c726:	8f55                	or	a4,a4,a3
  20c728:	01f7c783          	lbu	a5,31(a5)
  20c72c:	07e2                	slli	a5,a5,0x18
  20c72e:	8fd9                	or	a5,a5,a4
  20c730:	2781                	sext.w	a5,a5
  20c732:	873e                	mv	a4,a5
  20c734:	67c1                	lui	a5,0x10
  20c736:	02f77763          	bgeu	a4,a5,20c764 <handle_nvme_io_write+0x162>
  20c73a:	fd043783          	ld	a5,-48(s0)
  20c73e:	0247c703          	lbu	a4,36(a5) # 10024 <start-0x1effdc>
  20c742:	0257c683          	lbu	a3,37(a5)
  20c746:	06a2                	slli	a3,a3,0x8
  20c748:	8f55                	or	a4,a4,a3
  20c74a:	0267c683          	lbu	a3,38(a5)
  20c74e:	06c2                	slli	a3,a3,0x10
  20c750:	8f55                	or	a4,a4,a3
  20c752:	0277c783          	lbu	a5,39(a5)
  20c756:	07e2                	slli	a5,a5,0x18
  20c758:	8fd9                	or	a5,a5,a4
  20c75a:	2781                	sext.w	a5,a5
  20c75c:	873e                	mv	a4,a5
  20c75e:	67c1                	lui	a5,0x10
  20c760:	00f76963          	bltu	a4,a5,20c772 <handle_nvme_io_write+0x170>
  20c764:	0020f7b7          	lui	a5,0x20f
  20c768:	69078513          	addi	a0,a5,1680 # 20f690 <nvme_main+0xd18>
  20c76c:	eadf70ef          	jal	ra,204618 <cpl_print>
  20c770:	a001                	j	20c770 <handle_nvme_io_write+0x16e>
  20c772:	fe042703          	lw	a4,-32(s0)
  20c776:	fec42603          	lw	a2,-20(s0)
  20c77a:	fdc42783          	lw	a5,-36(s0)
  20c77e:	4685                	li	a3,1
  20c780:	85ba                	mv	a1,a4
  20c782:	853e                	mv	a0,a5
  20c784:	afdfd0ef          	jal	ra,20a280 <ReqTransNvmeToSlice>
  20c788:	0001                	nop
  20c78a:	70a2                	ld	ra,40(sp)
  20c78c:	7402                	ld	s0,32(sp)
  20c78e:	6145                	addi	sp,sp,48
  20c790:	8082                	ret

000000000020c792 <handle_nvme_error_insection>:
  20c792:	7179                	addi	sp,sp,-48
  20c794:	f406                	sd	ra,40(sp)
  20c796:	f022                	sd	s0,32(sp)
  20c798:	1800                	addi	s0,sp,48
  20c79a:	87aa                	mv	a5,a0
  20c79c:	fcb43823          	sd	a1,-48(s0)
  20c7a0:	fcf42e23          	sw	a5,-36(s0)
  20c7a4:	fd043783          	ld	a5,-48(s0)
  20c7a8:	0287c703          	lbu	a4,40(a5)
  20c7ac:	0297c683          	lbu	a3,41(a5)
  20c7b0:	06a2                	slli	a3,a3,0x8
  20c7b2:	8f55                	or	a4,a4,a3
  20c7b4:	02a7c683          	lbu	a3,42(a5)
  20c7b8:	06c2                	slli	a3,a3,0x10
  20c7ba:	8f55                	or	a4,a4,a3
  20c7bc:	02b7c783          	lbu	a5,43(a5)
  20c7c0:	07e2                	slli	a5,a5,0x18
  20c7c2:	8fd9                	or	a5,a5,a4
  20c7c4:	fef42623          	sw	a5,-20(s0)
  20c7c8:	fd043783          	ld	a5,-48(s0)
  20c7cc:	02c7c703          	lbu	a4,44(a5)
  20c7d0:	02d7c683          	lbu	a3,45(a5)
  20c7d4:	06a2                	slli	a3,a3,0x8
  20c7d6:	8f55                	or	a4,a4,a3
  20c7d8:	02e7c683          	lbu	a3,46(a5)
  20c7dc:	06c2                	slli	a3,a3,0x10
  20c7de:	8f55                	or	a4,a4,a3
  20c7e0:	02f7c783          	lbu	a5,47(a5)
  20c7e4:	07e2                	slli	a5,a5,0x18
  20c7e6:	8fd9                	or	a5,a5,a4
  20c7e8:	fef42423          	sw	a5,-24(s0)
  20c7ec:	fd043783          	ld	a5,-48(s0)
  20c7f0:	0307c703          	lbu	a4,48(a5)
  20c7f4:	0317c683          	lbu	a3,49(a5)
  20c7f8:	06a2                	slli	a3,a3,0x8
  20c7fa:	8f55                	or	a4,a4,a3
  20c7fc:	0327c683          	lbu	a3,50(a5)
  20c800:	06c2                	slli	a3,a3,0x10
  20c802:	8f55                	or	a4,a4,a3
  20c804:	0337c783          	lbu	a5,51(a5)
  20c808:	07e2                	slli	a5,a5,0x18
  20c80a:	8fd9                	or	a5,a5,a4
  20c80c:	fef42223          	sw	a5,-28(s0)
  20c810:	fec42783          	lw	a5,-20(s0)
  20c814:	85be                	mv	a1,a5
  20c816:	43c807b7          	lui	a5,0x43c80
  20c81a:	00878513          	addi	a0,a5,8 # 43c80008 <g_nvmeTask+0x43a6fec0>
  20c81e:	f97f70ef          	jal	ra,2047b4 <cpl_Out32>
  20c822:	fe842783          	lw	a5,-24(s0)
  20c826:	85be                	mv	a1,a5
  20c828:	43c807b7          	lui	a5,0x43c80
  20c82c:	00c78513          	addi	a0,a5,12 # 43c8000c <g_nvmeTask+0x43a6fec4>
  20c830:	f85f70ef          	jal	ra,2047b4 <cpl_Out32>
  20c834:	fe442783          	lw	a5,-28(s0)
  20c838:	85be                	mv	a1,a5
  20c83a:	43c807b7          	lui	a5,0x43c80
  20c83e:	01078513          	addi	a0,a5,16 # 43c80010 <g_nvmeTask+0x43a6fec8>
  20c842:	f73f70ef          	jal	ra,2047b4 <cpl_Out32>
  20c846:	4585                	li	a1,1
  20c848:	43c807b7          	lui	a5,0x43c80
  20c84c:	00478513          	addi	a0,a5,4 # 43c80004 <g_nvmeTask+0x43a6febc>
  20c850:	f65f70ef          	jal	ra,2047b4 <cpl_Out32>
  20c854:	4581                	li	a1,0
  20c856:	43c80537          	lui	a0,0x43c80
  20c85a:	f5bf70ef          	jal	ra,2047b4 <cpl_Out32>
  20c85e:	0001                	nop
  20c860:	70a2                	ld	ra,40(sp)
  20c862:	7402                	ld	s0,32(sp)
  20c864:	6145                	addi	sp,sp,48
  20c866:	8082                	ret

000000000020c868 <handle_nvme_io_cmd>:
  20c868:	7139                	addi	sp,sp,-64
  20c86a:	fc06                	sd	ra,56(sp)
  20c86c:	f822                	sd	s0,48(sp)
  20c86e:	0080                	addi	s0,sp,64
  20c870:	fca43423          	sd	a0,-56(s0)
  20c874:	fc843783          	ld	a5,-56(s0)
  20c878:	07a1                	addi	a5,a5,8
  20c87a:	fef43423          	sd	a5,-24(s0)
  20c87e:	fe843783          	ld	a5,-24(s0)
  20c882:	0007c783          	lbu	a5,0(a5)
  20c886:	fef42223          	sw	a5,-28(s0)
  20c88a:	fe442783          	lw	a5,-28(s0)
  20c88e:	0007871b          	sext.w	a4,a5
  20c892:	04400793          	li	a5,68
  20c896:	0cf70c63          	beq	a4,a5,20c96e <handle_nvme_io_cmd+0x106>
  20c89a:	fe442783          	lw	a5,-28(s0)
  20c89e:	0007871b          	sext.w	a4,a5
  20c8a2:	04400793          	li	a5,68
  20c8a6:	10e7e563          	bltu	a5,a4,20c9b0 <handle_nvme_io_cmd+0x148>
  20c8aa:	fe442783          	lw	a5,-28(s0)
  20c8ae:	0007871b          	sext.w	a4,a5
  20c8b2:	4789                	li	a5,2
  20c8b4:	08f70c63          	beq	a4,a5,20c94c <handle_nvme_io_cmd+0xe4>
  20c8b8:	fe442783          	lw	a5,-28(s0)
  20c8bc:	0007871b          	sext.w	a4,a5
  20c8c0:	4789                	li	a5,2
  20c8c2:	0ee7e763          	bltu	a5,a4,20c9b0 <handle_nvme_io_cmd+0x148>
  20c8c6:	fe442783          	lw	a5,-28(s0)
  20c8ca:	2781                	sext.w	a5,a5
  20c8cc:	cb89                	beqz	a5,20c8de <handle_nvme_io_cmd+0x76>
  20c8ce:	fe442783          	lw	a5,-28(s0)
  20c8d2:	0007871b          	sext.w	a4,a5
  20c8d6:	4785                	li	a5,1
  20c8d8:	04f70963          	beq	a4,a5,20c92a <handle_nvme_io_cmd+0xc2>
  20c8dc:	a8d1                	j	20c9b0 <handle_nvme_io_cmd+0x148>
  20c8de:	fc042c23          	sw	zero,-40(s0)
  20c8e2:	fda45783          	lhu	a5,-38(s0)
  20c8e6:	8b81                	andi	a5,a5,0
  20c8e8:	fcf41d23          	sh	a5,-38(s0)
  20c8ec:	fdc45783          	lhu	a5,-36(s0)
  20c8f0:	8b81                	andi	a5,a5,0
  20c8f2:	fcf41e23          	sh	a5,-36(s0)
  20c8f6:	fc843783          	ld	a5,-56(s0)
  20c8fa:	0027c703          	lbu	a4,2(a5)
  20c8fe:	0037c783          	lbu	a5,3(a5)
  20c902:	07a2                	slli	a5,a5,0x8
  20c904:	8fd9                	or	a5,a5,a4
  20c906:	17c2                	slli	a5,a5,0x30
  20c908:	93c1                	srli	a5,a5,0x30
  20c90a:	0007871b          	sext.w	a4,a5
  20c90e:	fd843783          	ld	a5,-40(s0)
  20c912:	83c1                	srli	a5,a5,0x10
  20c914:	9bfd                	andi	a5,a5,-1
  20c916:	2781                	sext.w	a5,a5
  20c918:	fd845683          	lhu	a3,-40(s0)
  20c91c:	2681                	sext.w	a3,a3
  20c91e:	8636                	mv	a2,a3
  20c920:	85be                	mv	a1,a5
  20c922:	853a                	mv	a0,a4
  20c924:	5c8000ef          	jal	ra,20ceec <set_auto_nvme_cpl>
  20c928:	a04d                	j	20c9ca <handle_nvme_io_cmd+0x162>
  20c92a:	fc843783          	ld	a5,-56(s0)
  20c92e:	0027c703          	lbu	a4,2(a5)
  20c932:	0037c783          	lbu	a5,3(a5)
  20c936:	07a2                	slli	a5,a5,0x8
  20c938:	8fd9                	or	a5,a5,a4
  20c93a:	17c2                	slli	a5,a5,0x30
  20c93c:	93c1                	srli	a5,a5,0x30
  20c93e:	2781                	sext.w	a5,a5
  20c940:	fe843583          	ld	a1,-24(s0)
  20c944:	853e                	mv	a0,a5
  20c946:	cbdff0ef          	jal	ra,20c602 <handle_nvme_io_write>
  20c94a:	a041                	j	20c9ca <handle_nvme_io_cmd+0x162>
  20c94c:	fc843783          	ld	a5,-56(s0)
  20c950:	0027c703          	lbu	a4,2(a5)
  20c954:	0037c783          	lbu	a5,3(a5)
  20c958:	07a2                	slli	a5,a5,0x8
  20c95a:	8fd9                	or	a5,a5,a4
  20c95c:	17c2                	slli	a5,a5,0x30
  20c95e:	93c1                	srli	a5,a5,0x30
  20c960:	2781                	sext.w	a5,a5
  20c962:	fe843583          	ld	a1,-24(s0)
  20c966:	853e                	mv	a0,a5
  20c968:	b0bff0ef          	jal	ra,20c472 <handle_nvme_io_read>
  20c96c:	a8b9                	j	20c9ca <handle_nvme_io_cmd+0x162>
  20c96e:	fc843783          	ld	a5,-56(s0)
  20c972:	0027c703          	lbu	a4,2(a5)
  20c976:	0037c783          	lbu	a5,3(a5)
  20c97a:	07a2                	slli	a5,a5,0x8
  20c97c:	8fd9                	or	a5,a5,a4
  20c97e:	17c2                	slli	a5,a5,0x30
  20c980:	93c1                	srli	a5,a5,0x30
  20c982:	2781                	sext.w	a5,a5
  20c984:	fe843583          	ld	a1,-24(s0)
  20c988:	853e                	mv	a0,a5
  20c98a:	e09ff0ef          	jal	ra,20c792 <handle_nvme_error_insection>
  20c98e:	fc843783          	ld	a5,-56(s0)
  20c992:	0027c703          	lbu	a4,2(a5)
  20c996:	0037c783          	lbu	a5,3(a5)
  20c99a:	07a2                	slli	a5,a5,0x8
  20c99c:	8fd9                	or	a5,a5,a4
  20c99e:	17c2                	slli	a5,a5,0x30
  20c9a0:	93c1                	srli	a5,a5,0x30
  20c9a2:	2781                	sext.w	a5,a5
  20c9a4:	4601                	li	a2,0
  20c9a6:	4581                	li	a1,0
  20c9a8:	853e                	mv	a0,a5
  20c9aa:	542000ef          	jal	ra,20ceec <set_auto_nvme_cpl>
  20c9ae:	a831                	j	20c9ca <handle_nvme_io_cmd+0x162>
  20c9b0:	0020f7b7          	lui	a5,0x20f
  20c9b4:	6b078513          	addi	a0,a5,1712 # 20f6b0 <nvme_main+0xd38>
  20c9b8:	c61f70ef          	jal	ra,204618 <cpl_print>
  20c9bc:	0020f7b7          	lui	a5,0x20f
  20c9c0:	6d878513          	addi	a0,a5,1752 # 20f6d8 <nvme_main+0xd60>
  20c9c4:	c55f70ef          	jal	ra,204618 <cpl_print>
  20c9c8:	a001                	j	20c9c8 <handle_nvme_io_cmd+0x160>
  20c9ca:	0001                	nop
  20c9cc:	70e2                	ld	ra,56(sp)
  20c9ce:	7442                	ld	s0,48(sp)
  20c9d0:	6121                	addi	sp,sp,64
  20c9d2:	8082                	ret

000000000020c9d4 <dev_irq_init>:
  20c9d4:	1101                	addi	sp,sp,-32
  20c9d6:	ec22                	sd	s0,24(sp)
  20c9d8:	1000                	addi	s0,sp,32
  20c9da:	fe042423          	sw	zero,-24(s0)
  20c9de:	fe842783          	lw	a5,-24(s0)
  20c9e2:	0017e793          	ori	a5,a5,1
  20c9e6:	fef42423          	sw	a5,-24(s0)
  20c9ea:	fe842783          	lw	a5,-24(s0)
  20c9ee:	0027e793          	ori	a5,a5,2
  20c9f2:	fef42423          	sw	a5,-24(s0)
  20c9f6:	fe842783          	lw	a5,-24(s0)
  20c9fa:	0047e793          	ori	a5,a5,4
  20c9fe:	fef42423          	sw	a5,-24(s0)
  20ca02:	fe842783          	lw	a5,-24(s0)
  20ca06:	0087e793          	ori	a5,a5,8
  20ca0a:	fef42423          	sw	a5,-24(s0)
  20ca0e:	fe842783          	lw	a5,-24(s0)
  20ca12:	0107e793          	ori	a5,a5,16
  20ca16:	fef42423          	sw	a5,-24(s0)
  20ca1a:	fe842783          	lw	a5,-24(s0)
  20ca1e:	0207e793          	ori	a5,a5,32
  20ca22:	fef42423          	sw	a5,-24(s0)
  20ca26:	fe842783          	lw	a5,-24(s0)
  20ca2a:	0407e793          	ori	a5,a5,64
  20ca2e:	fef42423          	sw	a5,-24(s0)
  20ca32:	fe842783          	lw	a5,-24(s0)
  20ca36:	0807e793          	ori	a5,a5,128
  20ca3a:	fef42423          	sw	a5,-24(s0)
  20ca3e:	fe842783          	lw	a5,-24(s0)
  20ca42:	2007e793          	ori	a5,a5,512
  20ca46:	fef42423          	sw	a5,-24(s0)
  20ca4a:	fe842783          	lw	a5,-24(s0)
  20ca4e:	4007e793          	ori	a5,a5,1024
  20ca52:	fef42423          	sw	a5,-24(s0)
  20ca56:	fe842703          	lw	a4,-24(s0)
  20ca5a:	6785                	lui	a5,0x1
  20ca5c:	80078793          	addi	a5,a5,-2048 # 800 <start-0x1ff800>
  20ca60:	8fd9                	or	a5,a5,a4
  20ca62:	fef42423          	sw	a5,-24(s0)
  20ca66:	20f00793          	li	a5,527
  20ca6a:	07da                	slli	a5,a5,0x16
  20ca6c:	0791                	addi	a5,a5,4
  20ca6e:	fe842703          	lw	a4,-24(s0)
  20ca72:	c398                	sw	a4,0(a5)
  20ca74:	0001                	nop
  20ca76:	6462                	ld	s0,24(sp)
  20ca78:	6105                	addi	sp,sp,32
  20ca7a:	8082                	ret

000000000020ca7c <dev_irq_handler>:
  20ca7c:	711d                	addi	sp,sp,-96
  20ca7e:	eca2                	sd	s0,88(sp)
  20ca80:	e8ba                	sd	a4,80(sp)
  20ca82:	e4be                	sd	a5,72(sp)
  20ca84:	1080                	addi	s0,sp,96
  20ca86:	20f00793          	li	a5,527
  20ca8a:	07da                	slli	a5,a5,0x16
  20ca8c:	07b1                	addi	a5,a5,12
  20ca8e:	439c                	lw	a5,0(a5)
  20ca90:	2781                	sext.w	a5,a5
  20ca92:	fcf42c23          	sw	a5,-40(s0)
  20ca96:	20f00793          	li	a5,527
  20ca9a:	07da                	slli	a5,a5,0x16
  20ca9c:	07a1                	addi	a5,a5,8
  20ca9e:	fd842703          	lw	a4,-40(s0)
  20caa2:	c398                	sw	a4,0(a5)
  20caa4:	fd844783          	lbu	a5,-40(s0)
  20caa8:	8b85                	andi	a5,a5,1
  20caaa:	0ff7f793          	andi	a5,a5,255
  20caae:	c795                	beqz	a5,20cada <dev_irq_handler+0x5e>
  20cab0:	20f00793          	li	a5,527
  20cab4:	07da                	slli	a5,a5,0x16
  20cab6:	10078793          	addi	a5,a5,256
  20caba:	439c                	lw	a5,0(a5)
  20cabc:	2781                	sext.w	a5,a5
  20cabe:	fcf42823          	sw	a5,-48(s0)
  20cac2:	fd144783          	lbu	a5,-47(s0)
  20cac6:	8b85                	andi	a5,a5,1
  20cac8:	0ff7f793          	andi	a5,a5,255
  20cacc:	e799                	bnez	a5,20cada <dev_irq_handler+0x5e>
  20cace:	002107b7          	lui	a5,0x210
  20cad2:	14878793          	addi	a5,a5,328 # 210148 <g_nvmeTask>
  20cad6:	4715                	li	a4,5
  20cad8:	c398                	sw	a4,0(a5)
  20cada:	fd844783          	lbu	a5,-40(s0)
  20cade:	8b89                	andi	a5,a5,2
  20cae0:	0ff7f793          	andi	a5,a5,255
  20cae4:	cb91                	beqz	a5,20caf8 <dev_irq_handler+0x7c>
  20cae6:	20f00793          	li	a5,527
  20caea:	07da                	slli	a5,a5,0x16
  20caec:	10478793          	addi	a5,a5,260
  20caf0:	439c                	lw	a5,0(a5)
  20caf2:	2781                	sext.w	a5,a5
  20caf4:	fcf42423          	sw	a5,-56(s0)
  20caf8:	fd844783          	lbu	a5,-40(s0)
  20cafc:	8b91                	andi	a5,a5,4
  20cafe:	0ff7f793          	andi	a5,a5,255
  20cb02:	cb91                	beqz	a5,20cb16 <dev_irq_handler+0x9a>
  20cb04:	20f00793          	li	a5,527
  20cb08:	07da                	slli	a5,a5,0x16
  20cb0a:	10478793          	addi	a5,a5,260
  20cb0e:	439c                	lw	a5,0(a5)
  20cb10:	2781                	sext.w	a5,a5
  20cb12:	fcf42023          	sw	a5,-64(s0)
  20cb16:	fd844783          	lbu	a5,-40(s0)
  20cb1a:	8ba1                	andi	a5,a5,8
  20cb1c:	0ff7f793          	andi	a5,a5,255
  20cb20:	cb91                	beqz	a5,20cb34 <dev_irq_handler+0xb8>
  20cb22:	20f00793          	li	a5,527
  20cb26:	07da                	slli	a5,a5,0x16
  20cb28:	10478793          	addi	a5,a5,260
  20cb2c:	439c                	lw	a5,0(a5)
  20cb2e:	2781                	sext.w	a5,a5
  20cb30:	faf42c23          	sw	a5,-72(s0)
  20cb34:	fd844783          	lbu	a5,-40(s0)
  20cb38:	8bc1                	andi	a5,a5,16
  20cb3a:	0ff7f793          	andi	a5,a5,255
  20cb3e:	cb91                	beqz	a5,20cb52 <dev_irq_handler+0xd6>
  20cb40:	20f00793          	li	a5,527
  20cb44:	07da                	slli	a5,a5,0x16
  20cb46:	10478793          	addi	a5,a5,260
  20cb4a:	439c                	lw	a5,0(a5)
  20cb4c:	2781                	sext.w	a5,a5
  20cb4e:	faf42823          	sw	a5,-80(s0)
  20cb52:	fd844783          	lbu	a5,-40(s0)
  20cb56:	0207f793          	andi	a5,a5,32
  20cb5a:	0ff7f793          	andi	a5,a5,255
  20cb5e:	cf8d                	beqz	a5,20cb98 <dev_irq_handler+0x11c>
  20cb60:	20f00793          	li	a5,527
  20cb64:	07da                	slli	a5,a5,0x16
  20cb66:	20078793          	addi	a5,a5,512
  20cb6a:	439c                	lw	a5,0(a5)
  20cb6c:	2781                	sext.w	a5,a5
  20cb6e:	faf42423          	sw	a5,-88(s0)
  20cb72:	fa844783          	lbu	a5,-88(s0)
  20cb76:	8b85                	andi	a5,a5,1
  20cb78:	0ff7f793          	andi	a5,a5,255
  20cb7c:	cb81                	beqz	a5,20cb8c <dev_irq_handler+0x110>
  20cb7e:	002107b7          	lui	a5,0x210
  20cb82:	14878793          	addi	a5,a5,328 # 210148 <g_nvmeTask>
  20cb86:	4705                	li	a4,1
  20cb88:	c398                	sw	a4,0(a5)
  20cb8a:	a039                	j	20cb98 <dev_irq_handler+0x11c>
  20cb8c:	002107b7          	lui	a5,0x210
  20cb90:	14878793          	addi	a5,a5,328 # 210148 <g_nvmeTask>
  20cb94:	4715                	li	a4,5
  20cb96:	c398                	sw	a4,0(a5)
  20cb98:	fd844783          	lbu	a5,-40(s0)
  20cb9c:	0407f793          	andi	a5,a5,64
  20cba0:	0ff7f793          	andi	a5,a5,255
  20cba4:	cb8d                	beqz	a5,20cbd6 <dev_irq_handler+0x15a>
  20cba6:	20f00793          	li	a5,527
  20cbaa:	07da                	slli	a5,a5,0x16
  20cbac:	20078793          	addi	a5,a5,512
  20cbb0:	439c                	lw	a5,0(a5)
  20cbb2:	2781                	sext.w	a5,a5
  20cbb4:	faf42023          	sw	a5,-96(s0)
  20cbb8:	fa044783          	lbu	a5,-96(s0)
  20cbbc:	8b99                	andi	a5,a5,6
  20cbbe:	0ff7f793          	andi	a5,a5,255
  20cbc2:	873e                	mv	a4,a5
  20cbc4:	4789                	li	a5,2
  20cbc6:	00f71863          	bne	a4,a5,20cbd6 <dev_irq_handler+0x15a>
  20cbca:	002107b7          	lui	a5,0x210
  20cbce:	14878793          	addi	a5,a5,328 # 210148 <g_nvmeTask>
  20cbd2:	470d                	li	a4,3
  20cbd4:	c398                	sw	a4,0(a5)
  20cbd6:	0001                	nop
  20cbd8:	6466                	ld	s0,88(sp)
  20cbda:	6746                	ld	a4,80(sp)
  20cbdc:	67a6                	ld	a5,72(sp)
  20cbde:	6125                	addi	sp,sp,96
  20cbe0:	30200073          	mret

000000000020cbe4 <check_nvme_cc_en>:
  20cbe4:	1101                	addi	sp,sp,-32
  20cbe6:	ec22                	sd	s0,24(sp)
  20cbe8:	1000                	addi	s0,sp,32
  20cbea:	20f00793          	li	a5,527
  20cbee:	07da                	slli	a5,a5,0x16
  20cbf0:	20078793          	addi	a5,a5,512
  20cbf4:	439c                	lw	a5,0(a5)
  20cbf6:	2781                	sext.w	a5,a5
  20cbf8:	fef42423          	sw	a5,-24(s0)
  20cbfc:	fe843783          	ld	a5,-24(s0)
  20cc00:	8b85                	andi	a5,a5,1
  20cc02:	0ff7f793          	andi	a5,a5,255
  20cc06:	2781                	sext.w	a5,a5
  20cc08:	853e                	mv	a0,a5
  20cc0a:	6462                	ld	s0,24(sp)
  20cc0c:	6105                	addi	sp,sp,32
  20cc0e:	8082                	ret

000000000020cc10 <pcie_async_reset>:
  20cc10:	7179                	addi	sp,sp,-48
  20cc12:	f422                	sd	s0,40(sp)
  20cc14:	1800                	addi	s0,sp,48
  20cc16:	87aa                	mv	a5,a0
  20cc18:	fcf42e23          	sw	a5,-36(s0)
  20cc1c:	fdc42783          	lw	a5,-36(s0)
  20cc20:	8bbd                	andi	a5,a5,15
  20cc22:	0ff7f793          	andi	a5,a5,255
  20cc26:	8bbd                	andi	a5,a5,15
  20cc28:	0077979b          	slliw	a5,a5,0x7
  20cc2c:	fe842703          	lw	a4,-24(s0)
  20cc30:	87f77713          	andi	a4,a4,-1921
  20cc34:	8fd9                	or	a5,a5,a4
  20cc36:	fef42423          	sw	a5,-24(s0)
  20cc3a:	20f00793          	li	a5,527
  20cc3e:	07da                	slli	a5,a5,0x16
  20cc40:	20078793          	addi	a5,a5,512
  20cc44:	fe842703          	lw	a4,-24(s0)
  20cc48:	c398                	sw	a4,0(a5)
  20cc4a:	0001                	nop
  20cc4c:	7422                	ld	s0,40(sp)
  20cc4e:	6145                	addi	sp,sp,48
  20cc50:	8082                	ret
  20cc52:	0001                	nop

000000000020cc54 <set_link_width>:
  20cc54:	7179                	addi	sp,sp,-48
  20cc56:	f422                	sd	s0,40(sp)
  20cc58:	1800                	addi	s0,sp,48
  20cc5a:	87aa                	mv	a5,a0
  20cc5c:	fcf42e23          	sw	a5,-36(s0)
  20cc60:	fdc42783          	lw	a5,-36(s0)
  20cc64:	8b8d                	andi	a5,a5,3
  20cc66:	0ff7f793          	andi	a5,a5,255
  20cc6a:	8b8d                	andi	a5,a5,3
  20cc6c:	00b7979b          	slliw	a5,a5,0xb
  20cc70:	fe842683          	lw	a3,-24(s0)
  20cc74:	7779                	lui	a4,0xffffe
  20cc76:	7ff70713          	addi	a4,a4,2047 # ffffffffffffe7ff <g_nvmeTask+0xffffffffffdee6b7>
  20cc7a:	8f75                	and	a4,a4,a3
  20cc7c:	8fd9                	or	a5,a5,a4
  20cc7e:	fef42423          	sw	a5,-24(s0)
  20cc82:	fe842703          	lw	a4,-24(s0)
  20cc86:	77e9                	lui	a5,0xffffa
  20cc88:	17fd                	addi	a5,a5,-1
  20cc8a:	8ff9                	and	a5,a5,a4
  20cc8c:	873e                	mv	a4,a5
  20cc8e:	6789                	lui	a5,0x2
  20cc90:	8fd9                	or	a5,a5,a4
  20cc92:	fef42423          	sw	a5,-24(s0)
  20cc96:	20f00793          	li	a5,527
  20cc9a:	07da                	slli	a5,a5,0x16
  20cc9c:	20078793          	addi	a5,a5,512 # 2200 <start-0x1fde00>
  20cca0:	fe842703          	lw	a4,-24(s0)
  20cca4:	c398                	sw	a4,0(a5)
  20cca6:	0001                	nop
  20cca8:	7422                	ld	s0,40(sp)
  20ccaa:	6145                	addi	sp,sp,48
  20ccac:	8082                	ret
  20ccae:	0001                	nop

000000000020ccb0 <set_nvme_csts_rdy>:
  20ccb0:	7179                	addi	sp,sp,-48
  20ccb2:	f422                	sd	s0,40(sp)
  20ccb4:	1800                	addi	s0,sp,48
  20ccb6:	87aa                	mv	a5,a0
  20ccb8:	fcf42e23          	sw	a5,-36(s0)
  20ccbc:	20f00793          	li	a5,527
  20ccc0:	07da                	slli	a5,a5,0x16
  20ccc2:	20078793          	addi	a5,a5,512
  20ccc6:	439c                	lw	a5,0(a5)
  20ccc8:	2781                	sext.w	a5,a5
  20ccca:	fef42423          	sw	a5,-24(s0)
  20ccce:	fdc42783          	lw	a5,-36(s0)
  20ccd2:	8b85                	andi	a5,a5,1
  20ccd4:	0ff7f793          	andi	a5,a5,255
  20ccd8:	8b85                	andi	a5,a5,1
  20ccda:	0047979b          	slliw	a5,a5,0x4
  20ccde:	fe842703          	lw	a4,-24(s0)
  20cce2:	9b3d                	andi	a4,a4,-17
  20cce4:	8fd9                	or	a5,a5,a4
  20cce6:	fef42423          	sw	a5,-24(s0)
  20ccea:	20f00793          	li	a5,527
  20ccee:	07da                	slli	a5,a5,0x16
  20ccf0:	20078793          	addi	a5,a5,512
  20ccf4:	fe842703          	lw	a4,-24(s0)
  20ccf8:	c398                	sw	a4,0(a5)
  20ccfa:	0001                	nop
  20ccfc:	7422                	ld	s0,40(sp)
  20ccfe:	6145                	addi	sp,sp,48
  20cd00:	8082                	ret
  20cd02:	0001                	nop

000000000020cd04 <set_nvme_csts_shst>:
  20cd04:	7179                	addi	sp,sp,-48
  20cd06:	f422                	sd	s0,40(sp)
  20cd08:	1800                	addi	s0,sp,48
  20cd0a:	87aa                	mv	a5,a0
  20cd0c:	fcf42e23          	sw	a5,-36(s0)
  20cd10:	20f00793          	li	a5,527
  20cd14:	07da                	slli	a5,a5,0x16
  20cd16:	20078793          	addi	a5,a5,512
  20cd1a:	439c                	lw	a5,0(a5)
  20cd1c:	2781                	sext.w	a5,a5
  20cd1e:	fef42423          	sw	a5,-24(s0)
  20cd22:	fdc42783          	lw	a5,-36(s0)
  20cd26:	8b8d                	andi	a5,a5,3
  20cd28:	0ff7f793          	andi	a5,a5,255
  20cd2c:	8b8d                	andi	a5,a5,3
  20cd2e:	0057979b          	slliw	a5,a5,0x5
  20cd32:	fe842703          	lw	a4,-24(s0)
  20cd36:	f9f77713          	andi	a4,a4,-97
  20cd3a:	8fd9                	or	a5,a5,a4
  20cd3c:	fef42423          	sw	a5,-24(s0)
  20cd40:	20f00793          	li	a5,527
  20cd44:	07da                	slli	a5,a5,0x16
  20cd46:	20078793          	addi	a5,a5,512
  20cd4a:	fe842703          	lw	a4,-24(s0)
  20cd4e:	c398                	sw	a4,0(a5)
  20cd50:	0001                	nop
  20cd52:	7422                	ld	s0,40(sp)
  20cd54:	6145                	addi	sp,sp,48
  20cd56:	8082                	ret

000000000020cd58 <set_nvme_admin_queue>:
  20cd58:	7179                	addi	sp,sp,-48
  20cd5a:	f422                	sd	s0,40(sp)
  20cd5c:	1800                	addi	s0,sp,48
  20cd5e:	87aa                	mv	a5,a0
  20cd60:	86ae                	mv	a3,a1
  20cd62:	8732                	mv	a4,a2
  20cd64:	fcf42e23          	sw	a5,-36(s0)
  20cd68:	87b6                	mv	a5,a3
  20cd6a:	fcf42c23          	sw	a5,-40(s0)
  20cd6e:	87ba                	mv	a5,a4
  20cd70:	fcf42a23          	sw	a5,-44(s0)
  20cd74:	20f00793          	li	a5,527
  20cd78:	07da                	slli	a5,a5,0x16
  20cd7a:	21c78793          	addi	a5,a5,540
  20cd7e:	439c                	lw	a5,0(a5)
  20cd80:	2781                	sext.w	a5,a5
  20cd82:	fef42423          	sw	a5,-24(s0)
  20cd86:	fdc42783          	lw	a5,-36(s0)
  20cd8a:	8b85                	andi	a5,a5,1
  20cd8c:	0ff7f793          	andi	a5,a5,255
  20cd90:	8b85                	andi	a5,a5,1
  20cd92:	0017979b          	slliw	a5,a5,0x1
  20cd96:	fe842703          	lw	a4,-24(s0)
  20cd9a:	9b75                	andi	a4,a4,-3
  20cd9c:	8fd9                	or	a5,a5,a4
  20cd9e:	fef42423          	sw	a5,-24(s0)
  20cda2:	fd842783          	lw	a5,-40(s0)
  20cda6:	8b85                	andi	a5,a5,1
  20cda8:	0ff7f793          	andi	a5,a5,255
  20cdac:	0017f693          	andi	a3,a5,1
  20cdb0:	fe842783          	lw	a5,-24(s0)
  20cdb4:	9bf9                	andi	a5,a5,-2
  20cdb6:	873e                	mv	a4,a5
  20cdb8:	87b6                	mv	a5,a3
  20cdba:	8fd9                	or	a5,a5,a4
  20cdbc:	fef42423          	sw	a5,-24(s0)
  20cdc0:	fd442783          	lw	a5,-44(s0)
  20cdc4:	8b85                	andi	a5,a5,1
  20cdc6:	0ff7f793          	andi	a5,a5,255
  20cdca:	8b85                	andi	a5,a5,1
  20cdcc:	0027979b          	slliw	a5,a5,0x2
  20cdd0:	fe842703          	lw	a4,-24(s0)
  20cdd4:	9b6d                	andi	a4,a4,-5
  20cdd6:	8fd9                	or	a5,a5,a4
  20cdd8:	fef42423          	sw	a5,-24(s0)
  20cddc:	20f00793          	li	a5,527
  20cde0:	07da                	slli	a5,a5,0x16
  20cde2:	21c78793          	addi	a5,a5,540
  20cde6:	fe842703          	lw	a4,-24(s0)
  20cdea:	c398                	sw	a4,0(a5)
  20cdec:	0001                	nop
  20cdee:	7422                	ld	s0,40(sp)
  20cdf0:	6145                	addi	sp,sp,48
  20cdf2:	8082                	ret

000000000020cdf4 <get_nvme_cmd>:
  20cdf4:	7139                	addi	sp,sp,-64
  20cdf6:	fc22                	sd	s0,56(sp)
  20cdf8:	0080                	addi	s0,sp,64
  20cdfa:	fca43c23          	sd	a0,-40(s0)
  20cdfe:	fcb43823          	sd	a1,-48(s0)
  20ce02:	fcc43423          	sd	a2,-56(s0)
  20ce06:	fcd43023          	sd	a3,-64(s0)
  20ce0a:	20f00793          	li	a5,527
  20ce0e:	07da                	slli	a5,a5,0x16
  20ce10:	30078793          	addi	a5,a5,768
  20ce14:	439c                	lw	a5,0(a5)
  20ce16:	2781                	sext.w	a5,a5
  20ce18:	fef42023          	sw	a5,-32(s0)
  20ce1c:	fe344783          	lbu	a5,-29(s0)
  20ce20:	f807f793          	andi	a5,a5,-128
  20ce24:	0ff7f793          	andi	a5,a5,255
  20ce28:	c7d5                	beqz	a5,20ced4 <get_nvme_cmd+0xe0>
  20ce2a:	fe043783          	ld	a5,-32(s0)
  20ce2e:	8bbd                	andi	a5,a5,15
  20ce30:	0ff7f793          	andi	a5,a5,255
  20ce34:	03079713          	slli	a4,a5,0x30
  20ce38:	9341                	srli	a4,a4,0x30
  20ce3a:	fd843783          	ld	a5,-40(s0)
  20ce3e:	00e79023          	sh	a4,0(a5)
  20ce42:	fe043783          	ld	a5,-32(s0)
  20ce46:	8395                	srli	a5,a5,0x5
  20ce48:	3ff7f793          	andi	a5,a5,1023
  20ce4c:	17c2                	slli	a5,a5,0x30
  20ce4e:	93c1                	srli	a5,a5,0x30
  20ce50:	873e                	mv	a4,a5
  20ce52:	fd043783          	ld	a5,-48(s0)
  20ce56:	00e79023          	sh	a4,0(a5)
  20ce5a:	fe244783          	lbu	a5,-30(s0)
  20ce5e:	0007871b          	sext.w	a4,a5
  20ce62:	fc843783          	ld	a5,-56(s0)
  20ce66:	c398                	sw	a4,0(a5)
  20ce68:	fe043783          	ld	a5,-32(s0)
  20ce6c:	8395                	srli	a5,a5,0x5
  20ce6e:	3ff7f793          	andi	a5,a5,1023
  20ce72:	17c2                	slli	a5,a5,0x30
  20ce74:	93c1                	srli	a5,a5,0x30
  20ce76:	2781                	sext.w	a5,a5
  20ce78:	0067979b          	slliw	a5,a5,0x6
  20ce7c:	2781                	sext.w	a5,a5
  20ce7e:	0007871b          	sext.w	a4,a5
  20ce82:	83c107b7          	lui	a5,0x83c10
  20ce86:	9fb9                	addw	a5,a5,a4
  20ce88:	fef42423          	sw	a5,-24(s0)
  20ce8c:	fe042623          	sw	zero,-20(s0)
  20ce90:	a81d                	j	20cec6 <get_nvme_cmd+0xd2>
  20ce92:	fec42783          	lw	a5,-20(s0)
  20ce96:	0027979b          	slliw	a5,a5,0x2
  20ce9a:	2781                	sext.w	a5,a5
  20ce9c:	fe842703          	lw	a4,-24(s0)
  20cea0:	9fb9                	addw	a5,a5,a4
  20cea2:	2781                	sext.w	a5,a5
  20cea4:	1782                	slli	a5,a5,0x20
  20cea6:	9381                	srli	a5,a5,0x20
  20cea8:	86be                	mv	a3,a5
  20ceaa:	fec46783          	lwu	a5,-20(s0)
  20ceae:	078a                	slli	a5,a5,0x2
  20ceb0:	fc043703          	ld	a4,-64(s0)
  20ceb4:	97ba                	add	a5,a5,a4
  20ceb6:	4298                	lw	a4,0(a3)
  20ceb8:	2701                	sext.w	a4,a4
  20ceba:	c398                	sw	a4,0(a5)
  20cebc:	fec42783          	lw	a5,-20(s0)
  20cec0:	2785                	addiw	a5,a5,1
  20cec2:	fef42623          	sw	a5,-20(s0)
  20cec6:	fec42783          	lw	a5,-20(s0)
  20ceca:	0007871b          	sext.w	a4,a5
  20cece:	47bd                	li	a5,15
  20ced0:	fce7f1e3          	bgeu	a5,a4,20ce92 <get_nvme_cmd+0x9e>
  20ced4:	fe043783          	ld	a5,-32(s0)
  20ced8:	83fd                	srli	a5,a5,0x1f
  20ceda:	8b85                	andi	a5,a5,1
  20cedc:	0ff7f793          	andi	a5,a5,255
  20cee0:	2781                	sext.w	a5,a5
  20cee2:	853e                	mv	a0,a5
  20cee4:	7462                	ld	s0,56(sp)
  20cee6:	6121                	addi	sp,sp,64
  20cee8:	8082                	ret
  20ceea:	0001                	nop

000000000020ceec <set_auto_nvme_cpl>:
  20ceec:	7179                	addi	sp,sp,-48
  20ceee:	f422                	sd	s0,40(sp)
  20cef0:	1800                	addi	s0,sp,48
  20cef2:	87aa                	mv	a5,a0
  20cef4:	86ae                	mv	a3,a1
  20cef6:	8732                	mv	a4,a2
  20cef8:	fcf42e23          	sw	a5,-36(s0)
  20cefc:	87b6                	mv	a5,a3
  20cefe:	fcf42c23          	sw	a5,-40(s0)
  20cf02:	87ba                	mv	a5,a4
  20cf04:	fcf42a23          	sw	a5,-44(s0)
  20cf08:	fd842783          	lw	a5,-40(s0)
  20cf0c:	fef42223          	sw	a5,-28(s0)
  20cf10:	fdc42783          	lw	a5,-36(s0)
  20cf14:	3ff7f793          	andi	a5,a5,1023
  20cf18:	17c2                	slli	a5,a5,0x30
  20cf1a:	93c1                	srli	a5,a5,0x30
  20cf1c:	3ff7f693          	andi	a3,a5,1023
  20cf20:	fe845783          	lhu	a5,-24(s0)
  20cf24:	c007f793          	andi	a5,a5,-1024
  20cf28:	873e                	mv	a4,a5
  20cf2a:	87b6                	mv	a5,a3
  20cf2c:	8fd9                	or	a5,a5,a4
  20cf2e:	fef41423          	sh	a5,-24(s0)
  20cf32:	fd442783          	lw	a5,-44(s0)
  20cf36:	17c2                	slli	a5,a5,0x30
  20cf38:	93c1                	srli	a5,a5,0x30
  20cf3a:	fef41523          	sh	a5,-22(s0)
  20cf3e:	fe845703          	lhu	a4,-24(s0)
  20cf42:	6791                	lui	a5,0x4
  20cf44:	17fd                	addi	a5,a5,-1
  20cf46:	8ff9                	and	a5,a5,a4
  20cf48:	873e                	mv	a4,a5
  20cf4a:	6791                	lui	a5,0x4
  20cf4c:	8fd9                	or	a5,a5,a4
  20cf4e:	fef41423          	sh	a5,-24(s0)
  20cf52:	20f00793          	li	a5,527
  20cf56:	07da                	slli	a5,a5,0x16
  20cf58:	30878793          	addi	a5,a5,776 # 4308 <start-0x1fbcf8>
  20cf5c:	fe442703          	lw	a4,-28(s0)
  20cf60:	c398                	sw	a4,0(a5)
  20cf62:	20f00793          	li	a5,527
  20cf66:	07da                	slli	a5,a5,0x16
  20cf68:	30c78793          	addi	a5,a5,780
  20cf6c:	fe842703          	lw	a4,-24(s0)
  20cf70:	c398                	sw	a4,0(a5)
  20cf72:	0001                	nop
  20cf74:	7422                	ld	s0,40(sp)
  20cf76:	6145                	addi	sp,sp,48
  20cf78:	8082                	ret
  20cf7a:	0001                	nop

000000000020cf7c <set_nvme_slot_release>:
  20cf7c:	7179                	addi	sp,sp,-48
  20cf7e:	f422                	sd	s0,40(sp)
  20cf80:	1800                	addi	s0,sp,48
  20cf82:	87aa                	mv	a5,a0
  20cf84:	fcf42e23          	sw	a5,-36(s0)
  20cf88:	fdc42783          	lw	a5,-36(s0)
  20cf8c:	3ff7f793          	andi	a5,a5,1023
  20cf90:	17c2                	slli	a5,a5,0x30
  20cf92:	93c1                	srli	a5,a5,0x30
  20cf94:	3ff7f693          	andi	a3,a5,1023
  20cf98:	fe845783          	lhu	a5,-24(s0)
  20cf9c:	c007f793          	andi	a5,a5,-1024
  20cfa0:	873e                	mv	a4,a5
  20cfa2:	87b6                	mv	a5,a3
  20cfa4:	8fd9                	or	a5,a5,a4
  20cfa6:	fef41423          	sh	a5,-24(s0)
  20cfaa:	fe845703          	lhu	a4,-24(s0)
  20cfae:	6791                	lui	a5,0x4
  20cfb0:	17fd                	addi	a5,a5,-1
  20cfb2:	8ff9                	and	a5,a5,a4
  20cfb4:	873e                	mv	a4,a5
  20cfb6:	77e1                	lui	a5,0xffff8
  20cfb8:	8fd9                	or	a5,a5,a4
  20cfba:	fef41423          	sh	a5,-24(s0)
  20cfbe:	20f00793          	li	a5,527
  20cfc2:	07da                	slli	a5,a5,0x16
  20cfc4:	30c78793          	addi	a5,a5,780 # ffffffffffff830c <g_nvmeTask+0xffffffffffde81c4>
  20cfc8:	fe842703          	lw	a4,-24(s0)
  20cfcc:	c398                	sw	a4,0(a5)
  20cfce:	0001                	nop
  20cfd0:	7422                	ld	s0,40(sp)
  20cfd2:	6145                	addi	sp,sp,48
  20cfd4:	8082                	ret
  20cfd6:	0001                	nop

000000000020cfd8 <set_nvme_cpl>:
  20cfd8:	7179                	addi	sp,sp,-48
  20cfda:	f422                	sd	s0,40(sp)
  20cfdc:	1800                	addi	s0,sp,48
  20cfde:	87aa                	mv	a5,a0
  20cfe0:	8736                	mv	a4,a3
  20cfe2:	fcf42e23          	sw	a5,-36(s0)
  20cfe6:	87ae                	mv	a5,a1
  20cfe8:	fcf42c23          	sw	a5,-40(s0)
  20cfec:	87b2                	mv	a5,a2
  20cfee:	fcf42a23          	sw	a5,-44(s0)
  20cff2:	87ba                	mv	a5,a4
  20cff4:	fcf42823          	sw	a5,-48(s0)
  20cff8:	fd842783          	lw	a5,-40(s0)
  20cffc:	17c2                	slli	a5,a5,0x30
  20cffe:	93c1                	srli	a5,a5,0x30
  20d000:	fef41023          	sh	a5,-32(s0)
  20d004:	fdc42783          	lw	a5,-36(s0)
  20d008:	8bbd                	andi	a5,a5,15
  20d00a:	0ff7f793          	andi	a5,a5,255
  20d00e:	8bbd                	andi	a5,a5,15
  20d010:	0107979b          	slliw	a5,a5,0x10
  20d014:	fe042683          	lw	a3,-32(s0)
  20d018:	fff10737          	lui	a4,0xfff10
  20d01c:	177d                	addi	a4,a4,-1
  20d01e:	8f75                	and	a4,a4,a3
  20d020:	8fd9                	or	a5,a5,a4
  20d022:	fef42023          	sw	a5,-32(s0)
  20d026:	fd442783          	lw	a5,-44(s0)
  20d02a:	fef42223          	sw	a5,-28(s0)
  20d02e:	fd042783          	lw	a5,-48(s0)
  20d032:	17c2                	slli	a5,a5,0x30
  20d034:	93c1                	srli	a5,a5,0x30
  20d036:	fef41523          	sh	a5,-22(s0)
  20d03a:	fe845703          	lhu	a4,-24(s0)
  20d03e:	6791                	lui	a5,0x4
  20d040:	17fd                	addi	a5,a5,-1
  20d042:	8ff9                	and	a5,a5,a4
  20d044:	fef41423          	sh	a5,-24(s0)
  20d048:	20f00793          	li	a5,527
  20d04c:	07da                	slli	a5,a5,0x16
  20d04e:	30478793          	addi	a5,a5,772 # 4304 <start-0x1fbcfc>
  20d052:	fe042703          	lw	a4,-32(s0)
  20d056:	c398                	sw	a4,0(a5)
  20d058:	20f00793          	li	a5,527
  20d05c:	07da                	slli	a5,a5,0x16
  20d05e:	30878793          	addi	a5,a5,776
  20d062:	fe442703          	lw	a4,-28(s0)
  20d066:	c398                	sw	a4,0(a5)
  20d068:	20f00793          	li	a5,527
  20d06c:	07da                	slli	a5,a5,0x16
  20d06e:	30c78793          	addi	a5,a5,780
  20d072:	fe842703          	lw	a4,-24(s0)
  20d076:	c398                	sw	a4,0(a5)
  20d078:	0001                	nop
  20d07a:	7422                	ld	s0,40(sp)
  20d07c:	6145                	addi	sp,sp,48
  20d07e:	8082                	ret

000000000020d080 <set_io_sq>:
  20d080:	7139                	addi	sp,sp,-64
  20d082:	fc22                	sd	s0,56(sp)
  20d084:	0080                	addi	s0,sp,64
  20d086:	882a                	mv	a6,a0
  20d088:	852e                	mv	a0,a1
  20d08a:	85b2                	mv	a1,a2
  20d08c:	8636                	mv	a2,a3
  20d08e:	86ba                	mv	a3,a4
  20d090:	873e                	mv	a4,a5
  20d092:	87c2                	mv	a5,a6
  20d094:	fcf42e23          	sw	a5,-36(s0)
  20d098:	87aa                	mv	a5,a0
  20d09a:	fcf42c23          	sw	a5,-40(s0)
  20d09e:	87ae                	mv	a5,a1
  20d0a0:	fcf42a23          	sw	a5,-44(s0)
  20d0a4:	87b2                	mv	a5,a2
  20d0a6:	fcf42823          	sw	a5,-48(s0)
  20d0aa:	87b6                	mv	a5,a3
  20d0ac:	fcf42623          	sw	a5,-52(s0)
  20d0b0:	87ba                	mv	a5,a4
  20d0b2:	fcf42423          	sw	a5,-56(s0)
  20d0b6:	fd842783          	lw	a5,-40(s0)
  20d0ba:	8b85                	andi	a5,a5,1
  20d0bc:	0ff7f793          	andi	a5,a5,255
  20d0c0:	8b85                	andi	a5,a5,1
  20d0c2:	0107979b          	slliw	a5,a5,0x10
  20d0c6:	fe442683          	lw	a3,-28(s0)
  20d0ca:	7741                	lui	a4,0xffff0
  20d0cc:	177d                	addi	a4,a4,-1
  20d0ce:	8f75                	and	a4,a4,a3
  20d0d0:	8fd9                	or	a5,a5,a4
  20d0d2:	fef42223          	sw	a5,-28(s0)
  20d0d6:	fd442783          	lw	a5,-44(s0)
  20d0da:	8bbd                	andi	a5,a5,15
  20d0dc:	0ff7f793          	andi	a5,a5,255
  20d0e0:	8bbd                	andi	a5,a5,15
  20d0e2:	0117979b          	slliw	a5,a5,0x11
  20d0e6:	fe442683          	lw	a3,-28(s0)
  20d0ea:	ffe20737          	lui	a4,0xffe20
  20d0ee:	177d                	addi	a4,a4,-1
  20d0f0:	8f75                	and	a4,a4,a3
  20d0f2:	8fd9                	or	a5,a5,a4
  20d0f4:	fef42223          	sw	a5,-28(s0)
  20d0f8:	fd042783          	lw	a5,-48(s0)
  20d0fc:	0ff7f793          	andi	a5,a5,255
  20d100:	fef403a3          	sb	a5,-25(s0)
  20d104:	fcc42783          	lw	a5,-52(s0)
  20d108:	fef42023          	sw	a5,-32(s0)
  20d10c:	fc842783          	lw	a5,-56(s0)
  20d110:	17c2                	slli	a5,a5,0x30
  20d112:	93c1                	srli	a5,a5,0x30
  20d114:	fef41223          	sh	a5,-28(s0)
  20d118:	fdc42703          	lw	a4,-36(s0)
  20d11c:	107807b7          	lui	a5,0x10780
  20d120:	0447879b          	addiw	a5,a5,68
  20d124:	9fb9                	addw	a5,a5,a4
  20d126:	2781                	sext.w	a5,a5
  20d128:	0037979b          	slliw	a5,a5,0x3
  20d12c:	fef42623          	sw	a5,-20(s0)
  20d130:	fec46783          	lwu	a5,-20(s0)
  20d134:	873e                	mv	a4,a5
  20d136:	fe042783          	lw	a5,-32(s0)
  20d13a:	c31c                	sw	a5,0(a4)
  20d13c:	fec42783          	lw	a5,-20(s0)
  20d140:	2791                	addiw	a5,a5,4
  20d142:	2781                	sext.w	a5,a5
  20d144:	1782                	slli	a5,a5,0x20
  20d146:	9381                	srli	a5,a5,0x20
  20d148:	873e                	mv	a4,a5
  20d14a:	fe442783          	lw	a5,-28(s0)
  20d14e:	c31c                	sw	a5,0(a4)
  20d150:	0001                	nop
  20d152:	7462                	ld	s0,56(sp)
  20d154:	6121                	addi	sp,sp,64
  20d156:	8082                	ret

000000000020d158 <set_io_cq>:
  20d158:	7139                	addi	sp,sp,-64
  20d15a:	fc22                	sd	s0,56(sp)
  20d15c:	0080                	addi	s0,sp,64
  20d15e:	832a                	mv	t1,a0
  20d160:	88ae                	mv	a7,a1
  20d162:	8532                	mv	a0,a2
  20d164:	85b6                	mv	a1,a3
  20d166:	863a                	mv	a2,a4
  20d168:	86be                	mv	a3,a5
  20d16a:	8742                	mv	a4,a6
  20d16c:	879a                	mv	a5,t1
  20d16e:	fcf42e23          	sw	a5,-36(s0)
  20d172:	87c6                	mv	a5,a7
  20d174:	fcf42c23          	sw	a5,-40(s0)
  20d178:	87aa                	mv	a5,a0
  20d17a:	fcf42a23          	sw	a5,-44(s0)
  20d17e:	87ae                	mv	a5,a1
  20d180:	fcf42823          	sw	a5,-48(s0)
  20d184:	87b2                	mv	a5,a2
  20d186:	fcf42623          	sw	a5,-52(s0)
  20d18a:	87b6                	mv	a5,a3
  20d18c:	fcf42423          	sw	a5,-56(s0)
  20d190:	87ba                	mv	a5,a4
  20d192:	fcf42223          	sw	a5,-60(s0)
  20d196:	fd842783          	lw	a5,-40(s0)
  20d19a:	8b85                	andi	a5,a5,1
  20d19c:	0ff7f793          	andi	a5,a5,255
  20d1a0:	8b85                	andi	a5,a5,1
  20d1a2:	0107979b          	slliw	a5,a5,0x10
  20d1a6:	fe442683          	lw	a3,-28(s0)
  20d1aa:	7741                	lui	a4,0xffff0
  20d1ac:	177d                	addi	a4,a4,-1
  20d1ae:	8f75                	and	a4,a4,a3
  20d1b0:	8fd9                	or	a5,a5,a4
  20d1b2:	fef42223          	sw	a5,-28(s0)
  20d1b6:	fd442783          	lw	a5,-44(s0)
  20d1ba:	8b85                	andi	a5,a5,1
  20d1bc:	0ff7f793          	andi	a5,a5,255
  20d1c0:	8b85                	andi	a5,a5,1
  20d1c2:	0147979b          	slliw	a5,a5,0x14
  20d1c6:	fe442683          	lw	a3,-28(s0)
  20d1ca:	fff00737          	lui	a4,0xfff00
  20d1ce:	177d                	addi	a4,a4,-1
  20d1d0:	8f75                	and	a4,a4,a3
  20d1d2:	8fd9                	or	a5,a5,a4
  20d1d4:	fef42223          	sw	a5,-28(s0)
  20d1d8:	fd042783          	lw	a5,-48(s0)
  20d1dc:	8b9d                	andi	a5,a5,7
  20d1de:	0ff7f793          	andi	a5,a5,255
  20d1e2:	8b9d                	andi	a5,a5,7
  20d1e4:	0117979b          	slliw	a5,a5,0x11
  20d1e8:	fe442683          	lw	a3,-28(s0)
  20d1ec:	fff20737          	lui	a4,0xfff20
  20d1f0:	177d                	addi	a4,a4,-1
  20d1f2:	8f75                	and	a4,a4,a3
  20d1f4:	8fd9                	or	a5,a5,a4
  20d1f6:	fef42223          	sw	a5,-28(s0)
  20d1fa:	fcc42783          	lw	a5,-52(s0)
  20d1fe:	0ff7f793          	andi	a5,a5,255
  20d202:	fef403a3          	sb	a5,-25(s0)
  20d206:	fc842783          	lw	a5,-56(s0)
  20d20a:	fef42023          	sw	a5,-32(s0)
  20d20e:	fc442783          	lw	a5,-60(s0)
  20d212:	17c2                	slli	a5,a5,0x30
  20d214:	93c1                	srli	a5,a5,0x30
  20d216:	fef41223          	sh	a5,-28(s0)
  20d21a:	fdc42703          	lw	a4,-36(s0)
  20d21e:	107807b7          	lui	a5,0x10780
  20d222:	04c7879b          	addiw	a5,a5,76
  20d226:	9fb9                	addw	a5,a5,a4
  20d228:	2781                	sext.w	a5,a5
  20d22a:	0037979b          	slliw	a5,a5,0x3
  20d22e:	fef42623          	sw	a5,-20(s0)
  20d232:	fec46783          	lwu	a5,-20(s0)
  20d236:	873e                	mv	a4,a5
  20d238:	fe042783          	lw	a5,-32(s0)
  20d23c:	c31c                	sw	a5,0(a4)
  20d23e:	fec42783          	lw	a5,-20(s0)
  20d242:	2791                	addiw	a5,a5,4
  20d244:	2781                	sext.w	a5,a5
  20d246:	1782                	slli	a5,a5,0x20
  20d248:	9381                	srli	a5,a5,0x20
  20d24a:	873e                	mv	a4,a5
  20d24c:	fe442783          	lw	a5,-28(s0)
  20d250:	c31c                	sw	a5,0(a4)
  20d252:	0001                	nop
  20d254:	7462                	ld	s0,56(sp)
  20d256:	6121                	addi	sp,sp,64
  20d258:	8082                	ret
  20d25a:	0001                	nop

000000000020d25c <set_direct_tx_dma>:
  20d25c:	7139                	addi	sp,sp,-64
  20d25e:	fc06                	sd	ra,56(sp)
  20d260:	f822                	sd	s0,48(sp)
  20d262:	0080                	addi	s0,sp,64
  20d264:	87aa                	mv	a5,a0
  20d266:	8736                	mv	a4,a3
  20d268:	fcf42623          	sw	a5,-52(s0)
  20d26c:	87ae                	mv	a5,a1
  20d26e:	fcf42423          	sw	a5,-56(s0)
  20d272:	87b2                	mv	a5,a2
  20d274:	fcf42223          	sw	a5,-60(s0)
  20d278:	87ba                	mv	a5,a4
  20d27a:	fcf42023          	sw	a5,-64(s0)
  20d27e:	fc042783          	lw	a5,-64(s0)
  20d282:	0007871b          	sext.w	a4,a5
  20d286:	6785                	lui	a5,0x1
  20d288:	00e7e763          	bltu	a5,a4,20d296 <set_direct_tx_dma+0x3a>
  20d28c:	fc442783          	lw	a5,-60(s0)
  20d290:	8b8d                	andi	a5,a5,3
  20d292:	2781                	sext.w	a5,a5
  20d294:	cb81                	beqz	a5,20d2a4 <set_direct_tx_dma+0x48>
  20d296:	0020f7b7          	lui	a5,0x20f
  20d29a:	6f878513          	addi	a0,a5,1784 # 20f6f8 <nvme_main+0xd80>
  20d29e:	b7af70ef          	jal	ra,204618 <cpl_print>
  20d2a2:	a001                	j	20d2a2 <set_direct_tx_dma+0x46>
  20d2a4:	fcc42783          	lw	a5,-52(s0)
  20d2a8:	fcf42c23          	sw	a5,-40(s0)
  20d2ac:	fc442783          	lw	a5,-60(s0)
  20d2b0:	fef42023          	sw	a5,-32(s0)
  20d2b4:	fc842783          	lw	a5,-56(s0)
  20d2b8:	fcf42e23          	sw	a5,-36(s0)
  20d2bc:	fe042223          	sw	zero,-28(s0)
  20d2c0:	fe442703          	lw	a4,-28(s0)
  20d2c4:	800007b7          	lui	a5,0x80000
  20d2c8:	8fd9                	or	a5,a5,a4
  20d2ca:	fef42223          	sw	a5,-28(s0)
  20d2ce:	fe442703          	lw	a4,-28(s0)
  20d2d2:	400007b7          	lui	a5,0x40000
  20d2d6:	8fd9                	or	a5,a5,a4
  20d2d8:	fef42223          	sw	a5,-28(s0)
  20d2dc:	fc042783          	lw	a5,-64(s0)
  20d2e0:	873e                	mv	a4,a5
  20d2e2:	6789                	lui	a5,0x2
  20d2e4:	17fd                	addi	a5,a5,-1
  20d2e6:	8ff9                	and	a5,a5,a4
  20d2e8:	17c2                	slli	a5,a5,0x30
  20d2ea:	93c1                	srli	a5,a5,0x30
  20d2ec:	873e                	mv	a4,a5
  20d2ee:	6789                	lui	a5,0x2
  20d2f0:	17fd                	addi	a5,a5,-1
  20d2f2:	00f776b3          	and	a3,a4,a5
  20d2f6:	fe442703          	lw	a4,-28(s0)
  20d2fa:	77f9                	lui	a5,0xffffe
  20d2fc:	8ff9                	and	a5,a5,a4
  20d2fe:	873e                	mv	a4,a5
  20d300:	87b6                	mv	a5,a3
  20d302:	8fd9                	or	a5,a5,a4
  20d304:	fef42223          	sw	a5,-28(s0)
  20d308:	20f00793          	li	a5,527
  20d30c:	07da                	slli	a5,a5,0x16
  20d30e:	31078793          	addi	a5,a5,784 # ffffffffffffe310 <g_nvmeTask+0xffffffffffdee1c8>
  20d312:	fd842703          	lw	a4,-40(s0)
  20d316:	c398                	sw	a4,0(a5)
  20d318:	20f00793          	li	a5,527
  20d31c:	07da                	slli	a5,a5,0x16
  20d31e:	31478793          	addi	a5,a5,788
  20d322:	fdc42703          	lw	a4,-36(s0)
  20d326:	c398                	sw	a4,0(a5)
  20d328:	20f00793          	li	a5,527
  20d32c:	07da                	slli	a5,a5,0x16
  20d32e:	31878793          	addi	a5,a5,792
  20d332:	fe042703          	lw	a4,-32(s0)
  20d336:	c398                	sw	a4,0(a5)
  20d338:	20f00793          	li	a5,527
  20d33c:	07da                	slli	a5,a5,0x16
  20d33e:	31c78793          	addi	a5,a5,796
  20d342:	fe442703          	lw	a4,-28(s0)
  20d346:	c398                	sw	a4,0(a5)
  20d348:	20f00793          	li	a5,527
  20d34c:	07da                	slli	a5,a5,0x16
  20d34e:	32078793          	addi	a5,a5,800
  20d352:	fe842703          	lw	a4,-24(s0)
  20d356:	c398                	sw	a4,0(a5)
  20d358:	002107b7          	lui	a5,0x210
  20d35c:	12878793          	addi	a5,a5,296 # 210128 <g_hostDmaStatus>
  20d360:	0057c783          	lbu	a5,5(a5)
  20d364:	2785                	addiw	a5,a5,1
  20d366:	0ff7f713          	andi	a4,a5,255
  20d36a:	002107b7          	lui	a5,0x210
  20d36e:	12878793          	addi	a5,a5,296 # 210128 <g_hostDmaStatus>
  20d372:	00e782a3          	sb	a4,5(a5)
  20d376:	002107b7          	lui	a5,0x210
  20d37a:	12878793          	addi	a5,a5,296 # 210128 <g_hostDmaStatus>
  20d37e:	479c                	lw	a5,8(a5)
  20d380:	2785                	addiw	a5,a5,1
  20d382:	0007871b          	sext.w	a4,a5
  20d386:	002107b7          	lui	a5,0x210
  20d38a:	12878793          	addi	a5,a5,296 # 210128 <g_hostDmaStatus>
  20d38e:	c798                	sw	a4,8(a5)
  20d390:	0001                	nop
  20d392:	70e2                	ld	ra,56(sp)
  20d394:	7442                	ld	s0,48(sp)
  20d396:	6121                	addi	sp,sp,64
  20d398:	8082                	ret
  20d39a:	0001                	nop

000000000020d39c <set_direct_rx_dma>:
  20d39c:	7139                	addi	sp,sp,-64
  20d39e:	fc06                	sd	ra,56(sp)
  20d3a0:	f822                	sd	s0,48(sp)
  20d3a2:	0080                	addi	s0,sp,64
  20d3a4:	87aa                	mv	a5,a0
  20d3a6:	8736                	mv	a4,a3
  20d3a8:	fcf42623          	sw	a5,-52(s0)
  20d3ac:	87ae                	mv	a5,a1
  20d3ae:	fcf42423          	sw	a5,-56(s0)
  20d3b2:	87b2                	mv	a5,a2
  20d3b4:	fcf42223          	sw	a5,-60(s0)
  20d3b8:	87ba                	mv	a5,a4
  20d3ba:	fcf42023          	sw	a5,-64(s0)
  20d3be:	fc042783          	lw	a5,-64(s0)
  20d3c2:	0007871b          	sext.w	a4,a5
  20d3c6:	6785                	lui	a5,0x1
  20d3c8:	00e7e763          	bltu	a5,a4,20d3d6 <set_direct_rx_dma+0x3a>
  20d3cc:	fc442783          	lw	a5,-60(s0)
  20d3d0:	8b8d                	andi	a5,a5,3
  20d3d2:	2781                	sext.w	a5,a5
  20d3d4:	cb81                	beqz	a5,20d3e4 <set_direct_rx_dma+0x48>
  20d3d6:	0020f7b7          	lui	a5,0x20f
  20d3da:	71878513          	addi	a0,a5,1816 # 20f718 <nvme_main+0xda0>
  20d3de:	a3af70ef          	jal	ra,204618 <cpl_print>
  20d3e2:	a001                	j	20d3e2 <set_direct_rx_dma+0x46>
  20d3e4:	fcc42783          	lw	a5,-52(s0)
  20d3e8:	fcf42c23          	sw	a5,-40(s0)
  20d3ec:	fc842783          	lw	a5,-56(s0)
  20d3f0:	fcf42e23          	sw	a5,-36(s0)
  20d3f4:	fc442783          	lw	a5,-60(s0)
  20d3f8:	fef42023          	sw	a5,-32(s0)
  20d3fc:	fe042223          	sw	zero,-28(s0)
  20d400:	fe442703          	lw	a4,-28(s0)
  20d404:	800007b7          	lui	a5,0x80000
  20d408:	8fd9                	or	a5,a5,a4
  20d40a:	fef42223          	sw	a5,-28(s0)
  20d40e:	fe442703          	lw	a4,-28(s0)
  20d412:	c00007b7          	lui	a5,0xc0000
  20d416:	17fd                	addi	a5,a5,-1
  20d418:	8ff9                	and	a5,a5,a4
  20d41a:	fef42223          	sw	a5,-28(s0)
  20d41e:	fc042783          	lw	a5,-64(s0)
  20d422:	873e                	mv	a4,a5
  20d424:	6789                	lui	a5,0x2
  20d426:	17fd                	addi	a5,a5,-1
  20d428:	8ff9                	and	a5,a5,a4
  20d42a:	17c2                	slli	a5,a5,0x30
  20d42c:	93c1                	srli	a5,a5,0x30
  20d42e:	873e                	mv	a4,a5
  20d430:	6789                	lui	a5,0x2
  20d432:	17fd                	addi	a5,a5,-1
  20d434:	00f776b3          	and	a3,a4,a5
  20d438:	fe442703          	lw	a4,-28(s0)
  20d43c:	77f9                	lui	a5,0xffffe
  20d43e:	8ff9                	and	a5,a5,a4
  20d440:	873e                	mv	a4,a5
  20d442:	87b6                	mv	a5,a3
  20d444:	8fd9                	or	a5,a5,a4
  20d446:	fef42223          	sw	a5,-28(s0)
  20d44a:	20f00793          	li	a5,527
  20d44e:	07da                	slli	a5,a5,0x16
  20d450:	31078793          	addi	a5,a5,784 # ffffffffffffe310 <g_nvmeTask+0xffffffffffdee1c8>
  20d454:	fd842703          	lw	a4,-40(s0)
  20d458:	c398                	sw	a4,0(a5)
  20d45a:	20f00793          	li	a5,527
  20d45e:	07da                	slli	a5,a5,0x16
  20d460:	31478793          	addi	a5,a5,788
  20d464:	fdc42703          	lw	a4,-36(s0)
  20d468:	c398                	sw	a4,0(a5)
  20d46a:	20f00793          	li	a5,527
  20d46e:	07da                	slli	a5,a5,0x16
  20d470:	31878793          	addi	a5,a5,792
  20d474:	fe042703          	lw	a4,-32(s0)
  20d478:	c398                	sw	a4,0(a5)
  20d47a:	20f00793          	li	a5,527
  20d47e:	07da                	slli	a5,a5,0x16
  20d480:	31c78793          	addi	a5,a5,796
  20d484:	fe442703          	lw	a4,-28(s0)
  20d488:	c398                	sw	a4,0(a5)
  20d48a:	20f00793          	li	a5,527
  20d48e:	07da                	slli	a5,a5,0x16
  20d490:	32078793          	addi	a5,a5,800
  20d494:	fe842703          	lw	a4,-24(s0)
  20d498:	c398                	sw	a4,0(a5)
  20d49a:	002107b7          	lui	a5,0x210
  20d49e:	12878793          	addi	a5,a5,296 # 210128 <g_hostDmaStatus>
  20d4a2:	0047c783          	lbu	a5,4(a5)
  20d4a6:	2785                	addiw	a5,a5,1
  20d4a8:	0ff7f713          	andi	a4,a5,255
  20d4ac:	002107b7          	lui	a5,0x210
  20d4b0:	12878793          	addi	a5,a5,296 # 210128 <g_hostDmaStatus>
  20d4b4:	00e78223          	sb	a4,4(a5)
  20d4b8:	002107b7          	lui	a5,0x210
  20d4bc:	12878793          	addi	a5,a5,296 # 210128 <g_hostDmaStatus>
  20d4c0:	47dc                	lw	a5,12(a5)
  20d4c2:	2785                	addiw	a5,a5,1
  20d4c4:	0007871b          	sext.w	a4,a5
  20d4c8:	002107b7          	lui	a5,0x210
  20d4cc:	12878793          	addi	a5,a5,296 # 210128 <g_hostDmaStatus>
  20d4d0:	c7d8                	sw	a4,12(a5)
  20d4d2:	0001                	nop
  20d4d4:	70e2                	ld	ra,56(sp)
  20d4d6:	7442                	ld	s0,48(sp)
  20d4d8:	6121                	addi	sp,sp,64
  20d4da:	8082                	ret

000000000020d4dc <set_auto_tx_dma>:
  20d4dc:	7139                	addi	sp,sp,-64
  20d4de:	fc06                	sd	ra,56(sp)
  20d4e0:	f822                	sd	s0,48(sp)
  20d4e2:	0080                	addi	s0,sp,64
  20d4e4:	87aa                	mv	a5,a0
  20d4e6:	8736                	mv	a4,a3
  20d4e8:	fcf42623          	sw	a5,-52(s0)
  20d4ec:	87ae                	mv	a5,a1
  20d4ee:	fcf42423          	sw	a5,-56(s0)
  20d4f2:	87b2                	mv	a5,a2
  20d4f4:	fcf42223          	sw	a5,-60(s0)
  20d4f8:	87ba                	mv	a5,a4
  20d4fa:	fcf42023          	sw	a5,-64(s0)
  20d4fe:	fc842783          	lw	a5,-56(s0)
  20d502:	0007871b          	sext.w	a4,a5
  20d506:	0ff00793          	li	a5,255
  20d50a:	00e7f963          	bgeu	a5,a4,20d51c <set_auto_tx_dma+0x40>
  20d50e:	0020f7b7          	lui	a5,0x20f
  20d512:	73878513          	addi	a0,a5,1848 # 20f738 <nvme_main+0xdc0>
  20d516:	902f70ef          	jal	ra,204618 <cpl_print>
  20d51a:	a001                	j	20d51a <set_auto_tx_dma+0x3e>
  20d51c:	20f00793          	li	a5,527
  20d520:	07da                	slli	a5,a5,0x16
  20d522:	20478793          	addi	a5,a5,516
  20d526:	439c                	lw	a5,0(a5)
  20d528:	0007871b          	sext.w	a4,a5
  20d52c:	002107b7          	lui	a5,0x210
  20d530:	12878793          	addi	a5,a5,296 # 210128 <g_hostDmaStatus>
  20d534:	c398                	sw	a4,0(a5)
  20d536:	a831                	j	20d552 <set_auto_tx_dma+0x76>
  20d538:	20f00793          	li	a5,527
  20d53c:	07da                	slli	a5,a5,0x16
  20d53e:	20478793          	addi	a5,a5,516
  20d542:	439c                	lw	a5,0(a5)
  20d544:	0007871b          	sext.w	a4,a5
  20d548:	002107b7          	lui	a5,0x210
  20d54c:	12878793          	addi	a5,a5,296 # 210128 <g_hostDmaStatus>
  20d550:	c398                	sw	a4,0(a5)
  20d552:	002107b7          	lui	a5,0x210
  20d556:	12878793          	addi	a5,a5,296 # 210128 <g_hostDmaStatus>
  20d55a:	0077c783          	lbu	a5,7(a5)
  20d55e:	2781                	sext.w	a5,a5
  20d560:	2785                	addiw	a5,a5,1
  20d562:	2781                	sext.w	a5,a5
  20d564:	873e                	mv	a4,a5
  20d566:	41f7579b          	sraiw	a5,a4,0x1f
  20d56a:	0187d79b          	srliw	a5,a5,0x18
  20d56e:	9f3d                	addw	a4,a4,a5
  20d570:	0ff77713          	andi	a4,a4,255
  20d574:	40f707bb          	subw	a5,a4,a5
  20d578:	0007871b          	sext.w	a4,a5
  20d57c:	002107b7          	lui	a5,0x210
  20d580:	12878793          	addi	a5,a5,296 # 210128 <g_hostDmaStatus>
  20d584:	0037c783          	lbu	a5,3(a5)
  20d588:	2781                	sext.w	a5,a5
  20d58a:	faf707e3          	beq	a4,a5,20d538 <set_auto_tx_dma+0x5c>
  20d58e:	fc442783          	lw	a5,-60(s0)
  20d592:	fcf42c23          	sw	a5,-40(s0)
  20d596:	fe042223          	sw	zero,-28(s0)
  20d59a:	fe442703          	lw	a4,-28(s0)
  20d59e:	800007b7          	lui	a5,0x80000
  20d5a2:	fff7c793          	not	a5,a5
  20d5a6:	8ff9                	and	a5,a5,a4
  20d5a8:	fef42223          	sw	a5,-28(s0)
  20d5ac:	fe442703          	lw	a4,-28(s0)
  20d5b0:	400007b7          	lui	a5,0x40000
  20d5b4:	8fd9                	or	a5,a5,a4
  20d5b6:	fef42223          	sw	a5,-28(s0)
  20d5ba:	fc842783          	lw	a5,-56(s0)
  20d5be:	1ff7f793          	andi	a5,a5,511
  20d5c2:	17c2                	slli	a5,a5,0x30
  20d5c4:	93c1                	srli	a5,a5,0x30
  20d5c6:	1ff7f793          	andi	a5,a5,511
  20d5ca:	00e7979b          	slliw	a5,a5,0xe
  20d5ce:	fe442683          	lw	a3,-28(s0)
  20d5d2:	ff804737          	lui	a4,0xff804
  20d5d6:	177d                	addi	a4,a4,-1
  20d5d8:	8f75                	and	a4,a4,a3
  20d5da:	8fd9                	or	a5,a5,a4
  20d5dc:	fef42223          	sw	a5,-28(s0)
  20d5e0:	fcc42783          	lw	a5,-52(s0)
  20d5e4:	fef42423          	sw	a5,-24(s0)
  20d5e8:	fc042783          	lw	a5,-64(s0)
  20d5ec:	8b85                	andi	a5,a5,1
  20d5ee:	0ff7f793          	andi	a5,a5,255
  20d5f2:	8b85                	andi	a5,a5,1
  20d5f4:	00d7979b          	slliw	a5,a5,0xd
  20d5f8:	fe442683          	lw	a3,-28(s0)
  20d5fc:	7779                	lui	a4,0xffffe
  20d5fe:	177d                	addi	a4,a4,-1
  20d600:	8f75                	and	a4,a4,a3
  20d602:	8fd9                	or	a5,a5,a4
  20d604:	fef42223          	sw	a5,-28(s0)
  20d608:	20f00793          	li	a5,527
  20d60c:	07da                	slli	a5,a5,0x16
  20d60e:	31078793          	addi	a5,a5,784 # 40000310 <g_nvmeTask+0x3fdf01c8>
  20d612:	fd842703          	lw	a4,-40(s0)
  20d616:	c398                	sw	a4,0(a5)
  20d618:	20f00793          	li	a5,527
  20d61c:	07da                	slli	a5,a5,0x16
  20d61e:	31c78793          	addi	a5,a5,796
  20d622:	fe442703          	lw	a4,-28(s0)
  20d626:	c398                	sw	a4,0(a5)
  20d628:	20f00793          	li	a5,527
  20d62c:	07da                	slli	a5,a5,0x16
  20d62e:	32078793          	addi	a5,a5,800
  20d632:	fe842703          	lw	a4,-24(s0)
  20d636:	c398                	sw	a4,0(a5)
  20d638:	002107b7          	lui	a5,0x210
  20d63c:	12878793          	addi	a5,a5,296 # 210128 <g_hostDmaStatus>
  20d640:	0077c783          	lbu	a5,7(a5)
  20d644:	0017871b          	addiw	a4,a5,1
  20d648:	0ff77693          	andi	a3,a4,255
  20d64c:	00210737          	lui	a4,0x210
  20d650:	12870713          	addi	a4,a4,296 # 210128 <g_hostDmaStatus>
  20d654:	00d703a3          	sb	a3,7(a4)
  20d658:	fef407a3          	sb	a5,-17(s0)
  20d65c:	002107b7          	lui	a5,0x210
  20d660:	12878793          	addi	a5,a5,296 # 210128 <g_hostDmaStatus>
  20d664:	0077c703          	lbu	a4,7(a5)
  20d668:	fef44783          	lbu	a5,-17(s0)
  20d66c:	0ff7f793          	andi	a5,a5,255
  20d670:	00f77d63          	bgeu	a4,a5,20d68a <set_auto_tx_dma+0x1ae>
  20d674:	002107b7          	lui	a5,0x210
  20d678:	1207a783          	lw	a5,288(a5) # 210120 <g_hostDmaAssistStatus>
  20d67c:	2785                	addiw	a5,a5,1
  20d67e:	0007871b          	sext.w	a4,a5
  20d682:	002107b7          	lui	a5,0x210
  20d686:	12e7a023          	sw	a4,288(a5) # 210120 <g_hostDmaAssistStatus>
  20d68a:	002107b7          	lui	a5,0x210
  20d68e:	12878793          	addi	a5,a5,296 # 210128 <g_hostDmaStatus>
  20d692:	4b9c                	lw	a5,16(a5)
  20d694:	2785                	addiw	a5,a5,1
  20d696:	0007871b          	sext.w	a4,a5
  20d69a:	002107b7          	lui	a5,0x210
  20d69e:	12878793          	addi	a5,a5,296 # 210128 <g_hostDmaStatus>
  20d6a2:	cb98                	sw	a4,16(a5)
  20d6a4:	0001                	nop
  20d6a6:	70e2                	ld	ra,56(sp)
  20d6a8:	7442                	ld	s0,48(sp)
  20d6aa:	6121                	addi	sp,sp,64
  20d6ac:	8082                	ret
  20d6ae:	0001                	nop

000000000020d6b0 <set_auto_rx_dma>:
  20d6b0:	7139                	addi	sp,sp,-64
  20d6b2:	fc22                	sd	s0,56(sp)
  20d6b4:	0080                	addi	s0,sp,64
  20d6b6:	87aa                	mv	a5,a0
  20d6b8:	8736                	mv	a4,a3
  20d6ba:	fcf42623          	sw	a5,-52(s0)
  20d6be:	87ae                	mv	a5,a1
  20d6c0:	fcf42423          	sw	a5,-56(s0)
  20d6c4:	87b2                	mv	a5,a2
  20d6c6:	fcf42223          	sw	a5,-60(s0)
  20d6ca:	87ba                	mv	a5,a4
  20d6cc:	fcf42023          	sw	a5,-64(s0)
  20d6d0:	20f00793          	li	a5,527
  20d6d4:	07da                	slli	a5,a5,0x16
  20d6d6:	20478793          	addi	a5,a5,516
  20d6da:	439c                	lw	a5,0(a5)
  20d6dc:	0007871b          	sext.w	a4,a5
  20d6e0:	002107b7          	lui	a5,0x210
  20d6e4:	12878793          	addi	a5,a5,296 # 210128 <g_hostDmaStatus>
  20d6e8:	c398                	sw	a4,0(a5)
  20d6ea:	a831                	j	20d706 <set_auto_rx_dma+0x56>
  20d6ec:	20f00793          	li	a5,527
  20d6f0:	07da                	slli	a5,a5,0x16
  20d6f2:	20478793          	addi	a5,a5,516
  20d6f6:	439c                	lw	a5,0(a5)
  20d6f8:	0007871b          	sext.w	a4,a5
  20d6fc:	002107b7          	lui	a5,0x210
  20d700:	12878793          	addi	a5,a5,296 # 210128 <g_hostDmaStatus>
  20d704:	c398                	sw	a4,0(a5)
  20d706:	002107b7          	lui	a5,0x210
  20d70a:	12878793          	addi	a5,a5,296 # 210128 <g_hostDmaStatus>
  20d70e:	0067c783          	lbu	a5,6(a5)
  20d712:	2781                	sext.w	a5,a5
  20d714:	2785                	addiw	a5,a5,1
  20d716:	2781                	sext.w	a5,a5
  20d718:	873e                	mv	a4,a5
  20d71a:	41f7579b          	sraiw	a5,a4,0x1f
  20d71e:	0187d79b          	srliw	a5,a5,0x18
  20d722:	9f3d                	addw	a4,a4,a5
  20d724:	0ff77713          	andi	a4,a4,255
  20d728:	40f707bb          	subw	a5,a4,a5
  20d72c:	0007871b          	sext.w	a4,a5
  20d730:	002107b7          	lui	a5,0x210
  20d734:	12878793          	addi	a5,a5,296 # 210128 <g_hostDmaStatus>
  20d738:	0027c783          	lbu	a5,2(a5)
  20d73c:	2781                	sext.w	a5,a5
  20d73e:	faf707e3          	beq	a4,a5,20d6ec <set_auto_rx_dma+0x3c>
  20d742:	fc442783          	lw	a5,-60(s0)
  20d746:	fcf42c23          	sw	a5,-40(s0)
  20d74a:	fe042223          	sw	zero,-28(s0)
  20d74e:	fe442703          	lw	a4,-28(s0)
  20d752:	800007b7          	lui	a5,0x80000
  20d756:	fff7c793          	not	a5,a5
  20d75a:	8ff9                	and	a5,a5,a4
  20d75c:	fef42223          	sw	a5,-28(s0)
  20d760:	fe442703          	lw	a4,-28(s0)
  20d764:	c00007b7          	lui	a5,0xc0000
  20d768:	17fd                	addi	a5,a5,-1
  20d76a:	8ff9                	and	a5,a5,a4
  20d76c:	fef42223          	sw	a5,-28(s0)
  20d770:	fc842783          	lw	a5,-56(s0)
  20d774:	1ff7f793          	andi	a5,a5,511
  20d778:	17c2                	slli	a5,a5,0x30
  20d77a:	93c1                	srli	a5,a5,0x30
  20d77c:	1ff7f793          	andi	a5,a5,511
  20d780:	00e7979b          	slliw	a5,a5,0xe
  20d784:	fe442683          	lw	a3,-28(s0)
  20d788:	ff804737          	lui	a4,0xff804
  20d78c:	177d                	addi	a4,a4,-1
  20d78e:	8f75                	and	a4,a4,a3
  20d790:	8fd9                	or	a5,a5,a4
  20d792:	fef42223          	sw	a5,-28(s0)
  20d796:	fcc42783          	lw	a5,-52(s0)
  20d79a:	fef42423          	sw	a5,-24(s0)
  20d79e:	fc042783          	lw	a5,-64(s0)
  20d7a2:	8b85                	andi	a5,a5,1
  20d7a4:	0ff7f793          	andi	a5,a5,255
  20d7a8:	8b85                	andi	a5,a5,1
  20d7aa:	00d7979b          	slliw	a5,a5,0xd
  20d7ae:	fe442683          	lw	a3,-28(s0)
  20d7b2:	7779                	lui	a4,0xffffe
  20d7b4:	177d                	addi	a4,a4,-1
  20d7b6:	8f75                	and	a4,a4,a3
  20d7b8:	8fd9                	or	a5,a5,a4
  20d7ba:	fef42223          	sw	a5,-28(s0)
  20d7be:	20f00793          	li	a5,527
  20d7c2:	07da                	slli	a5,a5,0x16
  20d7c4:	31078793          	addi	a5,a5,784 # ffffffffc0000310 <g_nvmeTask+0xffffffffbfdf01c8>
  20d7c8:	fd842703          	lw	a4,-40(s0)
  20d7cc:	c398                	sw	a4,0(a5)
  20d7ce:	20f00793          	li	a5,527
  20d7d2:	07da                	slli	a5,a5,0x16
  20d7d4:	31c78793          	addi	a5,a5,796
  20d7d8:	fe442703          	lw	a4,-28(s0)
  20d7dc:	c398                	sw	a4,0(a5)
  20d7de:	20f00793          	li	a5,527
  20d7e2:	07da                	slli	a5,a5,0x16
  20d7e4:	32078793          	addi	a5,a5,800
  20d7e8:	fe842703          	lw	a4,-24(s0)
  20d7ec:	c398                	sw	a4,0(a5)
  20d7ee:	002107b7          	lui	a5,0x210
  20d7f2:	12878793          	addi	a5,a5,296 # 210128 <g_hostDmaStatus>
  20d7f6:	0067c783          	lbu	a5,6(a5)
  20d7fa:	0017871b          	addiw	a4,a5,1
  20d7fe:	0ff77693          	andi	a3,a4,255
  20d802:	00210737          	lui	a4,0x210
  20d806:	12870713          	addi	a4,a4,296 # 210128 <g_hostDmaStatus>
  20d80a:	00d70323          	sb	a3,6(a4)
  20d80e:	fef407a3          	sb	a5,-17(s0)
  20d812:	002107b7          	lui	a5,0x210
  20d816:	12878793          	addi	a5,a5,296 # 210128 <g_hostDmaStatus>
  20d81a:	0067c703          	lbu	a4,6(a5)
  20d81e:	fef44783          	lbu	a5,-17(s0)
  20d822:	0ff7f793          	andi	a5,a5,255
  20d826:	00f77f63          	bgeu	a4,a5,20d844 <set_auto_rx_dma+0x194>
  20d82a:	002107b7          	lui	a5,0x210
  20d82e:	12078793          	addi	a5,a5,288 # 210120 <g_hostDmaAssistStatus>
  20d832:	43dc                	lw	a5,4(a5)
  20d834:	2785                	addiw	a5,a5,1
  20d836:	0007871b          	sext.w	a4,a5
  20d83a:	002107b7          	lui	a5,0x210
  20d83e:	12078793          	addi	a5,a5,288 # 210120 <g_hostDmaAssistStatus>
  20d842:	c3d8                	sw	a4,4(a5)
  20d844:	002107b7          	lui	a5,0x210
  20d848:	12878793          	addi	a5,a5,296 # 210128 <g_hostDmaStatus>
  20d84c:	4bdc                	lw	a5,20(a5)
  20d84e:	2785                	addiw	a5,a5,1
  20d850:	0007871b          	sext.w	a4,a5
  20d854:	002107b7          	lui	a5,0x210
  20d858:	12878793          	addi	a5,a5,296 # 210128 <g_hostDmaStatus>
  20d85c:	cbd8                	sw	a4,20(a5)
  20d85e:	0001                	nop
  20d860:	7462                	ld	s0,56(sp)
  20d862:	6121                	addi	sp,sp,64
  20d864:	8082                	ret
  20d866:	0001                	nop

000000000020d868 <check_direct_tx_dma_done>:
  20d868:	1141                	addi	sp,sp,-16
  20d86a:	e422                	sd	s0,8(sp)
  20d86c:	0800                	addi	s0,sp,16
  20d86e:	a831                	j	20d88a <check_direct_tx_dma_done+0x22>
  20d870:	20f00793          	li	a5,527
  20d874:	07da                	slli	a5,a5,0x16
  20d876:	20478793          	addi	a5,a5,516
  20d87a:	439c                	lw	a5,0(a5)
  20d87c:	0007871b          	sext.w	a4,a5
  20d880:	002107b7          	lui	a5,0x210
  20d884:	12878793          	addi	a5,a5,296 # 210128 <g_hostDmaStatus>
  20d888:	c398                	sw	a4,0(a5)
  20d88a:	002107b7          	lui	a5,0x210
  20d88e:	12878793          	addi	a5,a5,296 # 210128 <g_hostDmaStatus>
  20d892:	0017c703          	lbu	a4,1(a5)
  20d896:	002107b7          	lui	a5,0x210
  20d89a:	12878793          	addi	a5,a5,296 # 210128 <g_hostDmaStatus>
  20d89e:	0057c783          	lbu	a5,5(a5)
  20d8a2:	fcf717e3          	bne	a4,a5,20d870 <check_direct_tx_dma_done+0x8>
  20d8a6:	0001                	nop
  20d8a8:	0001                	nop
  20d8aa:	6422                	ld	s0,8(sp)
  20d8ac:	0141                	addi	sp,sp,16
  20d8ae:	8082                	ret

000000000020d8b0 <check_direct_rx_dma_done>:
  20d8b0:	1141                	addi	sp,sp,-16
  20d8b2:	e422                	sd	s0,8(sp)
  20d8b4:	0800                	addi	s0,sp,16
  20d8b6:	a831                	j	20d8d2 <check_direct_rx_dma_done+0x22>
  20d8b8:	20f00793          	li	a5,527
  20d8bc:	07da                	slli	a5,a5,0x16
  20d8be:	20478793          	addi	a5,a5,516
  20d8c2:	439c                	lw	a5,0(a5)
  20d8c4:	0007871b          	sext.w	a4,a5
  20d8c8:	002107b7          	lui	a5,0x210
  20d8cc:	12878793          	addi	a5,a5,296 # 210128 <g_hostDmaStatus>
  20d8d0:	c398                	sw	a4,0(a5)
  20d8d2:	002107b7          	lui	a5,0x210
  20d8d6:	12878793          	addi	a5,a5,296 # 210128 <g_hostDmaStatus>
  20d8da:	0007c703          	lbu	a4,0(a5)
  20d8de:	002107b7          	lui	a5,0x210
  20d8e2:	12878793          	addi	a5,a5,296 # 210128 <g_hostDmaStatus>
  20d8e6:	0047c783          	lbu	a5,4(a5)
  20d8ea:	fcf717e3          	bne	a4,a5,20d8b8 <check_direct_rx_dma_done+0x8>
  20d8ee:	0001                	nop
  20d8f0:	0001                	nop
  20d8f2:	6422                	ld	s0,8(sp)
  20d8f4:	0141                	addi	sp,sp,16
  20d8f6:	8082                	ret

000000000020d8f8 <check_auto_tx_dma_done>:
  20d8f8:	1141                	addi	sp,sp,-16
  20d8fa:	e422                	sd	s0,8(sp)
  20d8fc:	0800                	addi	s0,sp,16
  20d8fe:	a831                	j	20d91a <check_auto_tx_dma_done+0x22>
  20d900:	20f00793          	li	a5,527
  20d904:	07da                	slli	a5,a5,0x16
  20d906:	20478793          	addi	a5,a5,516
  20d90a:	439c                	lw	a5,0(a5)
  20d90c:	0007871b          	sext.w	a4,a5
  20d910:	002107b7          	lui	a5,0x210
  20d914:	12878793          	addi	a5,a5,296 # 210128 <g_hostDmaStatus>
  20d918:	c398                	sw	a4,0(a5)
  20d91a:	002107b7          	lui	a5,0x210
  20d91e:	12878793          	addi	a5,a5,296 # 210128 <g_hostDmaStatus>
  20d922:	0037c703          	lbu	a4,3(a5)
  20d926:	002107b7          	lui	a5,0x210
  20d92a:	12878793          	addi	a5,a5,296 # 210128 <g_hostDmaStatus>
  20d92e:	0077c783          	lbu	a5,7(a5)
  20d932:	fcf717e3          	bne	a4,a5,20d900 <check_auto_tx_dma_done+0x8>
  20d936:	0001                	nop
  20d938:	0001                	nop
  20d93a:	6422                	ld	s0,8(sp)
  20d93c:	0141                	addi	sp,sp,16
  20d93e:	8082                	ret

000000000020d940 <check_auto_rx_dma_done>:
  20d940:	1141                	addi	sp,sp,-16
  20d942:	e422                	sd	s0,8(sp)
  20d944:	0800                	addi	s0,sp,16
  20d946:	a831                	j	20d962 <check_auto_rx_dma_done+0x22>
  20d948:	20f00793          	li	a5,527
  20d94c:	07da                	slli	a5,a5,0x16
  20d94e:	20478793          	addi	a5,a5,516
  20d952:	439c                	lw	a5,0(a5)
  20d954:	0007871b          	sext.w	a4,a5
  20d958:	002107b7          	lui	a5,0x210
  20d95c:	12878793          	addi	a5,a5,296 # 210128 <g_hostDmaStatus>
  20d960:	c398                	sw	a4,0(a5)
  20d962:	002107b7          	lui	a5,0x210
  20d966:	12878793          	addi	a5,a5,296 # 210128 <g_hostDmaStatus>
  20d96a:	0027c703          	lbu	a4,2(a5)
  20d96e:	002107b7          	lui	a5,0x210
  20d972:	12878793          	addi	a5,a5,296 # 210128 <g_hostDmaStatus>
  20d976:	0067c783          	lbu	a5,6(a5)
  20d97a:	fcf717e3          	bne	a4,a5,20d948 <check_auto_rx_dma_done+0x8>
  20d97e:	0001                	nop
  20d980:	0001                	nop
  20d982:	6422                	ld	s0,8(sp)
  20d984:	0141                	addi	sp,sp,16
  20d986:	8082                	ret

000000000020d988 <check_auto_tx_dma_partial_done>:
  20d988:	1101                	addi	sp,sp,-32
  20d98a:	ec22                	sd	s0,24(sp)
  20d98c:	1000                	addi	s0,sp,32
  20d98e:	87aa                	mv	a5,a0
  20d990:	872e                	mv	a4,a1
  20d992:	fef42623          	sw	a5,-20(s0)
  20d996:	87ba                	mv	a5,a4
  20d998:	fef42423          	sw	a5,-24(s0)
  20d99c:	20f00793          	li	a5,527
  20d9a0:	07da                	slli	a5,a5,0x16
  20d9a2:	20478793          	addi	a5,a5,516
  20d9a6:	439c                	lw	a5,0(a5)
  20d9a8:	0007871b          	sext.w	a4,a5
  20d9ac:	002107b7          	lui	a5,0x210
  20d9b0:	12878793          	addi	a5,a5,296 # 210128 <g_hostDmaStatus>
  20d9b4:	c398                	sw	a4,0(a5)
  20d9b6:	002107b7          	lui	a5,0x210
  20d9ba:	12878793          	addi	a5,a5,296 # 210128 <g_hostDmaStatus>
  20d9be:	0037c703          	lbu	a4,3(a5)
  20d9c2:	002107b7          	lui	a5,0x210
  20d9c6:	12878793          	addi	a5,a5,296 # 210128 <g_hostDmaStatus>
  20d9ca:	0077c783          	lbu	a5,7(a5)
  20d9ce:	00f71463          	bne	a4,a5,20d9d6 <check_auto_tx_dma_partial_done+0x4e>
  20d9d2:	4785                	li	a5,1
  20d9d4:	a8e5                	j	20dacc <check_auto_tx_dma_partial_done+0x144>
  20d9d6:	002107b7          	lui	a5,0x210
  20d9da:	12878793          	addi	a5,a5,296 # 210128 <g_hostDmaStatus>
  20d9de:	0037c783          	lbu	a5,3(a5)
  20d9e2:	0007871b          	sext.w	a4,a5
  20d9e6:	fec42783          	lw	a5,-20(s0)
  20d9ea:	2781                	sext.w	a5,a5
  20d9ec:	06f77663          	bgeu	a4,a5,20da58 <check_auto_tx_dma_partial_done+0xd0>
  20d9f0:	002107b7          	lui	a5,0x210
  20d9f4:	12878793          	addi	a5,a5,296 # 210128 <g_hostDmaStatus>
  20d9f8:	0077c783          	lbu	a5,7(a5)
  20d9fc:	0007871b          	sext.w	a4,a5
  20da00:	fec42783          	lw	a5,-20(s0)
  20da04:	2781                	sext.w	a5,a5
  20da06:	02f77e63          	bgeu	a4,a5,20da42 <check_auto_tx_dma_partial_done+0xba>
  20da0a:	002107b7          	lui	a5,0x210
  20da0e:	12878793          	addi	a5,a5,296 # 210128 <g_hostDmaStatus>
  20da12:	0077c703          	lbu	a4,7(a5)
  20da16:	002107b7          	lui	a5,0x210
  20da1a:	12878793          	addi	a5,a5,296 # 210128 <g_hostDmaStatus>
  20da1e:	0037c783          	lbu	a5,3(a5)
  20da22:	00e7f463          	bgeu	a5,a4,20da2a <check_auto_tx_dma_partial_done+0xa2>
  20da26:	4785                	li	a5,1
  20da28:	a055                	j	20dacc <check_auto_tx_dma_partial_done+0x144>
  20da2a:	002107b7          	lui	a5,0x210
  20da2e:	1207a703          	lw	a4,288(a5) # 210120 <g_hostDmaAssistStatus>
  20da32:	fe842783          	lw	a5,-24(s0)
  20da36:	2785                	addiw	a5,a5,1
  20da38:	2781                	sext.w	a5,a5
  20da3a:	08f70863          	beq	a4,a5,20daca <check_auto_tx_dma_partial_done+0x142>
  20da3e:	4785                	li	a5,1
  20da40:	a071                	j	20dacc <check_auto_tx_dma_partial_done+0x144>
  20da42:	002107b7          	lui	a5,0x210
  20da46:	1207a703          	lw	a4,288(a5) # 210120 <g_hostDmaAssistStatus>
  20da4a:	fe842783          	lw	a5,-24(s0)
  20da4e:	2781                	sext.w	a5,a5
  20da50:	06e78d63          	beq	a5,a4,20daca <check_auto_tx_dma_partial_done+0x142>
  20da54:	4785                	li	a5,1
  20da56:	a89d                	j	20dacc <check_auto_tx_dma_partial_done+0x144>
  20da58:	002107b7          	lui	a5,0x210
  20da5c:	12878793          	addi	a5,a5,296 # 210128 <g_hostDmaStatus>
  20da60:	0037c783          	lbu	a5,3(a5)
  20da64:	0007871b          	sext.w	a4,a5
  20da68:	fec42783          	lw	a5,-20(s0)
  20da6c:	2781                	sext.w	a5,a5
  20da6e:	00e79463          	bne	a5,a4,20da76 <check_auto_tx_dma_partial_done+0xee>
  20da72:	4785                	li	a5,1
  20da74:	a8a1                	j	20dacc <check_auto_tx_dma_partial_done+0x144>
  20da76:	002107b7          	lui	a5,0x210
  20da7a:	12878793          	addi	a5,a5,296 # 210128 <g_hostDmaStatus>
  20da7e:	0077c783          	lbu	a5,7(a5)
  20da82:	0007871b          	sext.w	a4,a5
  20da86:	fec42783          	lw	a5,-20(s0)
  20da8a:	2781                	sext.w	a5,a5
  20da8c:	00f77463          	bgeu	a4,a5,20da94 <check_auto_tx_dma_partial_done+0x10c>
  20da90:	4785                	li	a5,1
  20da92:	a82d                	j	20dacc <check_auto_tx_dma_partial_done+0x144>
  20da94:	002107b7          	lui	a5,0x210
  20da98:	12878793          	addi	a5,a5,296 # 210128 <g_hostDmaStatus>
  20da9c:	0077c703          	lbu	a4,7(a5)
  20daa0:	002107b7          	lui	a5,0x210
  20daa4:	12878793          	addi	a5,a5,296 # 210128 <g_hostDmaStatus>
  20daa8:	0037c783          	lbu	a5,3(a5)
  20daac:	00e7f463          	bgeu	a5,a4,20dab4 <check_auto_tx_dma_partial_done+0x12c>
  20dab0:	4785                	li	a5,1
  20dab2:	a829                	j	20dacc <check_auto_tx_dma_partial_done+0x144>
  20dab4:	002107b7          	lui	a5,0x210
  20dab8:	1207a703          	lw	a4,288(a5) # 210120 <g_hostDmaAssistStatus>
  20dabc:	fe842783          	lw	a5,-24(s0)
  20dac0:	2781                	sext.w	a5,a5
  20dac2:	00e78463          	beq	a5,a4,20daca <check_auto_tx_dma_partial_done+0x142>
  20dac6:	4785                	li	a5,1
  20dac8:	a011                	j	20dacc <check_auto_tx_dma_partial_done+0x144>
  20daca:	4781                	li	a5,0
  20dacc:	853e                	mv	a0,a5
  20dace:	6462                	ld	s0,24(sp)
  20dad0:	6105                	addi	sp,sp,32
  20dad2:	8082                	ret

000000000020dad4 <check_auto_rx_dma_partial_done>:
  20dad4:	1101                	addi	sp,sp,-32
  20dad6:	ec22                	sd	s0,24(sp)
  20dad8:	1000                	addi	s0,sp,32
  20dada:	87aa                	mv	a5,a0
  20dadc:	872e                	mv	a4,a1
  20dade:	fef42623          	sw	a5,-20(s0)
  20dae2:	87ba                	mv	a5,a4
  20dae4:	fef42423          	sw	a5,-24(s0)
  20dae8:	20f00793          	li	a5,527
  20daec:	07da                	slli	a5,a5,0x16
  20daee:	20478793          	addi	a5,a5,516
  20daf2:	439c                	lw	a5,0(a5)
  20daf4:	0007871b          	sext.w	a4,a5
  20daf8:	002107b7          	lui	a5,0x210
  20dafc:	12878793          	addi	a5,a5,296 # 210128 <g_hostDmaStatus>
  20db00:	c398                	sw	a4,0(a5)
  20db02:	002107b7          	lui	a5,0x210
  20db06:	12878793          	addi	a5,a5,296 # 210128 <g_hostDmaStatus>
  20db0a:	0027c703          	lbu	a4,2(a5)
  20db0e:	002107b7          	lui	a5,0x210
  20db12:	12878793          	addi	a5,a5,296 # 210128 <g_hostDmaStatus>
  20db16:	0067c783          	lbu	a5,6(a5)
  20db1a:	00f71463          	bne	a4,a5,20db22 <check_auto_rx_dma_partial_done+0x4e>
  20db1e:	4785                	li	a5,1
  20db20:	a8fd                	j	20dc1e <check_auto_rx_dma_partial_done+0x14a>
  20db22:	002107b7          	lui	a5,0x210
  20db26:	12878793          	addi	a5,a5,296 # 210128 <g_hostDmaStatus>
  20db2a:	0027c783          	lbu	a5,2(a5)
  20db2e:	0007871b          	sext.w	a4,a5
  20db32:	fec42783          	lw	a5,-20(s0)
  20db36:	2781                	sext.w	a5,a5
  20db38:	06f77863          	bgeu	a4,a5,20dba8 <check_auto_rx_dma_partial_done+0xd4>
  20db3c:	002107b7          	lui	a5,0x210
  20db40:	12878793          	addi	a5,a5,296 # 210128 <g_hostDmaStatus>
  20db44:	0067c783          	lbu	a5,6(a5)
  20db48:	0007871b          	sext.w	a4,a5
  20db4c:	fec42783          	lw	a5,-20(s0)
  20db50:	2781                	sext.w	a5,a5
  20db52:	02f77f63          	bgeu	a4,a5,20db90 <check_auto_rx_dma_partial_done+0xbc>
  20db56:	002107b7          	lui	a5,0x210
  20db5a:	12878793          	addi	a5,a5,296 # 210128 <g_hostDmaStatus>
  20db5e:	0067c703          	lbu	a4,6(a5)
  20db62:	002107b7          	lui	a5,0x210
  20db66:	12878793          	addi	a5,a5,296 # 210128 <g_hostDmaStatus>
  20db6a:	0027c783          	lbu	a5,2(a5)
  20db6e:	00e7f463          	bgeu	a5,a4,20db76 <check_auto_rx_dma_partial_done+0xa2>
  20db72:	4785                	li	a5,1
  20db74:	a06d                	j	20dc1e <check_auto_rx_dma_partial_done+0x14a>
  20db76:	002107b7          	lui	a5,0x210
  20db7a:	12078793          	addi	a5,a5,288 # 210120 <g_hostDmaAssistStatus>
  20db7e:	43d8                	lw	a4,4(a5)
  20db80:	fe842783          	lw	a5,-24(s0)
  20db84:	2785                	addiw	a5,a5,1
  20db86:	2781                	sext.w	a5,a5
  20db88:	08f70a63          	beq	a4,a5,20dc1c <check_auto_rx_dma_partial_done+0x148>
  20db8c:	4785                	li	a5,1
  20db8e:	a841                	j	20dc1e <check_auto_rx_dma_partial_done+0x14a>
  20db90:	002107b7          	lui	a5,0x210
  20db94:	12078793          	addi	a5,a5,288 # 210120 <g_hostDmaAssistStatus>
  20db98:	43d8                	lw	a4,4(a5)
  20db9a:	fe842783          	lw	a5,-24(s0)
  20db9e:	2781                	sext.w	a5,a5
  20dba0:	06e78e63          	beq	a5,a4,20dc1c <check_auto_rx_dma_partial_done+0x148>
  20dba4:	4785                	li	a5,1
  20dba6:	a8a5                	j	20dc1e <check_auto_rx_dma_partial_done+0x14a>
  20dba8:	002107b7          	lui	a5,0x210
  20dbac:	12878793          	addi	a5,a5,296 # 210128 <g_hostDmaStatus>
  20dbb0:	0027c783          	lbu	a5,2(a5)
  20dbb4:	0007871b          	sext.w	a4,a5
  20dbb8:	fec42783          	lw	a5,-20(s0)
  20dbbc:	2781                	sext.w	a5,a5
  20dbbe:	00e79463          	bne	a5,a4,20dbc6 <check_auto_rx_dma_partial_done+0xf2>
  20dbc2:	4785                	li	a5,1
  20dbc4:	a8a9                	j	20dc1e <check_auto_rx_dma_partial_done+0x14a>
  20dbc6:	002107b7          	lui	a5,0x210
  20dbca:	12878793          	addi	a5,a5,296 # 210128 <g_hostDmaStatus>
  20dbce:	0067c783          	lbu	a5,6(a5)
  20dbd2:	0007871b          	sext.w	a4,a5
  20dbd6:	fec42783          	lw	a5,-20(s0)
  20dbda:	2781                	sext.w	a5,a5
  20dbdc:	00f77463          	bgeu	a4,a5,20dbe4 <check_auto_rx_dma_partial_done+0x110>
  20dbe0:	4785                	li	a5,1
  20dbe2:	a835                	j	20dc1e <check_auto_rx_dma_partial_done+0x14a>
  20dbe4:	002107b7          	lui	a5,0x210
  20dbe8:	12878793          	addi	a5,a5,296 # 210128 <g_hostDmaStatus>
  20dbec:	0067c703          	lbu	a4,6(a5)
  20dbf0:	002107b7          	lui	a5,0x210
  20dbf4:	12878793          	addi	a5,a5,296 # 210128 <g_hostDmaStatus>
  20dbf8:	0027c783          	lbu	a5,2(a5)
  20dbfc:	00e7f463          	bgeu	a5,a4,20dc04 <check_auto_rx_dma_partial_done+0x130>
  20dc00:	4785                	li	a5,1
  20dc02:	a831                	j	20dc1e <check_auto_rx_dma_partial_done+0x14a>
  20dc04:	002107b7          	lui	a5,0x210
  20dc08:	12078793          	addi	a5,a5,288 # 210120 <g_hostDmaAssistStatus>
  20dc0c:	43d8                	lw	a4,4(a5)
  20dc0e:	fe842783          	lw	a5,-24(s0)
  20dc12:	2781                	sext.w	a5,a5
  20dc14:	00e78463          	beq	a5,a4,20dc1c <check_auto_rx_dma_partial_done+0x148>
  20dc18:	4785                	li	a5,1
  20dc1a:	a011                	j	20dc1e <check_auto_rx_dma_partial_done+0x14a>
  20dc1c:	4781                	li	a5,0
  20dc1e:	853e                	mv	a0,a5
  20dc20:	6462                	ld	s0,24(sp)
  20dc22:	6105                	addi	sp,sp,32
  20dc24:	8082                	ret
	...

000000000020dc28 <get_num_of_queue>:
  20dc28:	0105569b          	srliw	a3,a0,0x10
  20dc2c:	479d                	li	a5,7
  20dc2e:	1141                	addi	sp,sp,-16
  20dc30:	02d7ee63          	bltu	a5,a3,20dc6c <get_num_of_queue+0x44>
  20dc34:	8736                	mv	a4,a3
  20dc36:	2685                	addiw	a3,a3,1
  20dc38:	16c2                	slli	a3,a3,0x30
  20dc3a:	002107b7          	lui	a5,0x210
  20dc3e:	92c1                	srli	a3,a3,0x30
  20dc40:	14878793          	addi	a5,a5,328 # 210148 <g_nvmeTask>
  20dc44:	1542                	slli	a0,a0,0x30
  20dc46:	00e11523          	sh	a4,10(sp)
  20dc4a:	00d79623          	sh	a3,12(a5)
  20dc4e:	9141                	srli	a0,a0,0x30
  20dc50:	471d                	li	a4,7
  20dc52:	02a76c63          	bltu	a4,a0,20dc8a <get_num_of_queue+0x62>
  20dc56:	0015071b          	addiw	a4,a0,1
  20dc5a:	1742                	slli	a4,a4,0x30
  20dc5c:	9341                	srli	a4,a4,0x30
  20dc5e:	00a11423          	sh	a0,8(sp)
  20dc62:	00e79723          	sh	a4,14(a5)
  20dc66:	4522                	lw	a0,8(sp)
  20dc68:	0141                	addi	sp,sp,16
  20dc6a:	8082                	ret
  20dc6c:	002107b7          	lui	a5,0x210
  20dc70:	471d                	li	a4,7
  20dc72:	46a1                	li	a3,8
  20dc74:	14878793          	addi	a5,a5,328 # 210148 <g_nvmeTask>
  20dc78:	1542                	slli	a0,a0,0x30
  20dc7a:	00e11523          	sh	a4,10(sp)
  20dc7e:	00d79623          	sh	a3,12(a5)
  20dc82:	9141                	srli	a0,a0,0x30
  20dc84:	471d                	li	a4,7
  20dc86:	fca778e3          	bgeu	a4,a0,20dc56 <get_num_of_queue+0x2e>
  20dc8a:	451d                	li	a0,7
  20dc8c:	4721                	li	a4,8
  20dc8e:	00a11423          	sh	a0,8(sp)
  20dc92:	00e79723          	sh	a4,14(a5)
  20dc96:	4522                	lw	a0,8(sp)
  20dc98:	0141                	addi	sp,sp,16
  20dc9a:	8082                	ret

000000000020dc9c <handle_set_features>:
  20dc9c:	7179                	addi	sp,sp,-48
  20dc9e:	f406                	sd	ra,40(sp)
  20dca0:	f022                	sd	s0,32(sp)
  20dca2:	ec26                	sd	s1,24(sp)
  20dca4:	e84a                	sd	s2,16(sp)
  20dca6:	02954683          	lbu	a3,41(a0) # 43c80029 <g_nvmeTask+0x43a6fee1>
  20dcaa:	02854603          	lbu	a2,40(a0)
  20dcae:	02a54783          	lbu	a5,42(a0)
  20dcb2:	02b54703          	lbu	a4,43(a0)
  20dcb6:	06a2                	slli	a3,a3,0x8
  20dcb8:	8ed1                	or	a3,a3,a2
  20dcba:	07c2                	slli	a5,a5,0x10
  20dcbc:	8fd5                	or	a5,a5,a3
  20dcbe:	0762                	slli	a4,a4,0x18
  20dcc0:	8f5d                	or	a4,a4,a5
  20dcc2:	0ff77793          	andi	a5,a4,255
  20dcc6:	46b9                	li	a3,14
  20dcc8:	06f6e663          	bltu	a3,a5,20dd34 <handle_set_features+0x98>
  20dccc:	0007091b          	sext.w	s2,a4
  20dcd0:	0020f737          	lui	a4,0x20f
  20dcd4:	078a                	slli	a5,a5,0x2
  20dcd6:	75070713          	addi	a4,a4,1872 # 20f750 <nvme_main+0xdd8>
  20dcda:	97ba                	add	a5,a5,a4
  20dcdc:	439c                	lw	a5,0(a5)
  20dcde:	84aa                	mv	s1,a0
  20dce0:	842e                	mv	s0,a1
  20dce2:	8782                	jr	a5
  20dce4:	00210537          	lui	a0,0x210
  20dce8:	88050513          	addi	a0,a0,-1920 # 20f880 <nvme_main+0xf08>
  20dcec:	92df60ef          	jal	ra,204618 <cpl_print>
  20dcf0:	02c4c783          	lbu	a5,44(s1)
  20dcf4:	00210737          	lui	a4,0x210
  20dcf8:	8b85                	andi	a5,a5,1
  20dcfa:	14f72623          	sw	a5,332(a4) # 21014c <g_nvmeTask+0x4>
  20dcfe:	00040023          	sb	zero,0(s0)
  20dd02:	000400a3          	sb	zero,1(s0)
  20dd06:	00040123          	sb	zero,2(s0)
  20dd0a:	000401a3          	sb	zero,3(s0)
  20dd0e:	00040223          	sb	zero,4(s0)
  20dd12:	000402a3          	sb	zero,5(s0)
  20dd16:	00210537          	lui	a0,0x210
  20dd1a:	8d050513          	addi	a0,a0,-1840 # 20f8d0 <nvme_main+0xf58>
  20dd1e:	8fbf60ef          	jal	ra,204618 <cpl_print>
  20dd22:	7402                	ld	s0,32(sp)
  20dd24:	70a2                	ld	ra,40(sp)
  20dd26:	64e2                	ld	s1,24(sp)
  20dd28:	0ff97513          	andi	a0,s2,255
  20dd2c:	6942                	ld	s2,16(sp)
  20dd2e:	6145                	addi	sp,sp,48
  20dd30:	917f606f          	j	204646 <cpl_printint>
  20dd34:	00210537          	lui	a0,0x210
  20dd38:	89050513          	addi	a0,a0,-1904 # 20f890 <nvme_main+0xf18>
  20dd3c:	8ddf60ef          	jal	ra,204618 <cpl_print>
  20dd40:	00210537          	lui	a0,0x210
  20dd44:	8b050513          	addi	a0,a0,-1872 # 20f8b0 <nvme_main+0xf38>
  20dd48:	8d1f60ef          	jal	ra,204618 <cpl_print>
  20dd4c:	a001                	j	20dd4c <handle_set_features+0xb0>
  20dd4e:	00058023          	sb	zero,0(a1)
  20dd52:	000580a3          	sb	zero,1(a1)
  20dd56:	00058123          	sb	zero,2(a1)
  20dd5a:	000581a3          	sb	zero,3(a1)
  20dd5e:	02d54683          	lbu	a3,45(a0)
  20dd62:	02c54603          	lbu	a2,44(a0)
  20dd66:	02e54703          	lbu	a4,46(a0)
  20dd6a:	02f54783          	lbu	a5,47(a0)
  20dd6e:	06a2                	slli	a3,a3,0x8
  20dd70:	8ed1                	or	a3,a3,a2
  20dd72:	0742                	slli	a4,a4,0x10
  20dd74:	8f55                	or	a4,a4,a3
  20dd76:	07e2                	slli	a5,a5,0x18
  20dd78:	8fd9                	or	a5,a5,a4
  20dd7a:	0107d613          	srli	a2,a5,0x10
  20dd7e:	469d                	li	a3,7
  20dd80:	0007871b          	sext.w	a4,a5
  20dd84:	87b2                	mv	a5,a2
  20dd86:	04c6eb63          	bltu	a3,a2,20dddc <handle_set_features+0x140>
  20dd8a:	2605                	addiw	a2,a2,1
  20dd8c:	1642                	slli	a2,a2,0x30
  20dd8e:	9241                	srli	a2,a2,0x30
  20dd90:	002106b7          	lui	a3,0x210
  20dd94:	14868693          	addi	a3,a3,328 # 210148 <g_nvmeTask>
  20dd98:	00f11523          	sh	a5,10(sp)
  20dd9c:	03071793          	slli	a5,a4,0x30
  20dda0:	00c69623          	sh	a2,12(a3)
  20dda4:	93c1                	srli	a5,a5,0x30
  20dda6:	471d                	li	a4,7
  20dda8:	02f76d63          	bltu	a4,a5,20dde2 <handle_set_features+0x146>
  20ddac:	0017871b          	addiw	a4,a5,1
  20ddb0:	1742                	slli	a4,a4,0x30
  20ddb2:	9341                	srli	a4,a4,0x30
  20ddb4:	00f11423          	sh	a5,8(sp)
  20ddb8:	47a2                	lw	a5,8(sp)
  20ddba:	00e69723          	sh	a4,14(a3)
  20ddbe:	0087d61b          	srliw	a2,a5,0x8
  20ddc2:	0107d69b          	srliw	a3,a5,0x10
  20ddc6:	0187d71b          	srliw	a4,a5,0x18
  20ddca:	00f40123          	sb	a5,2(s0)
  20ddce:	00c401a3          	sb	a2,3(s0)
  20ddd2:	00d40223          	sb	a3,4(s0)
  20ddd6:	00e402a3          	sb	a4,5(s0)
  20ddda:	bf35                	j	20dd16 <handle_set_features+0x7a>
  20dddc:	479d                	li	a5,7
  20ddde:	4621                	li	a2,8
  20dde0:	bf45                	j	20dd90 <handle_set_features+0xf4>
  20dde2:	479d                	li	a5,7
  20dde4:	4721                	li	a4,8
  20dde6:	b7f9                	j	20ddb4 <handle_set_features+0x118>

000000000020dde8 <handle_get_features>:
  20dde8:	1101                	addi	sp,sp,-32
  20ddea:	e822                	sd	s0,16(sp)
  20ddec:	ec06                	sd	ra,24(sp)
  20ddee:	02854783          	lbu	a5,40(a0)
  20ddf2:	4731                	li	a4,12
  20ddf4:	842e                	mv	s0,a1
  20ddf6:	00f76f63          	bltu	a4,a5,20de14 <handle_get_features+0x2c>
  20ddfa:	4605                	li	a2,1
  20ddfc:	04f67563          	bgeu	a2,a5,20de46 <handle_get_features+0x5e>
  20de00:	04f76363          	bltu	a4,a5,20de46 <handle_get_features+0x5e>
  20de04:	0020f737          	lui	a4,0x20f
  20de08:	078a                	slli	a5,a5,0x2
  20de0a:	78c70713          	addi	a4,a4,1932 # 20f78c <nvme_main+0xe14>
  20de0e:	97ba                	add	a5,a5,a4
  20de10:	439c                	lw	a5,0(a5)
  20de12:	8782                	jr	a5
  20de14:	0d000713          	li	a4,208
  20de18:	02e79763          	bne	a5,a4,20de46 <handle_get_features+0x5e>
  20de1c:	00040023          	sb	zero,0(s0)
  20de20:	000400a3          	sb	zero,1(s0)
  20de24:	00040123          	sb	zero,2(s0)
  20de28:	000401a3          	sb	zero,3(s0)
  20de2c:	00040223          	sb	zero,4(s0)
  20de30:	000402a3          	sb	zero,5(s0)
  20de34:	6442                	ld	s0,16(sp)
  20de36:	60e2                	ld	ra,24(sp)
  20de38:	00210537          	lui	a0,0x210
  20de3c:	95850513          	addi	a0,a0,-1704 # 20f958 <nvme_main+0xfe0>
  20de40:	6105                	addi	sp,sp,32
  20de42:	fd6f606f          	j	204618 <cpl_print>
  20de46:	00210537          	lui	a0,0x210
  20de4a:	91850513          	addi	a0,a0,-1768 # 20f918 <nvme_main+0xfa0>
  20de4e:	fcaf60ef          	jal	ra,204618 <cpl_print>
  20de52:	00210537          	lui	a0,0x210
  20de56:	93850513          	addi	a0,a0,-1736 # 20f938 <nvme_main+0xfc0>
  20de5a:	fbef60ef          	jal	ra,204618 <cpl_print>
  20de5e:	a001                	j	20de5e <handle_get_features+0x76>
  20de60:	00554603          	lbu	a2,5(a0)
  20de64:	00454583          	lbu	a1,4(a0)
  20de68:	00654703          	lbu	a4,6(a0)
  20de6c:	00754783          	lbu	a5,7(a0)
  20de70:	00861693          	slli	a3,a2,0x8
  20de74:	8ecd                	or	a3,a3,a1
  20de76:	0742                	slli	a4,a4,0x10
  20de78:	8f55                	or	a4,a4,a3
  20de7a:	07e2                	slli	a5,a5,0x18
  20de7c:	8fd9                	or	a5,a5,a4
  20de7e:	2781                	sext.w	a5,a5
  20de80:	4705                	li	a4,1
  20de82:	0ae78d63          	beq	a5,a4,20df3c <handle_get_features+0x154>
  20de86:	00210537          	lui	a0,0x210
  20de8a:	8e850513          	addi	a0,a0,-1816 # 20f8e8 <nvme_main+0xf70>
  20de8e:	f8af60ef          	jal	ra,204618 <cpl_print>
  20de92:	a001                	j	20de92 <handle_get_features+0xaa>
  20de94:	00058123          	sb	zero,2(a1)
  20de98:	000581a3          	sb	zero,3(a1)
  20de9c:	00058023          	sb	zero,0(a1)
  20dea0:	000580a3          	sb	zero,1(a1)
  20dea4:	02d54603          	lbu	a2,45(a0)
  20dea8:	02c54583          	lbu	a1,44(a0)
  20deac:	02e54703          	lbu	a4,46(a0)
  20deb0:	02f54783          	lbu	a5,47(a0)
  20deb4:	00861693          	slli	a3,a2,0x8
  20deb8:	8ecd                	or	a3,a3,a1
  20deba:	0742                	slli	a4,a4,0x10
  20debc:	8f55                	or	a4,a4,a3
  20debe:	07e2                	slli	a5,a5,0x18
  20dec0:	8fd9                	or	a5,a5,a4
  20dec2:	0087d613          	srli	a2,a5,0x8
  20dec6:	0107d693          	srli	a3,a5,0x10
  20deca:	83e1                	srli	a5,a5,0x18
  20decc:	00e40123          	sb	a4,2(s0)
  20ded0:	00c401a3          	sb	a2,3(s0)
  20ded4:	00d40223          	sb	a3,4(s0)
  20ded8:	00f402a3          	sb	a5,5(s0)
  20dedc:	6442                	ld	s0,16(sp)
  20dede:	60e2                	ld	ra,24(sp)
  20dee0:	00210537          	lui	a0,0x210
  20dee4:	95850513          	addi	a0,a0,-1704 # 20f958 <nvme_main+0xfe0>
  20dee8:	6105                	addi	sp,sp,32
  20deea:	f2ef606f          	j	204618 <cpl_print>
  20deee:	00210537          	lui	a0,0x210
  20def2:	90850513          	addi	a0,a0,-1784 # 20f908 <nvme_main+0xf90>
  20def6:	f22f60ef          	jal	ra,204618 <cpl_print>
  20defa:	002107b7          	lui	a5,0x210
  20defe:	14878793          	addi	a5,a5,328 # 210148 <g_nvmeTask>
  20df02:	0047c603          	lbu	a2,4(a5)
  20df06:	0057c683          	lbu	a3,5(a5)
  20df0a:	0067c703          	lbu	a4,6(a5)
  20df0e:	0077c783          	lbu	a5,7(a5)
  20df12:	00040023          	sb	zero,0(s0)
  20df16:	000400a3          	sb	zero,1(s0)
  20df1a:	00c40123          	sb	a2,2(s0)
  20df1e:	00d401a3          	sb	a3,3(s0)
  20df22:	00e40223          	sb	a4,4(s0)
  20df26:	00f402a3          	sb	a5,5(s0)
  20df2a:	6442                	ld	s0,16(sp)
  20df2c:	60e2                	ld	ra,24(sp)
  20df2e:	00210537          	lui	a0,0x210
  20df32:	95850513          	addi	a0,a0,-1704 # 20f958 <nvme_main+0xfe0>
  20df36:	6105                	addi	sp,sp,32
  20df38:	ee0f606f          	j	204618 <cpl_print>
  20df3c:	4791                	li	a5,4
  20df3e:	c43e                	sw	a5,8(sp)
  20df40:	67a2                	ld	a5,8(sp)
  20df42:	00040123          	sb	zero,2(s0)
  20df46:	000401a3          	sb	zero,3(s0)
  20df4a:	0087d713          	srli	a4,a5,0x8
  20df4e:	00f40023          	sb	a5,0(s0)
  20df52:	00e400a3          	sb	a4,1(s0)
  20df56:	00040223          	sb	zero,4(s0)
  20df5a:	000402a3          	sb	zero,5(s0)
  20df5e:	bdd9                	j	20de34 <handle_get_features+0x4c>

000000000020df60 <handle_create_io_sq>:
  20df60:	1141                	addi	sp,sp,-16
  20df62:	e406                	sd	ra,8(sp)
  20df64:	e022                	sd	s0,0(sp)
  20df66:	862a                	mv	a2,a0
  20df68:	01954683          	lbu	a3,25(a0)
  20df6c:	01a64783          	lbu	a5,26(a2)
  20df70:	01854503          	lbu	a0,24(a0)
  20df74:	01b64703          	lbu	a4,27(a2)
  20df78:	06a2                	slli	a3,a3,0x8
  20df7a:	8ec9                	or	a3,a3,a0
  20df7c:	07c2                	slli	a5,a5,0x10
  20df7e:	8fd5                	or	a5,a5,a3
  20df80:	0762                	slli	a4,a4,0x18
  20df82:	8f5d                	or	a4,a4,a5
  20df84:	00377793          	andi	a5,a4,3
  20df88:	efe9                	bnez	a5,20e062 <handle_create_io_sq+0x102>
  20df8a:	842e                	mv	s0,a1
  20df8c:	01d64583          	lbu	a1,29(a2)
  20df90:	01c64503          	lbu	a0,28(a2)
  20df94:	01e64683          	lbu	a3,30(a2)
  20df98:	01f64783          	lbu	a5,31(a2)
  20df9c:	05a2                	slli	a1,a1,0x8
  20df9e:	8dc9                	or	a1,a1,a0
  20dfa0:	06c2                	slli	a3,a3,0x10
  20dfa2:	8ecd                	or	a3,a3,a1
  20dfa4:	07e2                	slli	a5,a5,0x18
  20dfa6:	8fd5                	or	a5,a5,a3
  20dfa8:	2781                	sext.w	a5,a5
  20dfaa:	66c1                	lui	a3,0x10
  20dfac:	0ad7fb63          	bgeu	a5,a3,20e062 <handle_create_io_sq+0x102>
  20dfb0:	02964503          	lbu	a0,41(a2)
  20dfb4:	02864803          	lbu	a6,40(a2)
  20dfb8:	02a64683          	lbu	a3,42(a2)
  20dfbc:	02b64583          	lbu	a1,43(a2)
  20dfc0:	0522                	slli	a0,a0,0x8
  20dfc2:	01056533          	or	a0,a0,a6
  20dfc6:	06c2                	slli	a3,a3,0x10
  20dfc8:	8ec9                	or	a3,a3,a0
  20dfca:	05e2                	slli	a1,a1,0x18
  20dfcc:	8dd5                	or	a1,a1,a3
  20dfce:	fff5869b          	addiw	a3,a1,-1
  20dfd2:	16c2                	slli	a3,a3,0x30
  20dfd4:	92c1                	srli	a3,a3,0x30
  20dfd6:	431d                	li	t1,7
  20dfd8:	2581                	sext.w	a1,a1
  20dfda:	08d36b63          	bltu	t1,a3,20e070 <handle_create_io_sq+0x110>
  20dfde:	0105d69b          	srliw	a3,a1,0x10
  20dfe2:	0ff00513          	li	a0,255
  20dfe6:	08d56563          	bltu	a0,a3,20e070 <handle_create_io_sq+0x110>
  20dfea:	02e64503          	lbu	a0,46(a2)
  20dfee:	02f64803          	lbu	a6,47(a2)
  20dff2:	01051613          	slli	a2,a0,0x10
  20dff6:	01881513          	slli	a0,a6,0x18
  20dffa:	8e49                	or	a2,a2,a0
  20dffc:	8241                	srli	a2,a2,0x10
  20dffe:	fff6051b          	addiw	a0,a2,-1
  20e002:	1542                	slli	a0,a0,0x30
  20e004:	9141                	srli	a0,a0,0x30
  20e006:	06a36563          	bltu	t1,a0,20e070 <handle_create_io_sq+0x110>
  20e00a:	15c2                	slli	a1,a1,0x30
  20e00c:	91c1                	srli	a1,a1,0x30
  20e00e:	fff5851b          	addiw	a0,a1,-1
  20e012:	00151813          	slli	a6,a0,0x1
  20e016:	982a                	add	a6,a6,a0
  20e018:	002105b7          	lui	a1,0x210
  20e01c:	15858593          	addi	a1,a1,344 # 210158 <g_nvmeTask+0x10>
  20e020:	080a                	slli	a6,a6,0x2
  20e022:	982e                	add	a6,a6,a1
  20e024:	2701                	sext.w	a4,a4
  20e026:	4305                	li	t1,1
  20e028:	4585                	li	a1,1
  20e02a:	00680023          	sb	t1,0(a6)
  20e02e:	00d81123          	sh	a3,2(a6)
  20e032:	00c800a3          	sb	a2,1(a6)
  20e036:	00e82223          	sw	a4,4(a6)
  20e03a:	00f82423          	sw	a5,8(a6)
  20e03e:	842ff0ef          	jal	ra,20d080 <set_io_sq>
  20e042:	60a2                	ld	ra,8(sp)
  20e044:	00040023          	sb	zero,0(s0)
  20e048:	000400a3          	sb	zero,1(s0)
  20e04c:	00040123          	sb	zero,2(s0)
  20e050:	000401a3          	sb	zero,3(s0)
  20e054:	00040223          	sb	zero,4(s0)
  20e058:	000402a3          	sb	zero,5(s0)
  20e05c:	6402                	ld	s0,0(sp)
  20e05e:	0141                	addi	sp,sp,16
  20e060:	8082                	ret
  20e062:	00210537          	lui	a0,0x210
  20e066:	97050513          	addi	a0,a0,-1680 # 20f970 <nvme_main+0xff8>
  20e06a:	daef60ef          	jal	ra,204618 <cpl_print>
  20e06e:	a001                	j	20e06e <handle_create_io_sq+0x10e>
  20e070:	00210537          	lui	a0,0x210
  20e074:	99050513          	addi	a0,a0,-1648 # 20f990 <nvme_main+0x1018>
  20e078:	da0f60ef          	jal	ra,204618 <cpl_print>
  20e07c:	a001                	j	20e07c <handle_create_io_sq+0x11c>

000000000020e07e <handle_delete_io_sq>:
  20e07e:	1101                	addi	sp,sp,-32
  20e080:	ec06                	sd	ra,24(sp)
  20e082:	e426                	sd	s1,8(sp)
  20e084:	e822                	sd	s0,16(sp)
  20e086:	02954703          	lbu	a4,41(a0)
  20e08a:	02854683          	lbu	a3,40(a0)
  20e08e:	02a54783          	lbu	a5,42(a0)
  20e092:	02b54403          	lbu	s0,43(a0)
  20e096:	00871513          	slli	a0,a4,0x8
  20e09a:	00d56733          	or	a4,a0,a3
  20e09e:	01079513          	slli	a0,a5,0x10
  20e0a2:	8d59                	or	a0,a0,a4
  20e0a4:	0462                	slli	s0,s0,0x18
  20e0a6:	8c49                	or	s0,s0,a0
  20e0a8:	00210537          	lui	a0,0x210
  20e0ac:	9b050513          	addi	a0,a0,-1616 # 20f9b0 <nvme_main+0x1038>
  20e0b0:	84ae                	mv	s1,a1
  20e0b2:	2401                	sext.w	s0,s0
  20e0b4:	d64f60ef          	jal	ra,204618 <cpl_print>
  20e0b8:	03041513          	slli	a0,s0,0x30
  20e0bc:	9141                	srli	a0,a0,0x30
  20e0be:	357d                	addiw	a0,a0,-1
  20e0c0:	02051793          	slli	a5,a0,0x20
  20e0c4:	9381                	srli	a5,a5,0x20
  20e0c6:	00179813          	slli	a6,a5,0x1
  20e0ca:	983e                	add	a6,a6,a5
  20e0cc:	002107b7          	lui	a5,0x210
  20e0d0:	15878793          	addi	a5,a5,344 # 210158 <g_nvmeTask+0x10>
  20e0d4:	080a                	slli	a6,a6,0x2
  20e0d6:	983e                	add	a6,a6,a5
  20e0d8:	4701                	li	a4,0
  20e0da:	4781                	li	a5,0
  20e0dc:	4681                	li	a3,0
  20e0de:	4601                	li	a2,0
  20e0e0:	4581                	li	a1,0
  20e0e2:	00082023          	sw	zero,0(a6)
  20e0e6:	00082223          	sw	zero,4(a6)
  20e0ea:	00082423          	sw	zero,8(a6)
  20e0ee:	f93fe0ef          	jal	ra,20d080 <set_io_sq>
  20e0f2:	60e2                	ld	ra,24(sp)
  20e0f4:	6442                	ld	s0,16(sp)
  20e0f6:	00048023          	sb	zero,0(s1)
  20e0fa:	000480a3          	sb	zero,1(s1)
  20e0fe:	00048123          	sb	zero,2(s1)
  20e102:	000481a3          	sb	zero,3(s1)
  20e106:	00048223          	sb	zero,4(s1)
  20e10a:	000482a3          	sb	zero,5(s1)
  20e10e:	64a2                	ld	s1,8(sp)
  20e110:	6105                	addi	sp,sp,32
  20e112:	8082                	ret

000000000020e114 <handle_create_io_cq>:
  20e114:	1101                	addi	sp,sp,-32
  20e116:	ec06                	sd	ra,24(sp)
  20e118:	e822                	sd	s0,16(sp)
  20e11a:	02d54e83          	lbu	t4,45(a0)
  20e11e:	872a                	mv	a4,a0
  20e120:	02c54283          	lbu	t0,44(a0)
  20e124:	02e54e03          	lbu	t3,46(a0)
  20e128:	01954303          	lbu	t1,25(a0)
  20e12c:	02954803          	lbu	a6,41(a0)
  20e130:	01874f83          	lbu	t6,24(a4)
  20e134:	02f54503          	lbu	a0,47(a0)
  20e138:	01a74883          	lbu	a7,26(a4)
  20e13c:	01b74683          	lbu	a3,27(a4)
  20e140:	0ea2                	slli	t4,t4,0x8
  20e142:	02874f03          	lbu	t5,40(a4)
  20e146:	02a74603          	lbu	a2,42(a4)
  20e14a:	005eeeb3          	or	t4,t4,t0
  20e14e:	0e42                	slli	t3,t3,0x10
  20e150:	0322                	slli	t1,t1,0x8
  20e152:	02b74783          	lbu	a5,43(a4)
  20e156:	01de6e33          	or	t3,t3,t4
  20e15a:	0562                	slli	a0,a0,0x18
  20e15c:	01f36333          	or	t1,t1,t6
  20e160:	08c2                	slli	a7,a7,0x10
  20e162:	0822                	slli	a6,a6,0x8
  20e164:	01c56533          	or	a0,a0,t3
  20e168:	0068e8b3          	or	a7,a7,t1
  20e16c:	06e2                	slli	a3,a3,0x18
  20e16e:	01e86833          	or	a6,a6,t5
  20e172:	0642                	slli	a2,a2,0x10
  20e174:	0116e6b3          	or	a3,a3,a7
  20e178:	2501                	sext.w	a0,a0
  20e17a:	01066633          	or	a2,a2,a6
  20e17e:	07e2                	slli	a5,a5,0x18
  20e180:	c42a                	sw	a0,8(sp)
  20e182:	0036f813          	andi	a6,a3,3
  20e186:	8fd1                	or	a5,a5,a2
  20e188:	0a081c63          	bnez	a6,20e240 <handle_create_io_cq+0x12c>
  20e18c:	842e                	mv	s0,a1
  20e18e:	01d74583          	lbu	a1,29(a4)
  20e192:	01c74883          	lbu	a7,28(a4)
  20e196:	0007861b          	sext.w	a2,a5
  20e19a:	0006879b          	sext.w	a5,a3
  20e19e:	01e74683          	lbu	a3,30(a4)
  20e1a2:	01f74803          	lbu	a6,31(a4)
  20e1a6:	00859713          	slli	a4,a1,0x8
  20e1aa:	011765b3          	or	a1,a4,a7
  20e1ae:	01069713          	slli	a4,a3,0x10
  20e1b2:	8f4d                	or	a4,a4,a1
  20e1b4:	0862                	slli	a6,a6,0x18
  20e1b6:	00e86833          	or	a6,a6,a4
  20e1ba:	2801                	sext.w	a6,a6
  20e1bc:	6741                	lui	a4,0x10
  20e1be:	08e87163          	bgeu	a6,a4,20e240 <handle_create_io_cq+0x12c>
  20e1c2:	0105569b          	srliw	a3,a0,0x10
  20e1c6:	431d                	li	t1,7
  20e1c8:	08d36363          	bltu	t1,a3,20e24e <handle_create_io_cq+0x13a>
  20e1cc:	0106571b          	srliw	a4,a2,0x10
  20e1d0:	0ff00593          	li	a1,255
  20e1d4:	06e5ed63          	bltu	a1,a4,20e24e <handle_create_io_cq+0x13a>
  20e1d8:	fff6059b          	addiw	a1,a2,-1
  20e1dc:	15c2                	slli	a1,a1,0x30
  20e1de:	91c1                	srli	a1,a1,0x30
  20e1e0:	06b36763          	bltu	t1,a1,20e24e <handle_create_io_cq+0x13a>
  20e1e4:	1642                	slli	a2,a2,0x30
  20e1e6:	9241                	srli	a2,a2,0x30
  20e1e8:	fff6051b          	addiw	a0,a2,-1
  20e1ec:	6622                	ld	a2,8(sp)
  20e1ee:	002105b7          	lui	a1,0x210
  20e1f2:	00451313          	slli	t1,a0,0x4
  20e1f6:	1b858593          	addi	a1,a1,440 # 2101b8 <g_nvmeTask+0x70>
  20e1fa:	8205                	srli	a2,a2,0x1
  20e1fc:	932e                	add	t1,t1,a1
  20e1fe:	8a05                	andi	a2,a2,1
  20e200:	4e85                	li	t4,1
  20e202:	4585                	li	a1,1
  20e204:	01d30023          	sb	t4,0(t1)
  20e208:	00e31323          	sh	a4,6(t1)
  20e20c:	00c300a3          	sb	a2,1(t1)
  20e210:	00d31223          	sh	a3,4(t1)
  20e214:	00f32423          	sw	a5,8(t1)
  20e218:	01032623          	sw	a6,12(t1)
  20e21c:	f3dfe0ef          	jal	ra,20d158 <set_io_cq>
  20e220:	60e2                	ld	ra,24(sp)
  20e222:	00040023          	sb	zero,0(s0)
  20e226:	000400a3          	sb	zero,1(s0)
  20e22a:	00040123          	sb	zero,2(s0)
  20e22e:	000401a3          	sb	zero,3(s0)
  20e232:	00040223          	sb	zero,4(s0)
  20e236:	000402a3          	sb	zero,5(s0)
  20e23a:	6442                	ld	s0,16(sp)
  20e23c:	6105                	addi	sp,sp,32
  20e23e:	8082                	ret
  20e240:	00210537          	lui	a0,0x210
  20e244:	9c850513          	addi	a0,a0,-1592 # 20f9c8 <nvme_main+0x1050>
  20e248:	bd0f60ef          	jal	ra,204618 <cpl_print>
  20e24c:	a001                	j	20e24c <handle_create_io_cq+0x138>
  20e24e:	00210537          	lui	a0,0x210
  20e252:	9e850513          	addi	a0,a0,-1560 # 20f9e8 <nvme_main+0x1070>
  20e256:	bc2f60ef          	jal	ra,204618 <cpl_print>
  20e25a:	a001                	j	20e25a <handle_create_io_cq+0x146>

000000000020e25c <handle_delete_io_cq>:
  20e25c:	1101                	addi	sp,sp,-32
  20e25e:	ec06                	sd	ra,24(sp)
  20e260:	e426                	sd	s1,8(sp)
  20e262:	e822                	sd	s0,16(sp)
  20e264:	02954703          	lbu	a4,41(a0)
  20e268:	02854683          	lbu	a3,40(a0)
  20e26c:	02a54783          	lbu	a5,42(a0)
  20e270:	02b54403          	lbu	s0,43(a0)
  20e274:	00871513          	slli	a0,a4,0x8
  20e278:	00d56733          	or	a4,a0,a3
  20e27c:	01079513          	slli	a0,a5,0x10
  20e280:	8d59                	or	a0,a0,a4
  20e282:	0462                	slli	s0,s0,0x18
  20e284:	8c49                	or	s0,s0,a0
  20e286:	00210537          	lui	a0,0x210
  20e28a:	a0850513          	addi	a0,a0,-1528 # 20fa08 <nvme_main+0x1090>
  20e28e:	84ae                	mv	s1,a1
  20e290:	2401                	sext.w	s0,s0
  20e292:	b86f60ef          	jal	ra,204618 <cpl_print>
  20e296:	03041513          	slli	a0,s0,0x30
  20e29a:	9141                	srli	a0,a0,0x30
  20e29c:	357d                	addiw	a0,a0,-1
  20e29e:	02051893          	slli	a7,a0,0x20
  20e2a2:	002107b7          	lui	a5,0x210
  20e2a6:	1b878793          	addi	a5,a5,440 # 2101b8 <g_nvmeTask+0x70>
  20e2aa:	01c8d893          	srli	a7,a7,0x1c
  20e2ae:	98be                	add	a7,a7,a5
  20e2b0:	4801                	li	a6,0
  20e2b2:	4781                	li	a5,0
  20e2b4:	4701                	li	a4,0
  20e2b6:	4681                	li	a3,0
  20e2b8:	4601                	li	a2,0
  20e2ba:	4581                	li	a1,0
  20e2bc:	00088023          	sb	zero,0(a7)
  20e2c0:	0008a223          	sw	zero,4(a7)
  20e2c4:	0008a423          	sw	zero,8(a7)
  20e2c8:	0008a623          	sw	zero,12(a7)
  20e2cc:	e8dfe0ef          	jal	ra,20d158 <set_io_cq>
  20e2d0:	60e2                	ld	ra,24(sp)
  20e2d2:	6442                	ld	s0,16(sp)
  20e2d4:	00048023          	sb	zero,0(s1)
  20e2d8:	000480a3          	sb	zero,1(s1)
  20e2dc:	00048123          	sb	zero,2(s1)
  20e2e0:	000481a3          	sb	zero,3(s1)
  20e2e4:	00048223          	sb	zero,4(s1)
  20e2e8:	000482a3          	sb	zero,5(s1)
  20e2ec:	64a2                	ld	s1,8(sp)
  20e2ee:	6105                	addi	sp,sp,32
  20e2f0:	8082                	ret

000000000020e2f2 <handle_identify>:
  20e2f2:	7179                	addi	sp,sp,-48
  20e2f4:	f022                	sd	s0,32(sp)
  20e2f6:	ec26                	sd	s1,24(sp)
  20e2f8:	f406                	sd	ra,40(sp)
  20e2fa:	e84a                	sd	s2,16(sp)
  20e2fc:	e44e                	sd	s3,8(sp)
  20e2fe:	e052                	sd	s4,0(sp)
  20e300:	02854703          	lbu	a4,40(a0)
  20e304:	01854783          	lbu	a5,24(a0)
  20e308:	842a                	mv	s0,a0
  20e30a:	8b05                	andi	a4,a4,1
  20e30c:	84ae                	mv	s1,a1
  20e30e:	8b8d                	andi	a5,a5,3
  20e310:	10070c63          	beqz	a4,20e428 <handle_identify+0x136>
  20e314:	e7e5                	bnez	a5,20e3fc <handle_identify+0x10a>
  20e316:	02054783          	lbu	a5,32(a0)
  20e31a:	8b8d                	andi	a5,a5,3
  20e31c:	e3e5                	bnez	a5,20e3fc <handle_identify+0x10a>
  20e31e:	16000537          	lui	a0,0x16000
  20e322:	304000ef          	jal	ra,20e626 <identify_controller>
  20e326:	01944503          	lbu	a0,25(s0)
  20e32a:	01844583          	lbu	a1,24(s0)
  20e32e:	01a44683          	lbu	a3,26(s0)
  20e332:	01b44603          	lbu	a2,27(s0)
  20e336:	01d44703          	lbu	a4,29(s0)
  20e33a:	0522                	slli	a0,a0,0x8
  20e33c:	8d4d                	or	a0,a0,a1
  20e33e:	01c44803          	lbu	a6,28(s0)
  20e342:	01e44783          	lbu	a5,30(s0)
  20e346:	06c2                	slli	a3,a3,0x10
  20e348:	8ec9                	or	a3,a3,a0
  20e34a:	01f44583          	lbu	a1,31(s0)
  20e34e:	0662                	slli	a2,a2,0x18
  20e350:	6985                	lui	s3,0x1
  20e352:	8e55                	or	a2,a2,a3
  20e354:	0722                	slli	a4,a4,0x8
  20e356:	2601                	sext.w	a2,a2
  20e358:	fff98913          	addi	s2,s3,-1 # fff <start-0x1ff001>
  20e35c:	01076733          	or	a4,a4,a6
  20e360:	07c2                	slli	a5,a5,0x10
  20e362:	6685                	lui	a3,0x1
  20e364:	01267933          	and	s2,a2,s2
  20e368:	8fd9                	or	a5,a5,a4
  20e36a:	05e2                	slli	a1,a1,0x18
  20e36c:	41268a3b          	subw	s4,a3,s2
  20e370:	8ddd                	or	a1,a1,a5
  20e372:	86d2                	mv	a3,s4
  20e374:	2581                	sext.w	a1,a1
  20e376:	16000537          	lui	a0,0x16000
  20e37a:	ee3fe0ef          	jal	ra,20d25c <set_direct_tx_dma>
  20e37e:	053a0963          	beq	s4,s3,20e3d0 <handle_identify+0xde>
  20e382:	02144503          	lbu	a0,33(s0)
  20e386:	02544683          	lbu	a3,37(s0)
  20e38a:	02044883          	lbu	a7,32(s0)
  20e38e:	02244703          	lbu	a4,34(s0)
  20e392:	02444803          	lbu	a6,36(s0)
  20e396:	02644783          	lbu	a5,38(s0)
  20e39a:	02344603          	lbu	a2,35(s0)
  20e39e:	02744583          	lbu	a1,39(s0)
  20e3a2:	0522                	slli	a0,a0,0x8
  20e3a4:	06a2                	slli	a3,a3,0x8
  20e3a6:	01156533          	or	a0,a0,a7
  20e3aa:	0106e6b3          	or	a3,a3,a6
  20e3ae:	0742                	slli	a4,a4,0x10
  20e3b0:	07c2                	slli	a5,a5,0x10
  20e3b2:	8f49                	or	a4,a4,a0
  20e3b4:	8fd5                	or	a5,a5,a3
  20e3b6:	0662                	slli	a2,a2,0x18
  20e3b8:	05e2                	slli	a1,a1,0x18
  20e3ba:	8e59                	or	a2,a2,a4
  20e3bc:	8ddd                	or	a1,a1,a5
  20e3be:	16001537          	lui	a0,0x16001
  20e3c2:	86ca                	mv	a3,s2
  20e3c4:	2601                	sext.w	a2,a2
  20e3c6:	2581                	sext.w	a1,a1
  20e3c8:	4125053b          	subw	a0,a0,s2
  20e3cc:	e91fe0ef          	jal	ra,20d25c <set_direct_tx_dma>
  20e3d0:	c98ff0ef          	jal	ra,20d868 <check_direct_tx_dma_done>
  20e3d4:	70a2                	ld	ra,40(sp)
  20e3d6:	7402                	ld	s0,32(sp)
  20e3d8:	00048023          	sb	zero,0(s1)
  20e3dc:	000480a3          	sb	zero,1(s1)
  20e3e0:	00048123          	sb	zero,2(s1)
  20e3e4:	000481a3          	sb	zero,3(s1)
  20e3e8:	00048223          	sb	zero,4(s1)
  20e3ec:	000482a3          	sb	zero,5(s1)
  20e3f0:	6942                	ld	s2,16(sp)
  20e3f2:	64e2                	ld	s1,24(sp)
  20e3f4:	69a2                	ld	s3,8(sp)
  20e3f6:	6a02                	ld	s4,0(sp)
  20e3f8:	6145                	addi	sp,sp,48
  20e3fa:	8082                	ret
  20e3fc:	00210537          	lui	a0,0x210
  20e400:	a2050513          	addi	a0,a0,-1504 # 20fa20 <nvme_main+0x10a8>
  20e404:	a14f60ef          	jal	ra,204618 <cpl_print>
  20e408:	01844783          	lbu	a5,24(s0)
  20e40c:	8b8d                	andi	a5,a5,3
  20e40e:	e791                	bnez	a5,20e41a <handle_identify+0x128>
  20e410:	02044783          	lbu	a5,32(s0)
  20e414:	8b8d                	andi	a5,a5,3
  20e416:	f00784e3          	beqz	a5,20e31e <handle_identify+0x2c>
  20e41a:	00210537          	lui	a0,0x210
  20e41e:	a3850513          	addi	a0,a0,-1480 # 20fa38 <nvme_main+0x10c0>
  20e422:	9f6f60ef          	jal	ra,204618 <cpl_print>
  20e426:	a001                	j	20e426 <handle_identify+0x134>
  20e428:	e789                	bnez	a5,20e432 <handle_identify+0x140>
  20e42a:	02054783          	lbu	a5,32(a0)
  20e42e:	8b8d                	andi	a5,a5,3
  20e430:	c795                	beqz	a5,20e45c <handle_identify+0x16a>
  20e432:	00210537          	lui	a0,0x210
  20e436:	a5050513          	addi	a0,a0,-1456 # 20fa50 <nvme_main+0x10d8>
  20e43a:	9def60ef          	jal	ra,204618 <cpl_print>
  20e43e:	01844783          	lbu	a5,24(s0)
  20e442:	8b8d                	andi	a5,a5,3
  20e444:	e789                	bnez	a5,20e44e <handle_identify+0x15c>
  20e446:	02044783          	lbu	a5,32(s0)
  20e44a:	8b8d                	andi	a5,a5,3
  20e44c:	cb81                	beqz	a5,20e45c <handle_identify+0x16a>
  20e44e:	00210537          	lui	a0,0x210
  20e452:	a6850513          	addi	a0,a0,-1432 # 20fa68 <nvme_main+0x10f0>
  20e456:	9c2f60ef          	jal	ra,204618 <cpl_print>
  20e45a:	a001                	j	20e45a <handle_identify+0x168>
  20e45c:	16000537          	lui	a0,0x16000
  20e460:	418000ef          	jal	ra,20e878 <identify_namespace>
  20e464:	b5c9                	j	20e326 <handle_identify+0x34>

000000000020e466 <handle_get_log_page>:
  20e466:	47a5                	li	a5,9
  20e468:	00058023          	sb	zero,0(a1)
  20e46c:	000580a3          	sb	zero,1(a1)
  20e470:	000581a3          	sb	zero,3(a1)
  20e474:	00f58123          	sb	a5,2(a1)
  20e478:	00058223          	sb	zero,4(a1)
  20e47c:	000582a3          	sb	zero,5(a1)
  20e480:	8082                	ret

000000000020e482 <handle_nvme_admin_cmd>:
  20e482:	00854783          	lbu	a5,8(a0) # 16000008 <g_nvmeTask+0x15defec0>
  20e486:	7179                	addi	sp,sp,-48
  20e488:	f022                	sd	s0,32(sp)
  20e48a:	ec26                	sd	s1,24(sp)
  20e48c:	f406                	sd	ra,40(sp)
  20e48e:	4731                	li	a4,12
  20e490:	842a                	mv	s0,a0
  20e492:	0007849b          	sext.w	s1,a5
  20e496:	00f76b63          	bltu	a4,a5,20e4ac <handle_nvme_admin_cmd+0x2a>
  20e49a:	0020f737          	lui	a4,0x20f
  20e49e:	078a                	slli	a5,a5,0x2
  20e4a0:	7c070713          	addi	a4,a4,1984 # 20f7c0 <nvme_main+0xe48>
  20e4a4:	97ba                	add	a5,a5,a4
  20e4a6:	439c                	lw	a5,0(a5)
  20e4a8:	0521                	addi	a0,a0,8
  20e4aa:	8782                	jr	a5
  20e4ac:	07c00713          	li	a4,124
  20e4b0:	00e78663          	beq	a5,a4,20e4bc <handle_nvme_admin_cmd+0x3a>
  20e4b4:	08200713          	li	a4,130
  20e4b8:	04e79963          	bne	a5,a4,20e50a <handle_nvme_admin_cmd+0x88>
  20e4bc:	00b44703          	lbu	a4,11(s0)
  20e4c0:	00144783          	lbu	a5,1(s0)
  20e4c4:	00a44583          	lbu	a1,10(s0)
  20e4c8:	00044503          	lbu	a0,0(s0)
  20e4cc:	0722                	slli	a4,a4,0x8
  20e4ce:	07a2                	slli	a5,a5,0x8
  20e4d0:	4681                	li	a3,0
  20e4d2:	4601                	li	a2,0
  20e4d4:	8dd9                	or	a1,a1,a4
  20e4d6:	8d5d                	or	a0,a0,a5
  20e4d8:	c402                	sw	zero,8(sp)
  20e4da:	00011623          	sh	zero,12(sp)
  20e4de:	afbfe0ef          	jal	ra,20cfd8 <set_nvme_cpl>
  20e4e2:	8526                	mv	a0,s1
  20e4e4:	962f60ef          	jal	ra,204646 <cpl_printint>
  20e4e8:	70a2                	ld	ra,40(sp)
  20e4ea:	7402                	ld	s0,32(sp)
  20e4ec:	64e2                	ld	s1,24(sp)
  20e4ee:	6145                	addi	sp,sp,48
  20e4f0:	8082                	ret
  20e4f2:	00344783          	lbu	a5,3(s0)
  20e4f6:	00244503          	lbu	a0,2(s0)
  20e4fa:	c402                	sw	zero,8(sp)
  20e4fc:	07a2                	slli	a5,a5,0x8
  20e4fe:	8d5d                	or	a0,a0,a5
  20e500:	00011623          	sh	zero,12(sp)
  20e504:	a79fe0ef          	jal	ra,20cf7c <set_nvme_slot_release>
  20e508:	bfe9                	j	20e4e2 <handle_nvme_admin_cmd+0x60>
  20e50a:	00210537          	lui	a0,0x210
  20e50e:	a8050513          	addi	a0,a0,-1408 # 20fa80 <nvme_main+0x1108>
  20e512:	906f60ef          	jal	ra,204618 <cpl_print>
  20e516:	8526                	mv	a0,s1
  20e518:	92ef60ef          	jal	ra,204646 <cpl_printint>
  20e51c:	00210537          	lui	a0,0x210
  20e520:	aa850513          	addi	a0,a0,-1368 # 20faa8 <nvme_main+0x1130>
  20e524:	8f4f60ef          	jal	ra,204618 <cpl_print>
  20e528:	a001                	j	20e528 <handle_nvme_admin_cmd+0xa6>
  20e52a:	002c                	addi	a1,sp,8
  20e52c:	b53ff0ef          	jal	ra,20e07e <handle_delete_io_sq>
  20e530:	65a2                	ld	a1,8(sp)
  20e532:	00815603          	lhu	a2,8(sp)
  20e536:	81c1                	srli	a1,a1,0x10
  20e538:	2581                	sext.w	a1,a1
  20e53a:	00344783          	lbu	a5,3(s0)
  20e53e:	00244503          	lbu	a0,2(s0)
  20e542:	07a2                	slli	a5,a5,0x8
  20e544:	8d5d                	or	a0,a0,a5
  20e546:	9a7fe0ef          	jal	ra,20ceec <set_auto_nvme_cpl>
  20e54a:	8526                	mv	a0,s1
  20e54c:	8faf60ef          	jal	ra,204646 <cpl_printint>
  20e550:	70a2                	ld	ra,40(sp)
  20e552:	7402                	ld	s0,32(sp)
  20e554:	64e2                	ld	s1,24(sp)
  20e556:	6145                	addi	sp,sp,48
  20e558:	8082                	ret
  20e55a:	002c                	addi	a1,sp,8
  20e55c:	a05ff0ef          	jal	ra,20df60 <handle_create_io_sq>
  20e560:	65a2                	ld	a1,8(sp)
  20e562:	00815603          	lhu	a2,8(sp)
  20e566:	81c1                	srli	a1,a1,0x10
  20e568:	2581                	sext.w	a1,a1
  20e56a:	bfc1                	j	20e53a <handle_nvme_admin_cmd+0xb8>
  20e56c:	c402                	sw	zero,8(sp)
  20e56e:	47a5                	li	a5,9
  20e570:	00f11523          	sh	a5,10(sp)
  20e574:	00011623          	sh	zero,12(sp)
  20e578:	4601                	li	a2,0
  20e57a:	45a5                	li	a1,9
  20e57c:	bf7d                	j	20e53a <handle_nvme_admin_cmd+0xb8>
  20e57e:	002c                	addi	a1,sp,8
  20e580:	cddff0ef          	jal	ra,20e25c <handle_delete_io_cq>
  20e584:	65a2                	ld	a1,8(sp)
  20e586:	00815603          	lhu	a2,8(sp)
  20e58a:	81c1                	srli	a1,a1,0x10
  20e58c:	2581                	sext.w	a1,a1
  20e58e:	b775                	j	20e53a <handle_nvme_admin_cmd+0xb8>
  20e590:	002c                	addi	a1,sp,8
  20e592:	b83ff0ef          	jal	ra,20e114 <handle_create_io_cq>
  20e596:	65a2                	ld	a1,8(sp)
  20e598:	00815603          	lhu	a2,8(sp)
  20e59c:	81c1                	srli	a1,a1,0x10
  20e59e:	2581                	sext.w	a1,a1
  20e5a0:	bf69                	j	20e53a <handle_nvme_admin_cmd+0xb8>
  20e5a2:	002c                	addi	a1,sp,8
  20e5a4:	d4fff0ef          	jal	ra,20e2f2 <handle_identify>
  20e5a8:	65a2                	ld	a1,8(sp)
  20e5aa:	00815603          	lhu	a2,8(sp)
  20e5ae:	81c1                	srli	a1,a1,0x10
  20e5b0:	2581                	sext.w	a1,a1
  20e5b2:	b761                	j	20e53a <handle_nvme_admin_cmd+0xb8>
  20e5b4:	c402                	sw	zero,8(sp)
  20e5b6:	00011623          	sh	zero,12(sp)
  20e5ba:	4601                	li	a2,0
  20e5bc:	4581                	li	a1,0
  20e5be:	bfb5                	j	20e53a <handle_nvme_admin_cmd+0xb8>
  20e5c0:	002c                	addi	a1,sp,8
  20e5c2:	edaff0ef          	jal	ra,20dc9c <handle_set_features>
  20e5c6:	65a2                	ld	a1,8(sp)
  20e5c8:	00815603          	lhu	a2,8(sp)
  20e5cc:	81c1                	srli	a1,a1,0x10
  20e5ce:	2581                	sext.w	a1,a1
  20e5d0:	b7ad                	j	20e53a <handle_nvme_admin_cmd+0xb8>
  20e5d2:	002c                	addi	a1,sp,8
  20e5d4:	815ff0ef          	jal	ra,20dde8 <handle_get_features>
  20e5d8:	65a2                	ld	a1,8(sp)
  20e5da:	00815603          	lhu	a2,8(sp)
  20e5de:	81c1                	srli	a1,a1,0x10
  20e5e0:	2581                	sext.w	a1,a1
  20e5e2:	bfa1                	j	20e53a <handle_nvme_admin_cmd+0xb8>

000000000020e5e4 <cpl_memset>:
  20e5e4:	ce19                	beqz	a2,20e602 <cpl_memset+0x1e>
  20e5e6:	fff6071b          	addiw	a4,a2,-1
  20e5ea:	1702                	slli	a4,a4,0x20
  20e5ec:	9301                	srli	a4,a4,0x20
  20e5ee:	0705                	addi	a4,a4,1
  20e5f0:	0ff5f593          	andi	a1,a1,255
  20e5f4:	87aa                	mv	a5,a0
  20e5f6:	972a                	add	a4,a4,a0
  20e5f8:	00b78023          	sb	a1,0(a5)
  20e5fc:	0785                	addi	a5,a5,1
  20e5fe:	fee79de3          	bne	a5,a4,20e5f8 <cpl_memset+0x14>
  20e602:	8082                	ret

000000000020e604 <cpl_memcpy>:
  20e604:	c205                	beqz	a2,20e624 <cpl_memcpy+0x20>
  20e606:	fff6071b          	addiw	a4,a2,-1
  20e60a:	1702                	slli	a4,a4,0x20
  20e60c:	9301                	srli	a4,a4,0x20
  20e60e:	0705                	addi	a4,a4,1
  20e610:	87aa                	mv	a5,a0
  20e612:	972e                	add	a4,a4,a1
  20e614:	0005c683          	lbu	a3,0(a1)
  20e618:	0585                	addi	a1,a1,1
  20e61a:	0785                	addi	a5,a5,1
  20e61c:	fed78fa3          	sb	a3,-1(a5)
  20e620:	fee59ae3          	bne	a1,a4,20e614 <cpl_memcpy+0x10>
  20e624:	8082                	ret

000000000020e626 <identify_controller>:
  20e626:	1502                	slli	a0,a0,0x20
  20e628:	9101                	srli	a0,a0,0x20
  20e62a:	6705                	lui	a4,0x1
  20e62c:	972a                	add	a4,a4,a0
  20e62e:	87aa                	mv	a5,a0
  20e630:	00078023          	sb	zero,0(a5)
  20e634:	0785                	addi	a5,a5,1
  20e636:	fee79de3          	bne	a5,a4,20e630 <identify_controller+0xa>
  20e63a:	fdc00713          	li	a4,-36
  20e63e:	47f9                	li	a5,30
  20e640:	00e50023          	sb	a4,0(a0)
  20e644:	00f500a3          	sb	a5,1(a0)
  20e648:	00e50123          	sb	a4,2(a0)
  20e64c:	00f501a3          	sb	a5,3(a0)
  20e650:	01850713          	addi	a4,a0,24
  20e654:	00450793          	addi	a5,a0,4
  20e658:	02000693          	li	a3,32
  20e65c:	00d78023          	sb	a3,0(a5)
  20e660:	0785                	addi	a5,a5,1
  20e662:	fee79de3          	bne	a5,a4,20e65c <identify_controller+0x36>
  20e666:	002107b7          	lui	a5,0x210
  20e66a:	ac878813          	addi	a6,a5,-1336 # 20fac8 <nvme_main+0x1150>
  20e66e:	4591                	li	a1,4
  20e670:	ac878793          	addi	a5,a5,-1336
  20e674:	0825                	addi	a6,a6,9
  20e676:	05300613          	li	a2,83
  20e67a:	8d9d                	sub	a1,a1,a5
  20e67c:	a019                	j	20e682 <identify_controller+0x5c>
  20e67e:	0007c603          	lbu	a2,0(a5)
  20e682:	00f506b3          	add	a3,a0,a5
  20e686:	96ae                	add	a3,a3,a1
  20e688:	00c68023          	sb	a2,0(a3) # 1000 <start-0x1ff000>
  20e68c:	0785                	addi	a5,a5,1
  20e68e:	ff0798e3          	bne	a5,a6,20e67e <identify_controller+0x58>
  20e692:	04050793          	addi	a5,a0,64
  20e696:	02000693          	li	a3,32
  20e69a:	00d70023          	sb	a3,0(a4) # 1000 <start-0x1ff000>
  20e69e:	0705                	addi	a4,a4,1
  20e6a0:	fef71de3          	bne	a4,a5,20e69a <identify_controller+0x74>
  20e6a4:	002105b7          	lui	a1,0x210
  20e6a8:	ad858693          	addi	a3,a1,-1320 # 20fad8 <nvme_main+0x1160>
  20e6ac:	00210737          	lui	a4,0x210
  20e6b0:	45dd                	li	a1,23
  20e6b2:	ad970713          	addi	a4,a4,-1319 # 20fad9 <nvme_main+0x1161>
  20e6b6:	01068813          	addi	a6,a3,16
  20e6ba:	04300613          	li	a2,67
  20e6be:	8d95                	sub	a1,a1,a3
  20e6c0:	a021                	j	20e6c8 <identify_controller+0xa2>
  20e6c2:	00074603          	lbu	a2,0(a4)
  20e6c6:	0705                	addi	a4,a4,1
  20e6c8:	00e506b3          	add	a3,a0,a4
  20e6cc:	96ae                	add	a3,a3,a1
  20e6ce:	00c68023          	sb	a2,0(a3)
  20e6d2:	ff0718e3          	bne	a4,a6,20e6c2 <identify_controller+0x9c>
  20e6d6:	04850693          	addi	a3,a0,72
  20e6da:	02000713          	li	a4,32
  20e6de:	00e78023          	sb	a4,0(a5)
  20e6e2:	0785                	addi	a5,a5,1
  20e6e4:	fef69de3          	bne	a3,a5,20e6de <identify_controller+0xb8>
  20e6e8:	002107b7          	lui	a5,0x210
  20e6ec:	ae878593          	addi	a1,a5,-1304 # 20fae8 <nvme_main+0x1170>
  20e6f0:	04000613          	li	a2,64
  20e6f4:	ae878793          	addi	a5,a5,-1304
  20e6f8:	05a5                	addi	a1,a1,9
  20e6fa:	05400693          	li	a3,84
  20e6fe:	8e1d                	sub	a2,a2,a5
  20e700:	a019                	j	20e706 <identify_controller+0xe0>
  20e702:	0007c683          	lbu	a3,0(a5)
  20e706:	00f50733          	add	a4,a0,a5
  20e70a:	9732                	add	a4,a4,a2
  20e70c:	00d70023          	sb	a3,0(a4)
  20e710:	0785                	addi	a5,a5,1
  20e712:	fef598e3          	bne	a1,a5,20e702 <identify_controller+0xdc>
  20e716:	10454783          	lbu	a5,260(a0)
  20e71a:	10054303          	lbu	t1,256(a0)
  20e71e:	10554803          	lbu	a6,261(a0)
  20e722:	9bc1                	andi	a5,a5,-16
  20e724:	10854583          	lbu	a1,264(a0)
  20e728:	10954603          	lbu	a2,265(a0)
  20e72c:	20854683          	lbu	a3,520(a0)
  20e730:	20a54703          	lbu	a4,522(a0)
  20e734:	0037e793          	ori	a5,a5,3
  20e738:	5f11                	li	t5,-28
  20e73a:	10f50223          	sb	a5,260(a0)
  20e73e:	06600793          	li	a5,102
  20e742:	05e504a3          	sb	t5,73(a0)
  20e746:	20f50023          	sb	a5,512(a0)
  20e74a:	fd200f13          	li	t5,-46
  20e74e:	04400793          	li	a5,68
  20e752:	4e21                	li	t3,8
  20e754:	48a5                	li	a7,9
  20e756:	4e8d                	li	t4,3
  20e758:	ffe87813          	andi	a6,a6,-2
  20e75c:	99f9                	andi	a1,a1,-2
  20e75e:	9a79                	andi	a2,a2,-2
  20e760:	9ae1                	andi	a3,a3,-8
  20e762:	9b79                	andi	a4,a4,-2
  20e764:	05e50523          	sb	t5,74(a0)
  20e768:	20f500a3          	sb	a5,513(a0)
  20e76c:	ff837313          	andi	t1,t1,-8
  20e770:	4785                	li	a5,1
  20e772:	05c00f13          	li	t5,92
  20e776:	110502a3          	sb	a6,261(a0)
  20e77a:	10b50423          	sb	a1,264(a0)
  20e77e:	20f50223          	sb	a5,516(a0)
  20e782:	20d50423          	sb	a3,520(a0)
  20e786:	20e50523          	sb	a4,522(a0)
  20e78a:	04050423          	sb	zero,72(a0)
  20e78e:	05e505a3          	sb	t5,75(a0)
  20e792:	04050623          	sb	zero,76(a0)
  20e796:	05c506a3          	sb	t3,77(a0)
  20e79a:	05150723          	sb	a7,78(a0)
  20e79e:	040507a3          	sb	zero,79(a0)
  20e7a2:	10650023          	sb	t1,256(a0)
  20e7a6:	11d50123          	sb	t4,258(a0)
  20e7aa:	11d501a3          	sb	t4,259(a0)
  20e7ae:	11c50323          	sb	t3,262(a0)
  20e7b2:	100503a3          	sb	zero,263(a0)
  20e7b6:	10c504a3          	sb	a2,265(a0)
  20e7ba:	200502a3          	sb	zero,517(a0)
  20e7be:	20050323          	sb	zero,518(a0)
  20e7c2:	200503a3          	sb	zero,519(a0)
  20e7c6:	20c54603          	lbu	a2,524(a0)
  20e7ca:	20d54683          	lbu	a3,525(a0)
  20e7ce:	21254803          	lbu	a6,530(a0)
  20e7d2:	21854703          	lbu	a4,536(a0)
  20e7d6:	21a54583          	lbu	a1,538(a0)
  20e7da:	9a61                	andi	a2,a2,-8
  20e7dc:	0016e693          	ori	a3,a3,1
  20e7e0:	9b79                	andi	a4,a4,-2
  20e7e2:	99f9                	andi	a1,a1,-2
  20e7e4:	ffe87813          	andi	a6,a6,-2
  20e7e8:	6785                	lui	a5,0x1
  20e7ea:	97aa                	add	a5,a5,a0
  20e7ec:	20b50d23          	sb	a1,538(a0)
  20e7f0:	20050723          	sb	zero,526(a0)
  20e7f4:	200507a3          	sb	zero,527(a0)
  20e7f8:	20050823          	sb	zero,528(a0)
  20e7fc:	200508a3          	sb	zero,529(a0)
  20e800:	21050923          	sb	a6,530(a0)
  20e804:	20050a23          	sb	zero,532(a0)
  20e808:	20050aa3          	sb	zero,533(a0)
  20e80c:	20c50623          	sb	a2,524(a0)
  20e810:	20d506a3          	sb	a3,525(a0)
  20e814:	20e50c23          	sb	a4,536(a0)
  20e818:	8037c603          	lbu	a2,-2045(a5) # 803 <start-0x1ff7fd>
  20e81c:	80c7c683          	lbu	a3,-2036(a5)
  20e820:	80d7c703          	lbu	a4,-2035(a5)
  20e824:	9a71                	andi	a2,a2,-4
  20e826:	9a81                	andi	a3,a3,-32
  20e828:	9b01                	andi	a4,a4,-32
  20e82a:	fc400593          	li	a1,-60
  20e82e:	80e786a3          	sb	a4,-2035(a5)
  20e832:	80b78023          	sb	a1,-2048(a5)
  20e836:	811780a3          	sb	a7,-2047(a5)
  20e83a:	80c781a3          	sb	a2,-2045(a5)
  20e83e:	80078223          	sb	zero,-2044(a5)
  20e842:	800782a3          	sb	zero,-2043(a5)
  20e846:	80078323          	sb	zero,-2042(a5)
  20e84a:	800783a3          	sb	zero,-2041(a5)
  20e84e:	80078423          	sb	zero,-2040(a5)
  20e852:	800784a3          	sb	zero,-2039(a5)
  20e856:	80078523          	sb	zero,-2038(a5)
  20e85a:	800785a3          	sb	zero,-2037(a5)
  20e85e:	80d78623          	sb	a3,-2036(a5)
  20e862:	80e7c683          	lbu	a3,-2034(a5)
  20e866:	80f7c703          	lbu	a4,-2033(a5)
  20e86a:	9a81                	andi	a3,a3,-32
  20e86c:	9b01                	andi	a4,a4,-32
  20e86e:	80d78723          	sb	a3,-2034(a5)
  20e872:	80e787a3          	sb	a4,-2033(a5)
  20e876:	8082                	ret

000000000020e878 <identify_namespace>:
  20e878:	1502                	slli	a0,a0,0x20
  20e87a:	9101                	srli	a0,a0,0x20
  20e87c:	6705                	lui	a4,0x1
  20e87e:	87aa                	mv	a5,a0
  20e880:	972a                	add	a4,a4,a0
  20e882:	00078023          	sb	zero,0(a5)
  20e886:	0785                	addi	a5,a5,1
  20e888:	fee79de3          	bne	a5,a4,20e882 <identify_namespace+0xa>
  20e88c:	002107b7          	lui	a5,0x210
  20e890:	0c07a783          	lw	a5,192(a5) # 2100c0 <storageCapacity_L>
  20e894:	01854803          	lbu	a6,24(a0)
  20e898:	01a54583          	lbu	a1,26(a0)
  20e89c:	01b54603          	lbu	a2,27(a0)
  20e8a0:	0087d69b          	srliw	a3,a5,0x8
  20e8a4:	0107d71b          	srliw	a4,a5,0x10
  20e8a8:	0ff7f893          	andi	a7,a5,255
  20e8ac:	0ff6f693          	andi	a3,a3,255
  20e8b0:	0ff77713          	andi	a4,a4,255
  20e8b4:	0187d79b          	srliw	a5,a5,0x18
  20e8b8:	9981                	andi	a1,a1,-32
  20e8ba:	9a71                	andi	a2,a2,-4
  20e8bc:	ffe87813          	andi	a6,a6,-2
  20e8c0:	00d500a3          	sb	a3,1(a0)
  20e8c4:	00e50123          	sb	a4,2(a0)
  20e8c8:	00f501a3          	sb	a5,3(a0)
  20e8cc:	00d504a3          	sb	a3,9(a0)
  20e8d0:	00e50523          	sb	a4,10(a0)
  20e8d4:	00f505a3          	sb	a5,11(a0)
  20e8d8:	00d508a3          	sb	a3,17(a0)
  20e8dc:	00e50923          	sb	a4,18(a0)
  20e8e0:	00f509a3          	sb	a5,19(a0)
  20e8e4:	00c50da3          	sb	a2,27(a0)
  20e8e8:	01150023          	sb	a7,0(a0)
  20e8ec:	00050223          	sb	zero,4(a0)
  20e8f0:	000502a3          	sb	zero,5(a0)
  20e8f4:	00050323          	sb	zero,6(a0)
  20e8f8:	000503a3          	sb	zero,7(a0)
  20e8fc:	01150423          	sb	a7,8(a0)
  20e900:	00050623          	sb	zero,12(a0)
  20e904:	000506a3          	sb	zero,13(a0)
  20e908:	00050723          	sb	zero,14(a0)
  20e90c:	000507a3          	sb	zero,15(a0)
  20e910:	01150823          	sb	a7,16(a0)
  20e914:	00050a23          	sb	zero,20(a0)
  20e918:	00050aa3          	sb	zero,21(a0)
  20e91c:	00050b23          	sb	zero,22(a0)
  20e920:	00050ba3          	sb	zero,23(a0)
  20e924:	01050c23          	sb	a6,24(a0)
  20e928:	00050ca3          	sb	zero,25(a0)
  20e92c:	00b50d23          	sb	a1,26(a0)
  20e930:	01c54583          	lbu	a1,28(a0)
  20e934:	08354783          	lbu	a5,131(a0)
  20e938:	01f54703          	lbu	a4,31(a0)
  20e93c:	01d54603          	lbu	a2,29(a0)
  20e940:	01e54683          	lbu	a3,30(a0)
  20e944:	fc077713          	andi	a4,a4,-64
  20e948:	9bf1                	andi	a5,a5,-4
  20e94a:	9981                	andi	a1,a1,-32
  20e94c:	9a41                	andi	a2,a2,-16
  20e94e:	9af9                	andi	a3,a3,-2
  20e950:	0027e793          	ori	a5,a5,2
  20e954:	00e50fa3          	sb	a4,31(a0)
  20e958:	4731                	li	a4,12
  20e95a:	00b50e23          	sb	a1,28(a0)
  20e95e:	00c50ea3          	sb	a2,29(a0)
  20e962:	00d50f23          	sb	a3,30(a0)
  20e966:	08050023          	sb	zero,128(a0)
  20e96a:	080500a3          	sb	zero,129(a0)
  20e96e:	08e50123          	sb	a4,130(a0)
  20e972:	08f501a3          	sb	a5,131(a0)
  20e976:	8082                	ret

000000000020e978 <nvme_main>:
  20e978:	00210537          	lui	a0,0x210
  20e97c:	7155                	addi	sp,sp,-208
  20e97e:	af850513          	addi	a0,a0,-1288 # 20faf8 <nvme_main+0x1180>
  20e982:	e586                	sd	ra,200(sp)
  20e984:	e1a2                	sd	s0,192(sp)
  20e986:	fd26                	sd	s1,184(sp)
  20e988:	f94a                	sd	s2,176(sp)
  20e98a:	f54e                	sd	s3,168(sp)
  20e98c:	f152                	sd	s4,160(sp)
  20e98e:	ed56                	sd	s5,152(sp)
  20e990:	e95a                	sd	s6,144(sp)
  20e992:	e55e                	sd	s7,136(sp)
  20e994:	e162                	sd	s8,128(sp)
  20e996:	fce6                	sd	s9,120(sp)
  20e998:	f8ea                	sd	s10,112(sp)
  20e99a:	f4ee                	sd	s11,104(sp)
  20e99c:	18000437          	lui	s0,0x18000
  20e9a0:	c79f50ef          	jal	ra,204618 <cpl_print>
  20e9a4:	ff040513          	addi	a0,s0,-16 # 17fffff0 <g_nvmeTask+0x17defea8>
  20e9a8:	e11f50ef          	jal	ra,2047b8 <cpl_In32>
  20e9ac:	67d5                	lui	a5,0x15
  20e9ae:	0005071b          	sext.w	a4,a0
  20e9b2:	dd978793          	addi	a5,a5,-551 # 14dd9 <start-0x1eb227>
  20e9b6:	38f70263          	beq	a4,a5,20ed3a <nvme_main+0x3c2>
  20e9ba:	18000537          	lui	a0,0x18000
  20e9be:	1541                	addi	a0,a0,-16
  20e9c0:	df9f50ef          	jal	ra,2047b8 <cpl_In32>
  20e9c4:	67d5                	lui	a5,0x15
  20e9c6:	0005071b          	sext.w	a4,a0
  20e9ca:	dd978793          	addi	a5,a5,-551 # 14dd9 <start-0x1eb227>
  20e9ce:	00f70463          	beq	a4,a5,20e9d6 <nvme_main+0x5e>
  20e9d2:	b46fb0ef          	jal	ra,209d18 <InitFTL>
  20e9d6:	00210537          	lui	a0,0x210
  20e9da:	b2850513          	addi	a0,a0,-1240 # 20fb28 <nvme_main+0x11b0>
  20e9de:	c3bf50ef          	jal	ra,204618 <cpl_print>
  20e9e2:	17fe07b7          	lui	a5,0x17fe0
  20e9e6:	f0078793          	addi	a5,a5,-256 # 17fdff00 <g_nvmeTask+0x17dcfdb8>
  20e9ea:	00210437          	lui	s0,0x210
  20e9ee:	6941                	lui	s2,0x10
  20e9f0:	20f00b93          	li	s7,527
  20e9f4:	e43e                	sd	a5,8(sp)
  20e9f6:	43c807b7          	lui	a5,0x43c80
  20e9fa:	4c01                	li	s8,0
  20e9fc:	14840413          	addi	s0,s0,328 # 210148 <g_nvmeTask>
  20ea00:	00210cb7          	lui	s9,0x210
  20ea04:	002109b7          	lui	s3,0x210
  20ea08:	00210b37          	lui	s6,0x210
  20ea0c:	00210ab7          	lui	s5,0x210
  20ea10:	197d                	addi	s2,s2,-1
  20ea12:	0bda                	slli	s7,s7,0x16
  20ea14:	01478493          	addi	s1,a5,20 # 43c80014 <g_nvmeTask+0x43a6fecc>
  20ea18:	a829                	j	20ea32 <nvme_main+0xba>
  20ea1a:	cd8fd0ef          	jal	ra,20bef2 <CheckDoneNvmeDmaReq>
  20ea1e:	cedf60ef          	jal	ra,20570a <SchedulingNandReq>
  20ea22:	8526                	mv	a0,s1
  20ea24:	4585                	li	a1,1
  20ea26:	d8ff50ef          	jal	ra,2047b4 <cpl_Out32>
  20ea2a:	4581                	li	a1,0
  20ea2c:	8526                	mv	a0,s1
  20ea2e:	d87f50ef          	jal	ra,2047b4 <cpl_Out32>
  20ea32:	00042a03          	lw	s4,0(s0)
  20ea36:	4d05                	li	s10,1
  20ea38:	2a01                	sext.w	s4,s4
  20ea3a:	0baa0663          	beq	s4,s10,20eae6 <nvme_main+0x16e>
  20ea3e:	401c                	lw	a5,0(s0)
  20ea40:	4689                	li	a3,2
  20ea42:	2781                	sext.w	a5,a5
  20ea44:	0ed78063          	beq	a5,a3,20eb24 <nvme_main+0x1ac>
  20ea48:	401c                	lw	a5,0(s0)
  20ea4a:	470d                	li	a4,3
  20ea4c:	2781                	sext.w	a5,a5
  20ea4e:	02e78863          	beq	a5,a4,20ea7e <nvme_main+0x106>
  20ea52:	401c                	lw	a5,0(s0)
  20ea54:	4711                	li	a4,4
  20ea56:	2781                	sext.w	a5,a5
  20ea58:	16e78663          	beq	a5,a4,20ebc4 <nvme_main+0x24c>
  20ea5c:	401c                	lw	a5,0(s0)
  20ea5e:	4715                	li	a4,5
  20ea60:	2781                	sext.w	a5,a5
  20ea62:	18e78663          	beq	a5,a4,20ebee <nvme_main+0x276>
  20ea66:	e609d783          	lhu	a5,-416(s3) # 20fe60 <nvmeDmaReqQ>
  20ea6a:	fb2798e3          	bne	a5,s2,20ea1a <nvme_main+0xa2>
  20ea6e:	c38b2783          	lw	a5,-968(s6) # 20fc38 <notCompletedNandReqCnt>
  20ea72:	068aa703          	lw	a4,104(s5) # 210068 <blockedReqCnt>
  20ea76:	8fd9                	or	a5,a5,a4
  20ea78:	2781                	sext.w	a5,a5
  20ea7a:	d7c5                	beqz	a5,20ea22 <nvme_main+0xaa>
  20ea7c:	bf79                	j	20ea1a <nvme_main+0xa2>
  20ea7e:	200ba783          	lw	a5,512(s7)
  20ea82:	8b99                	andi	a5,a5,6
  20ea84:	d3ed                	beqz	a5,20ea66 <nvme_main+0xee>
  20ea86:	4505                	li	a0,1
  20ea88:	a7cfe0ef          	jal	ra,20cd04 <set_nvme_csts_shst>
  20ea8c:	4d81                	li	s11,0
  20ea8e:	4a21                	li	s4,8
  20ea90:	856e                	mv	a0,s11
  20ea92:	4781                	li	a5,0
  20ea94:	4701                	li	a4,0
  20ea96:	4681                	li	a3,0
  20ea98:	4601                	li	a2,0
  20ea9a:	4581                	li	a1,0
  20ea9c:	4801                	li	a6,0
  20ea9e:	ebafe0ef          	jal	ra,20d158 <set_io_cq>
  20eaa2:	856e                	mv	a0,s11
  20eaa4:	4781                	li	a5,0
  20eaa6:	2d85                	addiw	s11,s11,1
  20eaa8:	4701                	li	a4,0
  20eaaa:	4681                	li	a3,0
  20eaac:	4601                	li	a2,0
  20eaae:	4581                	li	a1,0
  20eab0:	dd0fe0ef          	jal	ra,20d080 <set_io_sq>
  20eab4:	fd4d9ee3          	bne	s11,s4,20ea90 <nvme_main+0x118>
  20eab8:	4601                	li	a2,0
  20eaba:	4581                	li	a1,0
  20eabc:	4501                	li	a0,0
  20eabe:	a9afe0ef          	jal	ra,20cd58 <set_nvme_admin_queue>
  20eac2:	4509                	li	a0,2
  20eac4:	00042223          	sw	zero,4(s0)
  20eac8:	a3cfe0ef          	jal	ra,20cd04 <set_nvme_csts_shst>
  20eacc:	4791                	li	a5,4
  20eace:	11144537          	lui	a0,0x11144
  20ead2:	c01c                	sw	a5,0(s0)
  20ead4:	b68f40ef          	jal	ra,202e3c <UpdateBadBlockTableForGrownBadBlock>
  20ead8:	002107b7          	lui	a5,0x210
  20eadc:	b5878513          	addi	a0,a5,-1192 # 20fb58 <nvme_main+0x11e0>
  20eae0:	b39f50ef          	jal	ra,204618 <cpl_print>
  20eae4:	b749                	j	20ea66 <nvme_main+0xee>
  20eae6:	8fefe0ef          	jal	ra,20cbe4 <check_nvme_cc_en>
  20eaea:	2501                	sext.w	a0,a0
  20eaec:	f7451de3          	bne	a0,s4,20ea66 <nvme_main+0xee>
  20eaf0:	4605                	li	a2,1
  20eaf2:	4585                	li	a1,1
  20eaf4:	4505                	li	a0,1
  20eaf6:	a62fe0ef          	jal	ra,20cd58 <set_nvme_admin_queue>
  20eafa:	4505                	li	a0,1
  20eafc:	9b4fe0ef          	jal	ra,20ccb0 <set_nvme_csts_rdy>
  20eb00:	18000a37          	lui	s4,0x18000
  20eb04:	4789                	li	a5,2
  20eb06:	ff0a0513          	addi	a0,s4,-16 # 17fffff0 <g_nvmeTask+0x17defea8>
  20eb0a:	c01c                	sw	a5,0(s0)
  20eb0c:	cadf50ef          	jal	ra,2047b8 <cpl_In32>
  20eb10:	2501                	sext.w	a0,a0
  20eb12:	14050d63          	beqz	a0,20ec6c <nvme_main+0x2f4>
  20eb16:	002107b7          	lui	a5,0x210
  20eb1a:	b4078513          	addi	a0,a5,-1216 # 20fb40 <nvme_main+0x11c8>
  20eb1e:	afbf50ef          	jal	ra,204618 <cpl_print>
  20eb22:	b791                	j	20ea66 <nvme_main+0xee>
  20eb24:	1014                	addi	a3,sp,32
  20eb26:	0870                	addi	a2,sp,28
  20eb28:	01a10593          	addi	a1,sp,26
  20eb2c:	0828                	addi	a0,sp,24
  20eb2e:	ac6fe0ef          	jal	ra,20cdf4 <get_nvme_cmd>
  20eb32:	8a2a                	mv	s4,a0
  20eb34:	18000537          	lui	a0,0x18000
  20eb38:	1551                	addi	a0,a0,-12
  20eb3a:	c7ff50ef          	jal	ra,2047b8 <cpl_In32>
  20eb3e:	2a01                	sext.w	s4,s4
  20eb40:	00050d9b          	sext.w	s11,a0
  20eb44:	f3aa11e3          	bne	s4,s10,20ea66 <nvme_main+0xee>
  20eb48:	01815703          	lhu	a4,24(sp)
  20eb4c:	0007069b          	sext.w	a3,a4
  20eb50:	01470863          	beq	a4,s4,20eb60 <nvme_main+0x1e8>
  20eb54:	ef09                	bnez	a4,20eb6e <nvme_main+0x1f6>
  20eb56:	0828                	addi	a0,sp,24
  20eb58:	92bff0ef          	jal	ra,20e482 <handle_nvme_admin_cmd>
  20eb5c:	4c01                	li	s8,0
  20eb5e:	b721                	j	20ea66 <nvme_main+0xee>
  20eb60:	02014703          	lbu	a4,32(sp)
  20eb64:	377d                	addiw	a4,a4,-1
  20eb66:	0ff77713          	andi	a4,a4,255
  20eb6a:	16e6fe63          	bgeu	a3,a4,20ece6 <nvme_main+0x36e>
  20eb6e:	0828                	addi	a0,sp,24
  20eb70:	cf9fd0ef          	jal	ra,20c868 <handle_nvme_io_cmd>
  20eb74:	0828                	addi	a0,sp,24
  20eb76:	fa5fb0ef          	jal	ra,20ab1a <ReqTransSliceToLowLevel>
  20eb7a:	18000c37          	lui	s8,0x18000
  20eb7e:	ff4c0513          	addi	a0,s8,-12 # 17fffff4 <g_nvmeTask+0x17defeac>
  20eb82:	c37f50ef          	jal	ra,2047b8 <cpl_In32>
  20eb86:	00050a1b          	sext.w	s4,a0
  20eb8a:	000a0a63          	beqz	s4,20eb9e <nvme_main+0x226>
  20eb8e:	02014703          	lbu	a4,32(sp)
  20eb92:	4685                	li	a3,1
  20eb94:	377d                	addiw	a4,a4,-1
  20eb96:	0ff77713          	andi	a4,a4,255
  20eb9a:	00e6f463          	bgeu	a3,a4,20eba2 <nvme_main+0x22a>
  20eb9e:	4c01                	li	s8,0
  20eba0:	b549                	j	20ea22 <nvme_main+0xaa>
  20eba2:	6da2                	ld	s11,8(sp)
  20eba4:	1c51                	addi	s8,s8,-12
  20eba6:	008d871b          	addiw	a4,s11,8
  20ebaa:	02071d13          	slli	s10,a4,0x20
  20ebae:	020d5d13          	srli	s10,s10,0x20
  20ebb2:	856a                	mv	a0,s10
  20ebb4:	c05f50ef          	jal	ra,2047b8 <cpl_In32>
  20ebb8:	2501                	sext.w	a0,a0
  20ebba:	4785                	li	a5,1
  20ebbc:	0cf50763          	beq	a0,a5,20ec8a <nvme_main+0x312>
  20ebc0:	2db1                	addiw	s11,s11,12
  20ebc2:	b7d5                	j	20eba6 <nvme_main+0x22e>
  20ebc4:	820fe0ef          	jal	ra,20cbe4 <check_nvme_cc_en>
  20ebc8:	2501                	sext.w	a0,a0
  20ebca:	e8051ee3          	bnez	a0,20ea66 <nvme_main+0xee>
  20ebce:	00042223          	sw	zero,4(s0)
  20ebd2:	932fe0ef          	jal	ra,20cd04 <set_nvme_csts_shst>
  20ebd6:	4501                	li	a0,0
  20ebd8:	8d8fe0ef          	jal	ra,20ccb0 <set_nvme_csts_rdy>
  20ebdc:	002107b7          	lui	a5,0x210
  20ebe0:	b7078513          	addi	a0,a5,-1168 # 20fb70 <nvme_main+0x11f8>
  20ebe4:	00042023          	sw	zero,0(s0)
  20ebe8:	a31f50ef          	jal	ra,204618 <cpl_print>
  20ebec:	bdad                	j	20ea66 <nvme_main+0xee>
  20ebee:	4d81                	li	s11,0
  20ebf0:	4a21                	li	s4,8
  20ebf2:	856e                	mv	a0,s11
  20ebf4:	4781                	li	a5,0
  20ebf6:	4701                	li	a4,0
  20ebf8:	4681                	li	a3,0
  20ebfa:	4601                	li	a2,0
  20ebfc:	4581                	li	a1,0
  20ebfe:	4801                	li	a6,0
  20ec00:	d58fe0ef          	jal	ra,20d158 <set_io_cq>
  20ec04:	856e                	mv	a0,s11
  20ec06:	4781                	li	a5,0
  20ec08:	2d85                	addiw	s11,s11,1
  20ec0a:	4701                	li	a4,0
  20ec0c:	4681                	li	a3,0
  20ec0e:	4601                	li	a2,0
  20ec10:	4581                	li	a1,0
  20ec12:	c6efe0ef          	jal	ra,20d080 <set_io_sq>
  20ec16:	fd4d9ee3          	bne	s11,s4,20ebf2 <nvme_main+0x27a>
  20ec1a:	4791                	li	a5,4
  20ec1c:	0387e763          	bltu	a5,s8,20ec4a <nvme_main+0x2d2>
  20ec20:	2c05                	addiw	s8,s8,1
  20ec22:	4601                	li	a2,0
  20ec24:	4581                	li	a1,0
  20ec26:	4501                	li	a0,0
  20ec28:	00042223          	sw	zero,4(s0)
  20ec2c:	92cfe0ef          	jal	ra,20cd58 <set_nvme_admin_queue>
  20ec30:	4501                	li	a0,0
  20ec32:	8d2fe0ef          	jal	ra,20cd04 <set_nvme_csts_shst>
  20ec36:	4501                	li	a0,0
  20ec38:	878fe0ef          	jal	ra,20ccb0 <set_nvme_csts_rdy>
  20ec3c:	bd8c8513          	addi	a0,s9,-1064 # 20fbd8 <nvme_main+0x1260>
  20ec40:	00042023          	sw	zero,0(s0)
  20ec44:	9d5f50ef          	jal	ra,204618 <cpl_print>
  20ec48:	bd39                	j	20ea66 <nvme_main+0xee>
  20ec4a:	8562                	mv	a0,s8
  20ec4c:	fc5fd0ef          	jal	ra,20cc10 <pcie_async_reset>
  20ec50:	002107b7          	lui	a5,0x210
  20ec54:	b8878513          	addi	a0,a5,-1144 # 20fb88 <nvme_main+0x1210>
  20ec58:	9c1f50ef          	jal	ra,204618 <cpl_print>
  20ec5c:	002107b7          	lui	a5,0x210
  20ec60:	ba878513          	addi	a0,a5,-1112 # 20fba8 <nvme_main+0x1230>
  20ec64:	9b5f50ef          	jal	ra,204618 <cpl_print>
  20ec68:	4c01                	li	s8,0
  20ec6a:	bf65                	j	20ec22 <nvme_main+0x2aa>
  20ec6c:	65d5                	lui	a1,0x15
  20ec6e:	ff0a0513          	addi	a0,s4,-16
  20ec72:	dd958593          	addi	a1,a1,-551 # 14dd9 <start-0x1eb227>
  20ec76:	b3ff50ef          	jal	ra,2047b4 <cpl_Out32>
  20ec7a:	43c807b7          	lui	a5,0x43c80
  20ec7e:	4585                	li	a1,1
  20ec80:	01878513          	addi	a0,a5,24 # 43c80018 <g_nvmeTask+0x43a6fed0>
  20ec84:	b31f50ef          	jal	ra,2047b4 <cpl_Out32>
  20ec88:	b579                	j	20eb16 <nvme_main+0x19e>
  20ec8a:	020d9813          	slli	a6,s11,0x20
  20ec8e:	02085813          	srli	a6,a6,0x20
  20ec92:	8542                	mv	a0,a6
  20ec94:	e042                	sd	a6,0(sp)
  20ec96:	b23f50ef          	jal	ra,2047b8 <cpl_In32>
  20ec9a:	4601                	li	a2,0
  20ec9c:	2501                	sext.w	a0,a0
  20ec9e:	4581                	li	a1,0
  20eca0:	a4cfe0ef          	jal	ra,20ceec <set_auto_nvme_cpl>
  20eca4:	002107b7          	lui	a5,0x210
  20eca8:	1407a603          	lw	a2,320(a5) # 210140 <table_logic_minus_count>
  20ecac:	3a7d                	addiw	s4,s4,-1
  20ecae:	85d2                	mv	a1,s4
  20ecb0:	2605                	addiw	a2,a2,1
  20ecb2:	8562                	mv	a0,s8
  20ecb4:	14c7a023          	sw	a2,320(a5)
  20ecb8:	afdf50ef          	jal	ra,2047b4 <cpl_Out32>
  20ecbc:	6802                	ld	a6,0(sp)
  20ecbe:	4581                	li	a1,0
  20ecc0:	8542                	mv	a0,a6
  20ecc2:	af3f50ef          	jal	ra,2047b4 <cpl_Out32>
  20ecc6:	004d851b          	addiw	a0,s11,4
  20ecca:	1502                	slli	a0,a0,0x20
  20eccc:	9101                	srli	a0,a0,0x20
  20ecce:	4581                	li	a1,0
  20ecd0:	ae5f50ef          	jal	ra,2047b4 <cpl_Out32>
  20ecd4:	4581                	li	a1,0
  20ecd6:	856a                	mv	a0,s10
  20ecd8:	addf50ef          	jal	ra,2047b4 <cpl_Out32>
  20ecdc:	2db1                	addiw	s11,s11,12
  20ecde:	ec0a14e3          	bnez	s4,20eba6 <nvme_main+0x22e>
  20ece2:	4c01                	li	s8,0
  20ece4:	bb3d                	j	20ea22 <nvme_main+0xaa>
  20ece6:	6c22                	ld	s8,8(sp)
  20ece8:	a011                	j	20ecec <nvme_main+0x374>
  20ecea:	2c31                	addiw	s8,s8,12
  20ecec:	008c0a1b          	addiw	s4,s8,8
  20ecf0:	1a02                	slli	s4,s4,0x20
  20ecf2:	020a5a13          	srli	s4,s4,0x20
  20ecf6:	8552                	mv	a0,s4
  20ecf8:	ac1f50ef          	jal	ra,2047b8 <cpl_In32>
  20ecfc:	2501                	sext.w	a0,a0
  20ecfe:	f575                	bnez	a0,20ecea <nvme_main+0x372>
  20ed00:	01a15583          	lhu	a1,26(sp)
  20ed04:	020c1513          	slli	a0,s8,0x20
  20ed08:	9101                	srli	a0,a0,0x20
  20ed0a:	aabf50ef          	jal	ra,2047b4 <cpl_Out32>
  20ed0e:	02215583          	lhu	a1,34(sp)
  20ed12:	004c051b          	addiw	a0,s8,4
  20ed16:	1502                	slli	a0,a0,0x20
  20ed18:	9101                	srli	a0,a0,0x20
  20ed1a:	a9bf50ef          	jal	ra,2047b4 <cpl_Out32>
  20ed1e:	4585                	li	a1,1
  20ed20:	8552                	mv	a0,s4
  20ed22:	a93f50ef          	jal	ra,2047b4 <cpl_Out32>
  20ed26:	18000537          	lui	a0,0x18000
  20ed2a:	001d859b          	addiw	a1,s11,1
  20ed2e:	1551                	addi	a0,a0,-12
  20ed30:	a85f50ef          	jal	ra,2047b4 <cpl_Out32>
  20ed34:	01815703          	lhu	a4,24(sp)
  20ed38:	bd31                	j	20eb54 <nvme_main+0x1dc>
  20ed3a:	ff440513          	addi	a0,s0,-12
  20ed3e:	a7bf50ef          	jal	ra,2047b8 <cpl_In32>
  20ed42:	17fe0437          	lui	s0,0x17fe0
  20ed46:	0005049b          	sext.w	s1,a0
  20ed4a:	f0040413          	addi	s0,s0,-256 # 17fdff00 <g_nvmeTask+0x17dcfdb8>
  20ed4e:	4a05                	li	s4,1
  20ed50:	c8a5                	beqz	s1,20edc0 <nvme_main+0x448>
  20ed52:	0084091b          	addiw	s2,s0,8
  20ed56:	1902                	slli	s2,s2,0x20
  20ed58:	02095913          	srli	s2,s2,0x20
  20ed5c:	854a                	mv	a0,s2
  20ed5e:	a5bf50ef          	jal	ra,2047b8 <cpl_In32>
  20ed62:	0005079b          	sext.w	a5,a0
  20ed66:	01478f63          	beq	a5,s4,20ed84 <nvme_main+0x40c>
  20ed6a:	2431                	addiw	s0,s0,12
  20ed6c:	0084091b          	addiw	s2,s0,8
  20ed70:	1902                	slli	s2,s2,0x20
  20ed72:	02095913          	srli	s2,s2,0x20
  20ed76:	854a                	mv	a0,s2
  20ed78:	a41f50ef          	jal	ra,2047b8 <cpl_In32>
  20ed7c:	0005079b          	sext.w	a5,a0
  20ed80:	ff4795e3          	bne	a5,s4,20ed6a <nvme_main+0x3f2>
  20ed84:	02041993          	slli	s3,s0,0x20
  20ed88:	0209d993          	srli	s3,s3,0x20
  20ed8c:	854e                	mv	a0,s3
  20ed8e:	a2bf50ef          	jal	ra,2047b8 <cpl_In32>
  20ed92:	4601                	li	a2,0
  20ed94:	2501                	sext.w	a0,a0
  20ed96:	4581                	li	a1,0
  20ed98:	954fe0ef          	jal	ra,20ceec <set_auto_nvme_cpl>
  20ed9c:	854e                	mv	a0,s3
  20ed9e:	4581                	li	a1,0
  20eda0:	a15f50ef          	jal	ra,2047b4 <cpl_Out32>
  20eda4:	0044051b          	addiw	a0,s0,4
  20eda8:	1502                	slli	a0,a0,0x20
  20edaa:	9101                	srli	a0,a0,0x20
  20edac:	4581                	li	a1,0
  20edae:	a07f50ef          	jal	ra,2047b4 <cpl_Out32>
  20edb2:	4581                	li	a1,0
  20edb4:	854a                	mv	a0,s2
  20edb6:	34fd                	addiw	s1,s1,-1
  20edb8:	9fdf50ef          	jal	ra,2047b4 <cpl_Out32>
  20edbc:	2431                	addiw	s0,s0,12
  20edbe:	f8d1                	bnez	s1,20ed52 <nvme_main+0x3da>
  20edc0:	18000537          	lui	a0,0x18000
  20edc4:	4581                	li	a1,0
  20edc6:	1551                	addi	a0,a0,-12
  20edc8:	9edf50ef          	jal	ra,2047b4 <cpl_Out32>
  20edcc:	b6fd                	j	20e9ba <nvme_main+0x42>
